///////////////////////////////////////////////////////////////////////////////
//                                                                            /
// IAR C/C++ Compiler V8.10.3.10338/W32 for 8051        24/Jun/2019  16:43:42 /
// Copyright 2004-2011 IAR Systems AB.                                        /
//                                                                            /
//    Core               =  plain                                             /
//    Code model         =  banked                                            /
//    Data model         =  large                                             /
//    Calling convention =  xdata reentrant                                   /
//    Constant location  =  data_rom                                          /
//    Dptr setup         =  1,16                                              /
//    Source file        =  E:\Github_Repository\zigbee-net-tech\ZStack-2.5.1 /
//                          a\Projects\zstack\Samples\SampleApp\Source\Sample /
//                          App.c                                             /
//    Command line       =  -f E:\Github_Repository\zigbee-net-tech\ZStack-2. /
//                          5.1a\Projects\zstack\Samples\SampleApp\CC2530DB\. /
//                          .\..\..\Tools\CC2530DB\f8wEndev.cfg (-DCPU32MHZ   /
//                          -DROOT=__near_func -DMAC_CFG_TX_DATA_MAX=3        /
//                          -DMAC_CFG_TX_MAX=6 -DMAC_CFG_RX_MAX=3             /
//                          -DEND_DEVICE) -f E:\Github_Repository\zigbee-net- /
//                          tech\ZStack-2.5.1a\Projects\zstack\Samples\Sample /
//                          App\CC2530DB\..\..\..\Tools\CC2530DB\f8wConfig.cf /
//                          g (-DZIGBEEPRO -DSECURE=0 -DZG_SECURE_DYNAMIC=0   /
//                          -DREFLECTOR -DDEFAULT_CHANLIST=0x00000800         /
//                          -DZDAPP_CONFIG_PAN_ID=0xFFF1                      /
//                          -DNWK_START_DELAY=100 -DEXTENDED_JOINING_RANDOM_M /
//                          ASK=0x007F -DBEACON_REQUEST_DELAY=100             /
//                          -DBEACON_REQ_DELAY_MASK=0x00FF                    /
//                          -DLINK_STATUS_JITTER_MASK=0x007F                  /
//                          -DROUTE_EXPIRY_TIME=30 -DAPSC_ACK_WAIT_DURATION_P /
//                          OLLED=3000 -DNWK_INDIRECT_MSG_TIMEOUT=7           /
//                          -DMAX_RREQ_ENTRIES=8 -DAPSC_MAX_FRAME_RETRIES=3   /
//                          -DNWK_MAX_DATA_RETRIES=2                          /
//                          -DMAX_POLL_FAILURE_RETRIES=2 -DMAX_BCAST=9        /
//                          -DAPS_MAX_GROUPS=16 -DMAX_RTG_ENTRIES=40          /
//                          -DNWK_MAX_BINDING_ENTRIES=4                       /
//                          -DMAX_BINDING_CLUSTER_IDS=4                       /
//                          "-DDEFAULT_KEY={0x01, 0x03, 0x05, 0x07, 0x09,     /
//                          0x0B, 0x0D, 0x0F, 0x00, 0x02, 0x04, 0x06, 0x08,   /
//                          0x0A, 0x0C, 0x0D}" -DMAC_MAX_FRAME_SIZE=116       /
//                          -DZDNWKMGR_MIN_TRANSMISSIONS=20 "-DCONST=const    /
//                          __code" -DGENERIC=__generic                       /
//                          -DRFD_RCVC_ALWAYS_ON=FALSE -DPOLL_RATE=1000       /
//                          -DQUEUED_POLL_RATE=100 -DRESPONSE_POLL_RATE=100)  /
//                          -DREJOIN_POLL_RATE=440 E:\Github_Repository\zigbe /
//                          e-net-tech\ZStack-2.5.1a\Projects\zstack\Samples\ /
//                          SampleApp\Source\SampleApp.c -D NWK_AUTO_POLL -D  /
//                          ZTOOL_P1 -D MT_TASK -D MT_SYS_FUNC -D             /
//                          MT_ZDO_FUNC -lC E:\Github_Repository\zigbee-net-t /
//                          ech\ZStack-2.5.1a\Projects\zstack\Samples\SampleA /
//                          pp\CC2530DB\EndDeviceEB\List\ -lA                 /
//                          E:\Github_Repository\zigbee-net-tech\ZStack-2.5.1 /
//                          a\Projects\zstack\Samples\SampleApp\CC2530DB\EndD /
//                          eviceEB\List\ --diag_suppress Pe001,Pa010 -o      /
//                          E:\Github_Repository\zigbee-net-tech\ZStack-2.5.1 /
//                          a\Projects\zstack\Samples\SampleApp\CC2530DB\EndD /
//                          eviceEB\Obj\ -e --no_code_motion --debug          /
//                          --core=plain --dptr=16,1 --data_model=large       /
//                          --code_model=banked --calling_convention=xdata_re /
//                          entrant --place_constants=data_rom                /
//                          --nr_virtual_regs 16 -I                           /
//                          E:\Github_Repository\zigbee-net-tech\ZStack-2.5.1 /
//                          a\Projects\zstack\Samples\SampleApp\CC2530DB\ -I  /
//                          E:\Github_Repository\zigbee-net-tech\ZStack-2.5.1 /
//                          a\Projects\zstack\Samples\SampleApp\CC2530DB\..\S /
//                          ource\ -I E:\Github_Repository\zigbee-net-tech\ZS /
//                          tack-2.5.1a\Projects\zstack\Samples\SampleApp\CC2 /
//                          530DB\..\..\..\ZMain\TI2530DB\ -I                 /
//                          E:\Github_Repository\zigbee-net-tech\ZStack-2.5.1 /
//                          a\Projects\zstack\Samples\SampleApp\CC2530DB\..\. /
//                          .\..\..\..\Components\hal\include\ -I             /
//                          E:\Github_Repository\zigbee-net-tech\ZStack-2.5.1 /
//                          a\Projects\zstack\Samples\SampleApp\CC2530DB\..\. /
//                          .\..\..\..\Components\hal\target\CC2530EB\ -I     /
//                          E:\Github_Repository\zigbee-net-tech\ZStack-2.5.1 /
//                          a\Projects\zstack\Samples\SampleApp\CC2530DB\..\. /
//                          .\..\..\..\Components\mac\include\ -I             /
//                          E:\Github_Repository\zigbee-net-tech\ZStack-2.5.1 /
//                          a\Projects\zstack\Samples\SampleApp\CC2530DB\..\. /
//                          .\..\..\..\Components\mac\high_level\ -I          /
//                          E:\Github_Repository\zigbee-net-tech\ZStack-2.5.1 /
//                          a\Projects\zstack\Samples\SampleApp\CC2530DB\..\. /
//                          .\..\..\..\Components\mac\low_level\srf04\ -I     /
//                          E:\Github_Repository\zigbee-net-tech\ZStack-2.5.1 /
//                          a\Projects\zstack\Samples\SampleApp\CC2530DB\..\. /
//                          .\..\..\..\Components\mac\low_level\srf04\single_ /
//                          chip\ -I E:\Github_Repository\zigbee-net-tech\ZSt /
//                          ack-2.5.1a\Projects\zstack\Samples\SampleApp\CC25 /
//                          30DB\..\..\..\..\..\Components\mt\ -I             /
//                          E:\Github_Repository\zigbee-net-tech\ZStack-2.5.1 /
//                          a\Projects\zstack\Samples\SampleApp\CC2530DB\..\. /
//                          .\..\..\..\Components\osal\include\ -I            /
//                          E:\Github_Repository\zigbee-net-tech\ZStack-2.5.1 /
//                          a\Projects\zstack\Samples\SampleApp\CC2530DB\..\. /
//                          .\..\..\..\Components\services\saddr\ -I          /
//                          E:\Github_Repository\zigbee-net-tech\ZStack-2.5.1 /
//                          a\Projects\zstack\Samples\SampleApp\CC2530DB\..\. /
//                          .\..\..\..\Components\services\sdata\ -I          /
//                          E:\Github_Repository\zigbee-net-tech\ZStack-2.5.1 /
//                          a\Projects\zstack\Samples\SampleApp\CC2530DB\..\. /
//                          .\..\..\..\Components\stack\af\ -I                /
//                          E:\Github_Repository\zigbee-net-tech\ZStack-2.5.1 /
//                          a\Projects\zstack\Samples\SampleApp\CC2530DB\..\. /
//                          .\..\..\..\Components\stack\nwk\ -I               /
//                          E:\Github_Repository\zigbee-net-tech\ZStack-2.5.1 /
//                          a\Projects\zstack\Samples\SampleApp\CC2530DB\..\. /
//                          .\..\..\..\Components\stack\sapi\ -I              /
//                          E:\Github_Repository\zigbee-net-tech\ZStack-2.5.1 /
//                          a\Projects\zstack\Samples\SampleApp\CC2530DB\..\. /
//                          .\..\..\..\Components\stack\sec\ -I               /
//                          E:\Github_Repository\zigbee-net-tech\ZStack-2.5.1 /
//                          a\Projects\zstack\Samples\SampleApp\CC2530DB\..\. /
//                          .\..\..\..\Components\stack\sys\ -I               /
//                          E:\Github_Repository\zigbee-net-tech\ZStack-2.5.1 /
//                          a\Projects\zstack\Samples\SampleApp\CC2530DB\..\. /
//                          .\..\..\..\Components\stack\zdo\ -I               /
//                          E:\Github_Repository\zigbee-net-tech\ZStack-2.5.1 /
//                          a\Projects\zstack\Samples\SampleApp\CC2530DB\..\. /
//                          .\..\..\..\Components\zmac\ -I                    /
//                          E:\Github_Repository\zigbee-net-tech\ZStack-2.5.1 /
//                          a\Projects\zstack\Samples\SampleApp\CC2530DB\..\. /
//                          .\..\..\..\Components\zmac\f8w\ -Ohz              /
//                          --require_prototypes                              /
//    List file          =  E:\Github_Repository\zigbee-net-tech\ZStack-2.5.1 /
//                          a\Projects\zstack\Samples\SampleApp\CC2530DB\EndD /
//                          eviceEB\List\SampleApp.s51                        /
//                                                                            /
//                                                                            /
///////////////////////////////////////////////////////////////////////////////

        NAME SampleApp

        RTMODEL "__SystemLibrary", "CLib"
        RTMODEL "__calling_convention", "xdata_reentrant"
        RTMODEL "__code_model", "banked"
        RTMODEL "__core", "plain"
        RTMODEL "__data_model", "large"
        RTMODEL "__dptr_size", "16"
        RTMODEL "__extended_stack", "disabled"
        RTMODEL "__location_for_constants", "data"
        RTMODEL "__number_of_dptrs", "1"
        RTMODEL "__rt_version", "1"

        RSEG DOVERLAY:DATA:NOROOT(0)
        RSEG IOVERLAY:IDATA:NOROOT(0)
        RSEG ISTACK:IDATA:NOROOT(0)
        RSEG PSTACK:XDATA:NOROOT(0)
        RSEG XSTACK:XDATA:NOROOT(0)

        EXTERN ?ALLOC_XSTACK8
        EXTERN ?BANKED_ENTER_XDATA
        EXTERN ?BANKED_LEAVE_XDATA
        EXTERN ?BDISPATCH
        EXTERN ?BRET
        EXTERN ?DEALLOC_XSTACK8
        EXTERN ?INTERRUPT_ENTER_XSP
        EXTERN ?INTERRUPT_LEAVE_XSP
        EXTERN ?L_SUB_X
        EXTERN ?MOVE_LONG8_XDATA_XDATA
        EXTERN ?PUSH_XSTACK_I_ONE
        EXTERN ?PUSH_XSTACK_I_THREE
        EXTERN ?PUSH_XSTACK_I_TWO
        EXTERN ?UL_GE_X
        EXTERN ?V0
        EXTERN ?XSP
        EXTERN ?XSTACK_DISP0_8
        EXTERN ?XSTORE_R2345
        EXTERN __INIT_XDATA_I
        EXTERN __INIT_XDATA_Z

        PUBLIC ??EndDeviceSendAfMessageByCmd?relay
        FUNCTION ??EndDeviceSendAfMessageByCmd?relay,0203H
        PUBLIC ??EndDeviceSendHeartBeat?relay
        FUNCTION ??EndDeviceSendHeartBeat?relay,0203H
        PUBLIC ??SampleApp_HandleKeys?relay
        FUNCTION ??SampleApp_HandleKeys?relay,0203H
        PUBLIC ??SampleApp_Init?relay
        FUNCTION ??SampleApp_Init?relay,0203H
        PUBLIC ??SampleApp_MessageMSGCB?relay
        FUNCTION ??SampleApp_MessageMSGCB?relay,0203H
        PUBLIC ??SampleApp_ProcessEvent?relay
        FUNCTION ??SampleApp_ProcessEvent?relay,0203H
        PUBLIC ??SampleApp_SendHeartBeatMessageCoor?relay
        FUNCTION ??SampleApp_SendHeartBeatMessageCoor?relay,0203H
        PUBLIC ??SampleApp_SendPeriodicMessage?relay
        FUNCTION ??SampleApp_SendPeriodicMessage?relay,0203H
        PUBLIC ??convertHexToStrLCD?relay
        FUNCTION ??convertHexToStrLCD?relay,0203H
        PUBWEAK `??port0Isr??INTVEC 107`
        PUBLIC ??printAddrInfoHex?relay
        FUNCTION ??printAddrInfoHex?relay,0203H
        PUBLIC EndDeviceSendAfMessageByCmd
        FUNCTION EndDeviceSendAfMessageByCmd,021203H
        ARGFRAME XSTACK, 43, STACK
        ARGFRAME IOVERLAY, 0, STATIC
        ARGFRAME DOVERLAY, 0, STATIC
        LOCFRAME ISTACK, 2, STACK
        LOCFRAME XSTACK, 85, STACK
        PUBLIC EndDeviceSendHeartBeat
        FUNCTION EndDeviceSendHeartBeat,021203H
        ARGFRAME XSTACK, 12, STACK
        ARGFRAME IOVERLAY, 0, STATIC
        ARGFRAME DOVERLAY, 0, STATIC
        LOCFRAME XSTACK, 14, STACK
        PUBLIC EndPoint_DstAddr
        PUBLIC GenericApp_DstAddr
        PUBLIC LL
        PUBLIC NeedCoinDelivered
        PUBLIC NeedCoinTransport
        PUBWEAK P0IFG
        PUBWEAK P1DIR
        PUBWEAK P1SEL
        PUBLIC SampleAppFlashCounter
        PUBLIC SampleAppPeriodicCounter
        PUBLIC SampleApp_ClusterList
        PUBLIC SampleApp_Group
        PUBLIC SampleApp_HandleKeys
        FUNCTION SampleApp_HandleKeys,0203H
        ARGFRAME XSTACK, 0, STACK
        PUBLIC SampleApp_Init
        FUNCTION SampleApp_Init,021203H
        ARGFRAME XSTACK, 0, STACK
        LOCFRAME XSTACK, 14, STACK
        PUBLIC SampleApp_MessageMSGCB
        FUNCTION SampleApp_MessageMSGCB,021203H
        ARGFRAME XSTACK, 12, STACK
        ARGFRAME IOVERLAY, 0, STATIC
        ARGFRAME DOVERLAY, 0, STATIC
        LOCFRAME ISTACK, 2, STACK
        LOCFRAME XSTACK, 45, STACK
        PUBLIC SampleApp_NwkState
        PUBLIC SampleApp_Periodic_DstAddr
        PUBLIC SampleApp_ProcessEvent
        FUNCTION SampleApp_ProcessEvent,021203H
        ARGFRAME XSTACK, 0, STACK
        LOCFRAME XSTACK, 16, STACK
        PUBLIC SampleApp_SendHeartBeatMessageCoor
        FUNCTION SampleApp_SendHeartBeatMessageCoor,021203H
        ARGFRAME XSTACK, 0, STACK
        LOCFRAME ISTACK, 2, STACK
        PUBLIC SampleApp_SendPeriodicMessage
        FUNCTION SampleApp_SendPeriodicMessage,021203H
        ARGFRAME XSTACK, 0, STACK
        LOCFRAME ISTACK, 2, STACK
        LOCFRAME XSTACK, 23, STACK
        PUBLIC SampleApp_SimpleDesc
        PUBLIC SampleApp_TaskID
        PUBLIC SampleApp_TransID
        PUBLIC SampleApp_TxAddr
        PUBLIC SampleApp_epDesc
        PUBWEAK _A_IEN1
        PUBWEAK _A_IRCON
        PUBWEAK _A_P0
        PUBWEAK _A_P1
        PUBWEAK __Constant_2
        PUBLIC coin_pin_value
        PUBLIC convertHexToStrLCD
        FUNCTION convertHexToStrLCD,021203H
        ARGFRAME XSTACK, 0, STACK
        LOCFRAME ISTACK, 1, STACK
        LOCFRAME XSTACK, 18, STACK
        PUBLIC lastRecvRewardSecTime
        PUBLIC port0Isr
        FUNCTION port0Isr,021233H
        ARGFRAME XSTACK, 0, STACK
        LOCFRAME XSTACK, 17, STACK
        PUBLIC pre_coin_pin_value
        PUBLIC pre_reward_pin_value
        PUBLIC printAddrInfoHex
        FUNCTION printAddrInfoHex,021203H
        ARGFRAME XSTACK, 0, STACK
        LOCFRAME XSTACK, 15, STACK
        PUBLIC rewardCount
        PUBLIC reward_pin_value
        PUBLIC startRewardInterrupt
        
        CFI Names cfiNames0
        CFI StackFrame CFA_SP SP IDATA
        CFI StackFrame CFA_PSP16 PSP16 XDATA
        CFI StackFrame CFA_XSP16 XSP16 XDATA
        CFI StaticOverlayFrame CFA_IOVERLAY IOVERLAY
        CFI StaticOverlayFrame CFA_DOVERLAY DOVERLAY
        CFI Resource `PSW.CY`:1, `B.BR0`:1, `B.BR1`:1, `B.BR2`:1, `B.BR3`:1
        CFI Resource `B.BR4`:1, `B.BR5`:1, `B.BR6`:1, `B.BR7`:1, `VB.BR8`:1
        CFI Resource `VB.BR9`:1, `VB.BR10`:1, `VB.BR11`:1, `VB.BR12`:1
        CFI Resource `VB.BR13`:1, `VB.BR14`:1, `VB.BR15`:1, VB:8, B:8, A:8
        CFI Resource PSW:8, DPL0:8, DPH0:8, R0:8, R1:8, R2:8, R3:8, R4:8, R5:8
        CFI Resource R6:8, R7:8, V0:8, V1:8, V2:8, V3:8, V4:8, V5:8, V6:8, V7:8
        CFI Resource V8:8, V9:8, V10:8, V11:8, V12:8, V13:8, V14:8, V15:8, SP:8
        CFI Resource PSPH:8, PSPL:8, PSP16:16, XSPH:8, XSPL:8, XSP16:16
        CFI VirtualResource ?RET:24
        CFI Resource ?BRET_EXT:8
        CFI VirtualResource ?RET_HIGH:8, ?RET_LOW:8
        CFI ResourceParts PSP16 PSPH, PSPL
        CFI ResourceParts XSP16 XSPH, XSPL
        CFI ResourceParts ?RET ?BRET_EXT, ?RET_HIGH, ?RET_LOW
        CFI EndNames cfiNames0
        
        CFI Common cfiCommon0 Using cfiNames0
        CFI CodeAlign 1
        CFI DataAlign -1
        CFI ReturnAddress ?RET CODE
        CFI CFA_DOVERLAY Used
        CFI CFA_IOVERLAY Used
        CFI CFA_SP SP+-2
        CFI CFA_PSP16 PSP16+0
        CFI CFA_XSP16 XSP16+0
        CFI `PSW.CY` SameValue
        CFI `B.BR0` SameValue
        CFI `B.BR1` SameValue
        CFI `B.BR2` SameValue
        CFI `B.BR3` SameValue
        CFI `B.BR4` SameValue
        CFI `B.BR5` SameValue
        CFI `B.BR6` SameValue
        CFI `B.BR7` SameValue
        CFI `VB.BR8` SameValue
        CFI `VB.BR9` SameValue
        CFI `VB.BR10` SameValue
        CFI `VB.BR11` SameValue
        CFI `VB.BR12` SameValue
        CFI `VB.BR13` SameValue
        CFI `VB.BR14` SameValue
        CFI `VB.BR15` SameValue
        CFI VB SameValue
        CFI B SameValue
        CFI A SameValue
        CFI PSW SameValue
        CFI DPL0 SameValue
        CFI DPH0 SameValue
        CFI R0 SameValue
        CFI R1 SameValue
        CFI R2 SameValue
        CFI R3 SameValue
        CFI R4 SameValue
        CFI R5 SameValue
        CFI R6 SameValue
        CFI R7 SameValue
        CFI V0 SameValue
        CFI V1 SameValue
        CFI V2 SameValue
        CFI V3 SameValue
        CFI V4 SameValue
        CFI V5 SameValue
        CFI V6 SameValue
        CFI V7 SameValue
        CFI V8 SameValue
        CFI V9 SameValue
        CFI V10 SameValue
        CFI V11 SameValue
        CFI V12 SameValue
        CFI V13 SameValue
        CFI V14 SameValue
        CFI V15 SameValue
        CFI PSPH Undefined
        CFI PSPL Undefined
        CFI XSPH Undefined
        CFI XSPL Undefined
        CFI ?RET Concat
        CFI ?BRET_EXT SameValue
        CFI ?RET_HIGH Frame(CFA_SP, 2)
        CFI ?RET_LOW Frame(CFA_SP, 1)
        CFI EndCommon cfiCommon0
        
        
        CFI Common cfiCommon1 Using cfiNames0
        CFI CodeAlign 1
        CFI DataAlign -1
        CFI ReturnAddress ?RET CODE
        CFI CFA_DOVERLAY Used
        CFI CFA_IOVERLAY Used
        CFI CFA_SP SP+-3
        CFI CFA_PSP16 PSP16+0
        CFI CFA_XSP16 XSP16+0
        CFI `PSW.CY` SameValue
        CFI `B.BR0` SameValue
        CFI `B.BR1` SameValue
        CFI `B.BR2` SameValue
        CFI `B.BR3` SameValue
        CFI `B.BR4` SameValue
        CFI `B.BR5` SameValue
        CFI `B.BR6` SameValue
        CFI `B.BR7` SameValue
        CFI `VB.BR8` SameValue
        CFI `VB.BR9` SameValue
        CFI `VB.BR10` SameValue
        CFI `VB.BR11` SameValue
        CFI `VB.BR12` SameValue
        CFI `VB.BR13` SameValue
        CFI `VB.BR14` SameValue
        CFI `VB.BR15` SameValue
        CFI VB SameValue
        CFI B Undefined
        CFI A Undefined
        CFI PSW SameValue
        CFI DPL0 SameValue
        CFI DPH0 SameValue
        CFI R0 Undefined
        CFI R1 Undefined
        CFI R2 Undefined
        CFI R3 Undefined
        CFI R4 Undefined
        CFI R5 Undefined
        CFI R6 SameValue
        CFI R7 SameValue
        CFI V0 SameValue
        CFI V1 SameValue
        CFI V2 SameValue
        CFI V3 SameValue
        CFI V4 SameValue
        CFI V5 SameValue
        CFI V6 SameValue
        CFI V7 SameValue
        CFI V8 SameValue
        CFI V9 SameValue
        CFI V10 SameValue
        CFI V11 SameValue
        CFI V12 SameValue
        CFI V13 SameValue
        CFI V14 SameValue
        CFI V15 SameValue
        CFI PSPH Undefined
        CFI PSPL Undefined
        CFI XSPH Undefined
        CFI XSPL Undefined
        CFI ?RET Concat
        CFI ?BRET_EXT Frame(CFA_SP, 3)
        CFI ?RET_HIGH Frame(CFA_SP, 2)
        CFI ?RET_LOW Frame(CFA_SP, 1)
        CFI EndCommon cfiCommon1
        
osal_start_timerEx  SYMBOL "osal_start_timerEx"
osal_getClock       SYMBOL "osal_getClock"
myprintf            SYMBOL "myprintf"
afRegister          SYMBOL "afRegister"
RegisterForKeys     SYMBOL "RegisterForKeys"
osal_memcpy         SYMBOL "osal_memcpy"
aps_AddGroup        SYMBOL "aps_AddGroup"
MT_UartInit         SYMBOL "MT_UartInit"
MT_UartRegisterTaskID SYMBOL "MT_UartRegisterTaskID"
osal_msg_receive    SYMBOL "osal_msg_receive"
osal_msg_deallocate SYMBOL "osal_msg_deallocate"
HalLedBlink         SYMBOL "HalLedBlink"
re_replace_data     SYMBOL "re_replace_data"
check_xor           SYMBOL "check_xor"
decAllListEPLeftSec SYMBOL "decAllListEPLeftSec"
NLME_GetShortAddr   SYMBOL "NLME_GetShortAddr"
NLME_GetExtAddr     SYMBOL "NLME_GetExtAddr"
encodeData          SYMBOL "encodeData"
AF_DataRequest      SYMBOL "AF_DataRequest"
HalLcdWriteString   SYMBOL "HalLcdWriteString"
??AF_DataRequest?relay SYMBOL "?relay", AF_DataRequest
??HalLcdWriteString?relay SYMBOL "?relay", HalLcdWriteString
??HalLedBlink?relay SYMBOL "?relay", HalLedBlink
??MT_UartInit?relay SYMBOL "?relay", MT_UartInit
??MT_UartRegisterTaskID?relay SYMBOL "?relay", MT_UartRegisterTaskID
??NLME_GetExtAddr?relay SYMBOL "?relay", NLME_GetExtAddr
??NLME_GetShortAddr?relay SYMBOL "?relay", NLME_GetShortAddr
??RegisterForKeys?relay SYMBOL "?relay", RegisterForKeys
??afRegister?relay  SYMBOL "?relay", afRegister
??aps_AddGroup?relay SYMBOL "?relay", aps_AddGroup
??check_xor?relay   SYMBOL "?relay", check_xor
??decAllListEPLeftSec?relay SYMBOL "?relay", decAllListEPLeftSec
??encodeData?relay  SYMBOL "?relay", encodeData
??myprintf?relay    SYMBOL "?relay", myprintf
??osal_getClock?relay SYMBOL "?relay", osal_getClock
??osal_memcpy?relay SYMBOL "?relay", osal_memcpy
??osal_msg_deallocate?relay SYMBOL "?relay", osal_msg_deallocate
??osal_msg_receive?relay SYMBOL "?relay", osal_msg_receive
??osal_start_timerEx?relay SYMBOL "?relay", osal_start_timerEx
??re_replace_data?relay SYMBOL "?relay", re_replace_data
EndDeviceSendAfMessageByCmd SYMBOL "EndDeviceSendAfMessageByCmd"
??EndDeviceSendAfMessageByCmd?relay SYMBOL "?relay", EndDeviceSendAfMessageByCmd
EndDeviceSendHeartBeat SYMBOL "EndDeviceSendHeartBeat"
??EndDeviceSendHeartBeat?relay SYMBOL "?relay", EndDeviceSendHeartBeat
SampleApp_HandleKeys SYMBOL "SampleApp_HandleKeys"
??SampleApp_HandleKeys?relay SYMBOL "?relay", SampleApp_HandleKeys
SampleApp_Init      SYMBOL "SampleApp_Init"
??SampleApp_Init?relay SYMBOL "?relay", SampleApp_Init
SampleApp_MessageMSGCB SYMBOL "SampleApp_MessageMSGCB"
??SampleApp_MessageMSGCB?relay SYMBOL "?relay", SampleApp_MessageMSGCB
SampleApp_ProcessEvent SYMBOL "SampleApp_ProcessEvent"
??SampleApp_ProcessEvent?relay SYMBOL "?relay", SampleApp_ProcessEvent
SampleApp_SendHeartBeatMessageCoor SYMBOL "SampleApp_SendHeartBeatMessageCoor"
??SampleApp_SendHeartBeatMessageCoor?relay SYMBOL "?relay", SampleApp_SendHeartBeatMessageCoor
SampleApp_SendPeriodicMessage SYMBOL "SampleApp_SendPeriodicMessage"
??SampleApp_SendPeriodicMessage?relay SYMBOL "?relay", SampleApp_SendPeriodicMessage
convertHexToStrLCD  SYMBOL "convertHexToStrLCD"
??convertHexToStrLCD?relay SYMBOL "?relay", convertHexToStrLCD
port0Isr            SYMBOL "port0Isr"
`??port0Isr??INTVEC 107` SYMBOL "??INTVEC 107", port0Isr
printAddrInfoHex    SYMBOL "printAddrInfoHex"
??printAddrInfoHex?relay SYMBOL "?relay", printAddrInfoHex

        EXTERN osal_start_timerEx
        FUNCTION osal_start_timerEx,0202H
        ARGFRAME ISTACK, 0, STACK
        ARGFRAME PSTACK, 0, STACK
        ARGFRAME XSTACK, 43, STACK
        ARGFRAME IOVERLAY, 0, STATIC
        ARGFRAME DOVERLAY, 0, STATIC
        EXTERN osal_getClock
        FUNCTION osal_getClock,0202H
        ARGFRAME ISTACK, 0, STACK
        ARGFRAME PSTACK, 0, STACK
        ARGFRAME XSTACK, 15, STACK
        ARGFRAME IOVERLAY, 0, STATIC
        ARGFRAME DOVERLAY, 0, STATIC
        EXTERN myprintf
        FUNCTION myprintf,0202H
        ARGFRAME ISTACK, 0, STACK
        ARGFRAME PSTACK, 0, STACK
        ARGFRAME XSTACK, 78, STACK
        ARGFRAME IOVERLAY, 0, STATIC
        ARGFRAME DOVERLAY, 0, STATIC
        EXTERN afRegister
        FUNCTION afRegister,0202H
        ARGFRAME ISTACK, 0, STACK
        ARGFRAME PSTACK, 0, STACK
        ARGFRAME XSTACK, 11, STACK
        ARGFRAME IOVERLAY, 0, STATIC
        ARGFRAME DOVERLAY, 0, STATIC
        EXTERN RegisterForKeys
        FUNCTION RegisterForKeys,0202H
        ARGFRAME ISTACK, 0, STACK
        ARGFRAME PSTACK, 0, STACK
        ARGFRAME XSTACK, 11, STACK
        ARGFRAME IOVERLAY, 0, STATIC
        ARGFRAME DOVERLAY, 0, STATIC
        EXTERN osal_memcpy
        FUNCTION osal_memcpy,0202H
        ARGFRAME ISTACK, 0, STACK
        ARGFRAME PSTACK, 0, STACK
        ARGFRAME XSTACK, 79, STACK
        ARGFRAME IOVERLAY, 0, STATIC
        ARGFRAME DOVERLAY, 0, STATIC
        EXTERN aps_AddGroup
        FUNCTION aps_AddGroup,0202H
        ARGFRAME ISTACK, 0, STACK
        ARGFRAME PSTACK, 0, STACK
        ARGFRAME XSTACK, 11, STACK
        ARGFRAME IOVERLAY, 0, STATIC
        ARGFRAME DOVERLAY, 0, STATIC
        EXTERN MT_UartInit
        FUNCTION MT_UartInit,0202H
        ARGFRAME ISTACK, 0, STACK
        ARGFRAME PSTACK, 0, STACK
        ARGFRAME XSTACK, 11, STACK
        ARGFRAME IOVERLAY, 0, STATIC
        ARGFRAME DOVERLAY, 0, STATIC
        EXTERN MT_UartRegisterTaskID
        FUNCTION MT_UartRegisterTaskID,0202H
        ARGFRAME ISTACK, 0, STACK
        ARGFRAME PSTACK, 0, STACK
        ARGFRAME XSTACK, 11, STACK
        ARGFRAME IOVERLAY, 0, STATIC
        ARGFRAME DOVERLAY, 0, STATIC
        EXTERN osal_msg_receive
        FUNCTION osal_msg_receive,0202H
        ARGFRAME ISTACK, 0, STACK
        ARGFRAME PSTACK, 0, STACK
        ARGFRAME XSTACK, 12, STACK
        ARGFRAME IOVERLAY, 0, STATIC
        ARGFRAME DOVERLAY, 0, STATIC
        EXTERN osal_msg_deallocate
        FUNCTION osal_msg_deallocate,0202H
        ARGFRAME ISTACK, 0, STACK
        ARGFRAME PSTACK, 0, STACK
        ARGFRAME XSTACK, 12, STACK
        ARGFRAME IOVERLAY, 0, STATIC
        ARGFRAME DOVERLAY, 0, STATIC
        EXTERN HalLedBlink
        FUNCTION HalLedBlink,0202H
        ARGFRAME ISTACK, 2, STACK
        ARGFRAME PSTACK, 0, STACK
        ARGFRAME XSTACK, 43, STACK
        ARGFRAME IOVERLAY, 0, STATIC
        ARGFRAME DOVERLAY, 0, STATIC
        EXTERN re_replace_data
        FUNCTION re_replace_data,0202H
        ARGFRAME ISTACK, 0, STACK
        ARGFRAME PSTACK, 0, STACK
        ARGFRAME XSTACK, 45, STACK
        ARGFRAME IOVERLAY, 0, STATIC
        ARGFRAME DOVERLAY, 0, STATIC
        EXTERN check_xor
        FUNCTION check_xor,0202H
        ARGFRAME ISTACK, 0, STACK
        ARGFRAME PSTACK, 0, STACK
        ARGFRAME XSTACK, 43, STACK
        ARGFRAME IOVERLAY, 0, STATIC
        ARGFRAME DOVERLAY, 0, STATIC
        EXTERN decAllListEPLeftSec
        FUNCTION decAllListEPLeftSec,0202H
        ARGFRAME ISTACK, 2, STACK
        ARGFRAME PSTACK, 0, STACK
        ARGFRAME XSTACK, 0, STACK
        ARGFRAME IOVERLAY, 0, STATIC
        ARGFRAME DOVERLAY, 0, STATIC
        EXTERN NLME_GetShortAddr
        FUNCTION NLME_GetShortAddr,0202H
        ARGFRAME ISTACK, 0, STACK
        ARGFRAME PSTACK, 0, STACK
        ARGFRAME XSTACK, 76, STACK
        ARGFRAME IOVERLAY, 0, STATIC
        ARGFRAME DOVERLAY, 0, STATIC
        EXTERN NLME_GetExtAddr
        FUNCTION NLME_GetExtAddr,0202H
        ARGFRAME ISTACK, 0, STACK
        ARGFRAME PSTACK, 0, STACK
        ARGFRAME XSTACK, 76, STACK
        ARGFRAME IOVERLAY, 0, STATIC
        ARGFRAME DOVERLAY, 0, STATIC
        EXTERN encodeData
        FUNCTION encodeData,0202H
        ARGFRAME ISTACK, 0, STACK
        ARGFRAME PSTACK, 0, STACK
        ARGFRAME XSTACK, 80, STACK
        ARGFRAME IOVERLAY, 0, STATIC
        ARGFRAME DOVERLAY, 0, STATIC
        EXTERN AF_DataRequest
        FUNCTION AF_DataRequest,0202H
        ARGFRAME ISTACK, 0, STACK
        ARGFRAME PSTACK, 0, STACK
        ARGFRAME XSTACK, 85, STACK
        ARGFRAME IOVERLAY, 0, STATIC
        ARGFRAME DOVERLAY, 0, STATIC
        EXTERN HalLcdWriteString
        FUNCTION HalLcdWriteString,0202H
        ARGFRAME ISTACK, 0, STACK
        ARGFRAME PSTACK, 0, STACK
        ARGFRAME XSTACK, 18, STACK
        ARGFRAME IOVERLAY, 0, STATIC
        ARGFRAME DOVERLAY, 0, STATIC
        EXTERN ??AF_DataRequest?relay
        FUNCTION ??AF_DataRequest?relay,00H
        EXTERN ??HalLcdWriteString?relay
        FUNCTION ??HalLcdWriteString?relay,00H
        EXTERN ??HalLedBlink?relay
        FUNCTION ??HalLedBlink?relay,00H
        EXTERN ??MT_UartInit?relay
        FUNCTION ??MT_UartInit?relay,00H
        EXTERN ??MT_UartRegisterTaskID?relay
        FUNCTION ??MT_UartRegisterTaskID?relay,00H
        EXTERN ??NLME_GetExtAddr?relay
        FUNCTION ??NLME_GetExtAddr?relay,00H
        EXTERN ??NLME_GetShortAddr?relay
        FUNCTION ??NLME_GetShortAddr?relay,00H
        EXTERN ??RegisterForKeys?relay
        FUNCTION ??RegisterForKeys?relay,00H
        EXTERN ??afRegister?relay
        FUNCTION ??afRegister?relay,00H
        EXTERN ??aps_AddGroup?relay
        FUNCTION ??aps_AddGroup?relay,00H
        EXTERN ??check_xor?relay
        FUNCTION ??check_xor?relay,00H
        EXTERN ??decAllListEPLeftSec?relay
        FUNCTION ??decAllListEPLeftSec?relay,00H
        EXTERN ??encodeData?relay
        FUNCTION ??encodeData?relay,00H
        EXTERN ??myprintf?relay
        FUNCTION ??myprintf?relay,00H
        EXTERN ??osal_getClock?relay
        FUNCTION ??osal_getClock?relay,00H
        EXTERN ??osal_memcpy?relay
        FUNCTION ??osal_memcpy?relay,00H
        EXTERN ??osal_msg_deallocate?relay
        FUNCTION ??osal_msg_deallocate?relay,00H
        EXTERN ??osal_msg_receive?relay
        FUNCTION ??osal_msg_receive?relay,00H
        EXTERN ??osal_start_timerEx?relay
        FUNCTION ??osal_start_timerEx?relay,00H
        EXTERN ??re_replace_data?relay
        FUNCTION ??re_replace_data?relay,00H

// E:\Github_Repository\zigbee-net-tech\ZStack-2.5.1a\Projects\zstack\Samples\SampleApp\Source\SampleApp.c
//    1 /*********************************************************************
//    2 需要修改的文件包含功能如下：
//    3 ZMain/ZMain.c是主函数
//    4 HAL/hal_drivers.c进行外部中断的初始化
//    5 MT/MT_UART.c中进行串口消息的接收
//    6 SampleApp.c中定义中断响应函数，以及事件消息处理函数等
//    7 SingleLinkedList.c中定义了单链表的实现
//    8 *********************************************************************/
//    9 
//   10 /*********************************************************************
//   11 * INCLUDES
//   12 */
//   13 #include "OSAL.h"
//   14 #include "ZGlobals.h"
//   15 #include "AF.h"
//   16 #include "aps_groups.h"
//   17 #include "ZDObject.h"
//   18 #include "ZDProfile.h"
//   19 #include "ZDApp.h"
//   20 
//   21 #include "SampleApp.h"
//   22 #include "SampleAppHw.h"
//   23 #include "SinglyLinkedList.h"
//   24 
//   25 #include "OnBoard.h"

        ASEGN SFR_AN:DATA:NOROOT,080H
// union <unnamed> volatile __sfr _A_P0
_A_P0:
        DATA8
        DS 1

        ASEGN SFR_AN:DATA:NOROOT,089H
// unsigned char volatile __sfr P0IFG
P0IFG:
        DATA8
        DS 1

        ASEGN SFR_AN:DATA:NOROOT,090H
// union <unnamed> volatile __sfr _A_P1
_A_P1:
        DATA8
        DS 1

        ASEGN SFR_AN:DATA:NOROOT,0b8H
// union <unnamed> volatile __sfr _A_IEN1
_A_IEN1:
        DATA8
        DS 1

        ASEGN SFR_AN:DATA:NOROOT,0c0H
// union <unnamed> volatile __sfr _A_IRCON
_A_IRCON:
        DATA8
        DS 1

        ASEGN SFR_AN:DATA:NOROOT,0f4H
// unsigned char volatile __sfr P1SEL
P1SEL:
        DATA8
        DS 1

        ASEGN SFR_AN:DATA:NOROOT,0feH
// unsigned char volatile __sfr P1DIR
P1DIR:
        DATA8
        DS 1
//   26 
//   27 /* HAL */
//   28 #include "hal_lcd.h"
//   29 #include "hal_led.h"
//   30 #include "hal_key.h"
//   31 
//   32 #include "MT_UART.h"
//   33 #include "MT_APP.h"
//   34 #include "MT.h"
//   35 
//   36 #include "OSAL_Clock.h"
//   37 
//   38 #include "common.h"
//   39 /*******
//   40   一些测试用的宏开关
//   41 */
//   42 // #define NEED_TEST_DIStANCE
//   43 
//   44 /*********************************************************************
//   45 * MACROS
//   46 */
//   47 #define COIN_RECV_PIN      P0_4      //中断输入下降沿触发，定义P0.7口为中断方式接收投币器信号引脚40ms
//   48 #define REWARD_OUTPUT_PIN  P0_6      //中断输入下降沿触发，彩票奖励输出个数信号引脚，输出一个彩票奖励则产生一个40ms的低电平
//   49 
//   50 #define COIN_SIMULATE_PIN  P1_2      //输出，定义P1.2口为替换投币器模拟信号发生引脚
//   51 
//   52 #define UART0        0x00
//   53 #define COIN_SIGNAL_HALF_TIME 50 // Ms
//   54 #define REWARD_SIGNAL_HALF_TIME 50
//   55 
//   56 // This list should be filled with Application specific Cluster IDs.

        RSEG XDATA_ROM_C:CONST:REORDER:NOROOT(0)
        DATA8
//   57 const cId_t SampleApp_ClusterList[SAMPLEAPP_MAX_CLUSTERS] =
SampleApp_ClusterList:
        DATA16
        DW 1
        DW 2
        DW 0
        DW 0
//   58 {
//   59   SAMPLEAPP_PERIODIC_CLUSTERID,
//   60   SAMPLEAPP_FLASH_CLUSTERID
//   61 };
//   62 

        RSEG XDATA_ROM_C:CONST:REORDER:NOROOT(0)
        DATA8
//   63 const SimpleDescriptionFormat_t SampleApp_SimpleDesc =
SampleApp_SimpleDesc:
        DB 20
        DATA16
        DW 3848
        DW 1
        DATA8
        DB 0
        DB 4
        DATA16
        DW SampleApp_ClusterList
        DATA8
        DB 4
        DATA16
        DW SampleApp_ClusterList
//   64 {
//   65   SAMPLEAPP_ENDPOINT,              //  int Endpoint;
//   66   SAMPLEAPP_PROFID,                //  uint16 AppProfId[2];
//   67   SAMPLEAPP_DEVICEID,              //  uint16 AppDeviceId[2];
//   68   SAMPLEAPP_DEVICE_VERSION,        //  int   AppDevVer:4;
//   69   SAMPLEAPP_FLAGS,                 //  int   AppFlags:4;
//   70   SAMPLEAPP_MAX_CLUSTERS,          //  uint8  AppNumInClusters;
//   71   (cId_t *)SampleApp_ClusterList,  //  uint8 *pAppInClusterList;
//   72   SAMPLEAPP_MAX_CLUSTERS,          //  uint8  AppNumInClusters;
//   73   (cId_t *)SampleApp_ClusterList   //  uint8 *pAppInClusterList;
//   74 };
//   75 

        RSEG XDATA_Z:XDATA:NOROOT(0)
        DATA8
//   76 endPointDesc_t SampleApp_epDesc;
SampleApp_epDesc:
        DS 6
        REQUIRE __INIT_XDATA_Z

        RSEG XDATA_Z:XDATA:NOROOT(0)
        DATA8
//   77 afAddrType_t GenericApp_DstAddr;
GenericApp_DstAddr:
        DS 12
        REQUIRE __INIT_XDATA_Z

        RSEG XDATA_Z:XDATA:NOROOT(0)
        DATA8
//   78 afAddrType_t EndPoint_DstAddr;
EndPoint_DstAddr:
        DS 12
        REQUIRE __INIT_XDATA_Z
//   79 
//   80 /*********************************************************************
//   81 * LOCAL VARIABLES
//   82 */

        RSEG XDATA_Z:XDATA:NOROOT(0)
        DATA8
//   83 uint8 SampleApp_TaskID;   // Task ID for internal task/event processing
SampleApp_TaskID:
        DS 1
        REQUIRE __INIT_XDATA_Z
//   84 // This variable will be received when
//   85 // SampleApp_Init() is called.

        RSEG XDATA_Z:XDATA:NOROOT(0)
        DATA8
//   86 devStates_t SampleApp_NwkState;
SampleApp_NwkState:
        DS 1
        REQUIRE __INIT_XDATA_Z
//   87 

        RSEG XDATA_Z:XDATA:NOROOT(0)
        DATA8
//   88 uint8 SampleApp_TransID;  // This is the unique message ID (counter)
SampleApp_TransID:
        DS 1
        REQUIRE __INIT_XDATA_Z
//   89 

        RSEG XDATA_Z:XDATA:NOROOT(0)
        DATA8
//   90 afAddrType_t SampleApp_Periodic_DstAddr; // 用于协调器广播消息
SampleApp_Periodic_DstAddr:
        DS 12
        REQUIRE __INIT_XDATA_Z

        RSEG XDATA_Z:XDATA:NOROOT(0)
        DATA8
//   91 afAddrType_t SampleApp_TxAddr; // 用于终端设备向协调器报告短地址信息
SampleApp_TxAddr:
        DS 12
        REQUIRE __INIT_XDATA_Z
//   92 

        RSEG XDATA_Z:XDATA:NOROOT(0)
        DATA8
//   93 aps_Group_t SampleApp_Group;
SampleApp_Group:
        DS 18
        REQUIRE __INIT_XDATA_Z

        RSEG XDATA_Z:XDATA:NOROOT(0)
        DATA8
//   94 uint8 SampleAppPeriodicCounter = 0;
SampleAppPeriodicCounter:
        DS 1
        REQUIRE __INIT_XDATA_Z

        RSEG XDATA_Z:XDATA:NOROOT(0)
        DATA8
//   95 uint8 SampleAppFlashCounter = 0;
SampleAppFlashCounter:
        DS 1
        REQUIRE __INIT_XDATA_Z
//   96 

        RSEG XDATA_Z:XDATA:NOROOT(0)
        DATA16
//   97 LinkList LL; // 定义线性链表存储终端地址以及心跳信息
LL:
        DS 2
        REQUIRE __INIT_XDATA_Z
//   98 
//   99 /*********************************************************************
//  100 * LOCAL FUNCTIONS
//  101 */
//  102 void EndDeviceSendAfMessageByCmd(uint8 cmd);
//  103 void EndDeviceSendHeartBeat(void);
//  104 void SampleApp_HandleKeys( uint8 shift, uint8 keys );
//  105 void SampleApp_MessageMSGCB( afIncomingMSGPacket_t *pckt );
//  106 void SampleApp_SendPeriodicMessage( int8 whichKey );
//  107 void SampleApp_SendHeartBeatMessageCoor(void);
//  108 void printAddrInfoHex(uint8* buf, uint8 dataLen);
//  109 void convertHexToStrLCD(uint16 addr, uint8 lcdLineNum);
//  110 

        RSEG XDATA_Z:XDATA:NOROOT(0)
        DATA8
//  111 int8 NeedCoinDelivered = 0; // 线上开启游戏需要处理的投币个数
NeedCoinDelivered:
        DS 1
        REQUIRE __INIT_XDATA_Z

        RSEG XDATA_Z:XDATA:NOROOT(0)
        DATA8
//  112 int8 NeedCoinTransport = 0; // 需要转发的投币器信号数量
NeedCoinTransport:
        DS 1
        REQUIRE __INIT_XDATA_Z

        RSEG XDATA_Z:XDATA:NOROOT(0)
        DATA8
//  113 uint8 rewardCount = 0;  // 一次游戏出彩票个数统计
rewardCount:
        DS 1
        REQUIRE __INIT_XDATA_Z

        RSEG XDATA_Z:XDATA:NOROOT(0)
        DATA8
//  114 uint8 startRewardInterrupt = 0;
startRewardInterrupt:
        DS 1
        REQUIRE __INIT_XDATA_Z

        RSEG XDATA_Z:XDATA:NOROOT(0)
        DATA32
//  115 UTCTime lastRecvRewardSecTime = 0;//=osal_getClock();
lastRecvRewardSecTime:
        DS 4
        REQUIRE __INIT_XDATA_Z
//  116 
//  117 /**
//  118   终端设备P1端口中断处理函数，用来接收投币器的信号
//  119 */
//  120 #ifdef END_DEVICE

        RSEG XDATA_I:XDATA:NOROOT(0)
//  121 uint8 pre_coin_pin_value = 1;
pre_coin_pin_value:
        DATA8
        DS 1
        REQUIRE `?<Initializer for pre_coin_pin_value>`
        REQUIRE __INIT_XDATA_I

        RSEG XDATA_I:XDATA:NOROOT(0)
//  122 uint8 coin_pin_value = 1;
coin_pin_value:
        DATA8
        DS 1
        REQUIRE `?<Initializer for coin_pin_value>`
        REQUIRE __INIT_XDATA_I

        RSEG XDATA_I:XDATA:NOROOT(0)
//  123 uint8 pre_reward_pin_value = 1;
pre_reward_pin_value:
        DATA8
        DS 1
        REQUIRE `?<Initializer for pre_reward_pin_value>`
        REQUIRE __INIT_XDATA_I

        RSEG XDATA_I:XDATA:NOROOT(0)
//  124 uint8 reward_pin_value = 1;
reward_pin_value:
        DATA8
        DS 1
        REQUIRE `?<Initializer for reward_pin_value>`
        REQUIRE __INIT_XDATA_I

        RSEG NEAR_CODE:CODE:NOROOT(0)
//  125 HAL_ISR_FUNCTION( port0Isr, P0INT_VECTOR ) // P0_5配置为投币器电平变化中断引脚，在HAL/Common/hal_drivers.c中进行的引脚初始化
port0Isr:
        CFI Block cfiBlock0 Using cfiCommon0
        CFI Function port0Isr
        CODE
//  126 { 
        FUNCALL port0Isr, osal_start_timerEx
        LOCFRAME ISTACK, 0, STACK
        LOCFRAME PSTACK, 0, STACK
        LOCFRAME XSTACK, 15, STACK
        LOCFRAME IOVERLAY, 0, STATIC
        LOCFRAME DOVERLAY, 0, STATIC
        ARGFRAME ISTACK, 0, STACK
        ARGFRAME PSTACK, 0, STACK
        ARGFRAME XSTACK, 15, STACK
        ARGFRAME IOVERLAY, 0, STATIC
        ARGFRAME DOVERLAY, 0, STATIC
        FUNCALL port0Isr, osal_getClock
        LOCFRAME ISTACK, 0, STACK
        LOCFRAME PSTACK, 0, STACK
        LOCFRAME XSTACK, 15, STACK
        LOCFRAME IOVERLAY, 0, STATIC
        LOCFRAME DOVERLAY, 0, STATIC
        ARGFRAME ISTACK, 0, STACK
        ARGFRAME PSTACK, 0, STACK
        ARGFRAME XSTACK, 15, STACK
        ARGFRAME IOVERLAY, 0, STATIC
        ARGFRAME DOVERLAY, 0, STATIC
        FUNCALL port0Isr, myprintf
        LOCFRAME ISTACK, 0, STACK
        LOCFRAME PSTACK, 0, STACK
        LOCFRAME XSTACK, 17, STACK
        LOCFRAME IOVERLAY, 0, STATIC
        LOCFRAME DOVERLAY, 0, STATIC
        ARGFRAME ISTACK, 0, STACK
        ARGFRAME PSTACK, 0, STACK
        ARGFRAME XSTACK, 17, STACK
        ARGFRAME IOVERLAY, 0, STATIC
        ARGFRAME DOVERLAY, 0, STATIC
        PUSH    A
        CFI A Frame(CFA_SP, 3)
        CFI CFA_SP SP+-3
        MOV     A,#-0xf
        LCALL   ?INTERRUPT_ENTER_XSP
        CFI B load(1, XDATA, add(CFA_XSP16, literal(-1)))
        CFI VB load(1, XDATA, add(CFA_XSP16, literal(-2)))
        CFI PSW load(1, XDATA, add(CFA_XSP16, literal(-3)))
        CFI DPL0 load(1, XDATA, add(CFA_XSP16, literal(-4)))
        CFI DPH0 load(1, XDATA, add(CFA_XSP16, literal(-5)))
        CFI R7 load(1, XDATA, add(CFA_XSP16, literal(-6)))
        CFI R6 load(1, XDATA, add(CFA_XSP16, literal(-7)))
        CFI R5 load(1, XDATA, add(CFA_XSP16, literal(-8)))
        CFI R4 load(1, XDATA, add(CFA_XSP16, literal(-9)))
        CFI V1 load(1, XDATA, add(CFA_XSP16, literal(-10)))
        CFI V0 load(1, XDATA, add(CFA_XSP16, literal(-11)))
        CFI R3 load(1, XDATA, add(CFA_XSP16, literal(-12)))
        CFI R2 load(1, XDATA, add(CFA_XSP16, literal(-13)))
        CFI R1 load(1, XDATA, add(CFA_XSP16, literal(-14)))
        CFI R0 load(1, XDATA, add(CFA_XSP16, literal(-15)))
        CFI CFA_XSP16 add(XSP16, 15)
        ; Saved register size: 15
        ; Auto size: 0
//  127   IEN1 &= ~(0x1 << 5); // 关闭端口0中断
        CLR     0xb8.5
//  128   if((P0IFG >> 4) & 0x1 == 1) { // 中断p0_4引脚产生中断，投币信号    
        MOV     A,0x89
        MOV     C,0xE0 /* A   */.4
        JNC     ??port0Isr_0
//  129     coin_pin_value = COIN_RECV_PIN;
        MOV     C,0x80.4
        CLR     A
        RLC     A
        MOV     DPTR,#coin_pin_value
        MOVX    @DPTR,A
//  130     if(coin_pin_value == 0) {
        MOV     C,0xE0 /* A   */.0
        JC      ??port0Isr_1
//  131       if(coin_pin_value != pre_coin_pin_value) {
        MOV     R0,A
        MOV     DPTR,#pre_coin_pin_value
        MOVX    A,@DPTR
        XRL     A,R0
        JZ      ??port0Isr_2
//  132         pre_coin_pin_value = coin_pin_value;
        MOV     DPTR,#coin_pin_value
        MOVX    A,@DPTR
        MOV     DPTR,#pre_coin_pin_value
        MOVX    @DPTR,A
//  133         NeedCoinTransport = 1;
        MOV     DPTR,#NeedCoinTransport
        MOV     A,#0x1
        MOVX    @DPTR,A
//  134         osal_start_timerEx( SampleApp_TaskID, SAMPLEAPP_TRANSPORT_COIN_MSG_EVT, COIN_SIGNAL_HALF_TIME); // 产生一个定时器事件    
        ; Setup parameters for call to function osal_start_timerEx
        MOV     R4,#0x32
        MOV     R5,#0x0
        MOV     R2,#0x4
        MOV     R3,#0x0
        MOV     DPTR,#SampleApp_TaskID
        MOVX    A,@DPTR
        MOV     R1,A
        LCALL   ??osal_start_timerEx?relay
        SJMP    ??port0Isr_2
//  135       }
//  136     } else {
//  137       pre_coin_pin_value = 1;
??port0Isr_1:
        MOV     DPTR,#pre_coin_pin_value
        MOV     A,#0x1
        MOVX    @DPTR,A
//  138     }
//  139     P0IFG &= ~(0x1 << 4);       //端口0中断状态标志    
??port0Isr_2:
        ANL     0x89,#0xef
//  140     //myprintf("get p0_4 coin input interrupt pin = %d\n", COIN_RECV_PIN);
//  141   } 
//  142   if((P0IFG >> 6) & 0x1 == 1) { // P0_6引脚，彩票机出一个彩票中断信号，转发到游戏机并上传服务器
??port0Isr_0:
        MOV     A,0x89
        MOV     C,0xE0 /* A   */.6
        JNC     ??port0Isr_3
//  143     startRewardInterrupt = 1;
        MOV     DPTR,#startRewardInterrupt
        MOV     A,#0x1
        MOVX    @DPTR,A
//  144     lastRecvRewardSecTime = osal_getClock(); // 设置收到信号当前的秒数，在定时器中进行检测
        ; Setup parameters for call to function osal_getClock
        LCALL   ??osal_getClock?relay
        MOV     DPTR,#lastRecvRewardSecTime
        LCALL   ?XSTORE_R2345
//  145     reward_pin_value = REWARD_OUTPUT_PIN;
        MOV     C,0x80.6
        CLR     A
        RLC     A
        MOV     DPTR,#reward_pin_value
        MOVX    @DPTR,A
//  146     if(reward_pin_value == 0) {
        MOV     C,0xE0 /* A   */.0
        JC      ??port0Isr_4
//  147       if(reward_pin_value != pre_reward_pin_value) {
        MOV     R0,A
        MOV     DPTR,#pre_reward_pin_value
        MOVX    A,@DPTR
        XRL     A,R0
        JZ      ??port0Isr_5
//  148         pre_reward_pin_value = reward_pin_value;
        MOV     DPTR,#reward_pin_value
        MOVX    A,@DPTR
        MOV     DPTR,#pre_reward_pin_value
        MOVX    @DPTR,A
//  149         rewardCount += 1;
        MOV     DPTR,#rewardCount
        MOVX    A,@DPTR
        INC     A
        SJMP    ??port0Isr_6
//  150       }      
//  151     } else {
//  152       pre_reward_pin_value = 1;
??port0Isr_4:
        MOV     DPTR,#pre_reward_pin_value
        MOV     A,#0x1
??port0Isr_6:
        MOVX    @DPTR,A
//  153     }
//  154     P0IFG &= ~(0x1 << 6);
??port0Isr_5:
        ANL     0x89,#0xbf
//  155     myprintf("\nP0_6=%d", REWARD_OUTPUT_PIN); // 此条串口打印语句不能去掉，否则计数会产生不准确结果
        ; Setup parameters for call to function myprintf
        MOV     C,0x80.6
        CLR     A
        RLC     A
        MOV     ?V0 + 0,A
        MOV     ?V0 + 1,#0x0
        MOV     R0,#?V0 + 0
        LCALL   ?PUSH_XSTACK_I_TWO
        CFI CFA_XSP16 add(XSP16, 17)
        MOV     R2,#`?<Constant "\\nP0_6=%d">` & 0xff
        MOV     R3,#(`?<Constant "\\nP0_6=%d">` >> 8) & 0xff
        LCALL   ??myprintf?relay
        MOV     A,#0x2
        LCALL   ?DEALLOC_XSTACK8
        CFI CFA_XSP16 add(XSP16, 15)
//  156   }
//  157   P0IF = 0;        //端口0中断标志，0表示无中断未决，1表示有中断未决，需要每次触发之后置0，不然会一直触发中断 
??port0Isr_3:
        CLR     0xc0.5
//  158   IEN1 |= (0x1 << 5); // 端口0中断使能
        SETB    0xb8.5
//  159 }
        MOV     R7,#0x2
        LJMP    ?INTERRUPT_LEAVE_XSP
        CFI EndBlock cfiBlock0
        REQUIRE _A_IEN1
        REQUIRE P0IFG
        REQUIRE _A_P0
        REQUIRE _A_IRCON
//  160 #endif
//  161 
//  162 /**
//  163 * 自定义任务初始化函数
//  164 */

        RSEG BANKED_CODE:CODE:NOROOT(0)
//  165 void SampleApp_Init( uint8 task_id )
SampleApp_Init:
        CFI Block cfiBlock1 Using cfiCommon1
        CFI Function SampleApp_Init
        CODE
//  166 {
        FUNCALL SampleApp_Init, afRegister
        LOCFRAME ISTACK, 0, STACK
        LOCFRAME PSTACK, 0, STACK
        LOCFRAME XSTACK, 11, STACK
        LOCFRAME IOVERLAY, 0, STATIC
        LOCFRAME DOVERLAY, 0, STATIC
        ARGFRAME ISTACK, 0, STACK
        ARGFRAME PSTACK, 0, STACK
        ARGFRAME XSTACK, 11, STACK
        ARGFRAME IOVERLAY, 0, STATIC
        ARGFRAME DOVERLAY, 0, STATIC
        FUNCALL SampleApp_Init, RegisterForKeys
        LOCFRAME ISTACK, 0, STACK
        LOCFRAME PSTACK, 0, STACK
        LOCFRAME XSTACK, 11, STACK
        LOCFRAME IOVERLAY, 0, STATIC
        LOCFRAME DOVERLAY, 0, STATIC
        ARGFRAME ISTACK, 0, STACK
        ARGFRAME PSTACK, 0, STACK
        ARGFRAME XSTACK, 11, STACK
        ARGFRAME IOVERLAY, 0, STATIC
        ARGFRAME DOVERLAY, 0, STATIC
        FUNCALL SampleApp_Init, osal_memcpy
        LOCFRAME ISTACK, 0, STACK
        LOCFRAME PSTACK, 0, STACK
        LOCFRAME XSTACK, 14, STACK
        LOCFRAME IOVERLAY, 0, STATIC
        LOCFRAME DOVERLAY, 0, STATIC
        ARGFRAME ISTACK, 0, STACK
        ARGFRAME PSTACK, 0, STACK
        ARGFRAME XSTACK, 14, STACK
        ARGFRAME IOVERLAY, 0, STATIC
        ARGFRAME DOVERLAY, 0, STATIC
        FUNCALL SampleApp_Init, aps_AddGroup
        LOCFRAME ISTACK, 0, STACK
        LOCFRAME PSTACK, 0, STACK
        LOCFRAME XSTACK, 11, STACK
        LOCFRAME IOVERLAY, 0, STATIC
        LOCFRAME DOVERLAY, 0, STATIC
        ARGFRAME ISTACK, 0, STACK
        ARGFRAME PSTACK, 0, STACK
        ARGFRAME XSTACK, 11, STACK
        ARGFRAME IOVERLAY, 0, STATIC
        ARGFRAME DOVERLAY, 0, STATIC
        FUNCALL SampleApp_Init, MT_UartInit
        LOCFRAME ISTACK, 0, STACK
        LOCFRAME PSTACK, 0, STACK
        LOCFRAME XSTACK, 11, STACK
        LOCFRAME IOVERLAY, 0, STATIC
        LOCFRAME DOVERLAY, 0, STATIC
        ARGFRAME ISTACK, 0, STACK
        ARGFRAME PSTACK, 0, STACK
        ARGFRAME XSTACK, 11, STACK
        ARGFRAME IOVERLAY, 0, STATIC
        ARGFRAME DOVERLAY, 0, STATIC
        FUNCALL SampleApp_Init, MT_UartRegisterTaskID
        LOCFRAME ISTACK, 0, STACK
        LOCFRAME PSTACK, 0, STACK
        LOCFRAME XSTACK, 11, STACK
        LOCFRAME IOVERLAY, 0, STATIC
        LOCFRAME DOVERLAY, 0, STATIC
        ARGFRAME ISTACK, 0, STACK
        ARGFRAME PSTACK, 0, STACK
        ARGFRAME XSTACK, 11, STACK
        ARGFRAME IOVERLAY, 0, STATIC
        ARGFRAME DOVERLAY, 0, STATIC
        FUNCALL SampleApp_Init, myprintf
        LOCFRAME ISTACK, 0, STACK
        LOCFRAME PSTACK, 0, STACK
        LOCFRAME XSTACK, 11, STACK
        LOCFRAME IOVERLAY, 0, STATIC
        LOCFRAME DOVERLAY, 0, STATIC
        ARGFRAME ISTACK, 0, STACK
        ARGFRAME PSTACK, 0, STACK
        ARGFRAME XSTACK, 11, STACK
        ARGFRAME IOVERLAY, 0, STATIC
        ARGFRAME DOVERLAY, 0, STATIC
        MOV     A,#-0xb
        LCALL   ?BANKED_ENTER_XDATA
        CFI DPH0 load(1, XDATA, add(CFA_XSP16, literal(-1)))
        CFI DPL0 load(1, XDATA, add(CFA_XSP16, literal(-2)))
        CFI ?BRET_EXT load(1, XDATA, add(CFA_XSP16, literal(-3)))
        CFI ?RET_HIGH load(1, XDATA, add(CFA_XSP16, literal(-4)))
        CFI ?RET_LOW load(1, XDATA, add(CFA_XSP16, literal(-5)))
        CFI R7 load(1, XDATA, add(CFA_XSP16, literal(-6)))
        CFI V2 load(1, XDATA, add(CFA_XSP16, literal(-7)))
        CFI V1 load(1, XDATA, add(CFA_XSP16, literal(-8)))
        CFI V0 load(1, XDATA, add(CFA_XSP16, literal(-9)))
        CFI VB load(1, XDATA, add(CFA_XSP16, literal(-10)))
        CFI R6 load(1, XDATA, add(CFA_XSP16, literal(-11)))
        CFI CFA_SP SP+0
        CFI CFA_XSP16 add(XSP16, 11)
        ; Saved register size: 11
        ; Auto size: 0
        MOV     A,R1
        MOV     R6,A
//  167   halUARTCfg_t uartConfig;
//  168   
//  169   SampleApp_TaskID = task_id;
        MOV     DPTR,#SampleApp_TaskID
        MOVX    @DPTR,A
//  170   SampleApp_NwkState = DEV_INIT;
        MOV     DPTR,#SampleApp_NwkState
        MOV     A,#0x1
        MOVX    @DPTR,A
//  171   SampleApp_TransID = 0;
        MOV     DPTR,#SampleApp_TransID
        CLR     A
        MOVX    @DPTR,A
//  172   
//  173 #ifdef END_DEVICE
//  174   //P1_2输出，投币器模拟信号产生引脚
//  175   P1SEL &= ~(0x01 << 2);         //设置P1.2口为普通IO
        ANL     0xf4,#0xfb
//  176   P1DIR |= (0x01 << 2);          //设置P1.2口为输出
        ORL     0xfe,#0x4
//  177   COIN_SIMULATE_PIN = 1;       // 投币器信号模拟输出引脚  
        SETB    0x90.2
//  178 #endif
//  179   
//  180 #if defined ( BUILD_ALL_DEVICES )
//  181   if ( readCoordinatorJumper() )
//  182     zgDeviceLogicalType = ZG_DEVICETYPE_COORDINATOR;
//  183   else
//  184     zgDeviceLogicalType = ZG_DEVICETYPE_ROUTER;
//  185 #endif // BUILD_ALL_DEVICES
//  186   
//  187 #if defined ( HOLD_AUTO_START )
//  188   ZDOInitDevice(0);
//  189 #endif
//  190   
//  191   GenericApp_DstAddr.addrMode = (afAddrMode_t)AddrNotPresent;
        MOV     DPTR,#GenericApp_DstAddr + 8
        MOVX    @DPTR,A
//  192   GenericApp_DstAddr.endPoint = 0;
        INC     DPTR
        MOVX    @DPTR,A
//  193   GenericApp_DstAddr.addr.shortAddr = 0;
        MOV     DPTR,#GenericApp_DstAddr
        MOVX    @DPTR,A
        INC     DPTR
        MOVX    @DPTR,A
//  194   
//  195   // Setup for the periodic message's destination address
//  196   // Broadcast to everyone
//  197   // 协调器广播发送数据到终端
//  198   SampleApp_Periodic_DstAddr.addrMode = (afAddrMode_t)AddrBroadcast;
        MOV     DPTR,#SampleApp_Periodic_DstAddr + 8
        MOV     A,#0xf
        MOVX    @DPTR,A
//  199   SampleApp_Periodic_DstAddr.endPoint = SAMPLEAPP_ENDPOINT;
        INC     DPTR
        MOV     A,#0x14
        MOVX    @DPTR,A
//  200   SampleApp_Periodic_DstAddr.addr.shortAddr = 0xFFFF; // 广播地址
        MOV     DPTR,#SampleApp_Periodic_DstAddr
        MOV     A,#-0x1
        MOVX    @DPTR,A
        INC     DPTR
        MOVX    @DPTR,A
//  201   
//  202   // 终端单播发送数据到协调器
//  203   SampleApp_TxAddr.addrMode = (afAddrMode_t)Addr16Bit;
        MOV     DPTR,#SampleApp_TxAddr + 8
        MOV     A,#0x2
        MOVX    @DPTR,A
//  204   SampleApp_TxAddr.endPoint = SAMPLEAPP_ENDPOINT;
        INC     DPTR
        MOV     A,#0x14
        MOVX    @DPTR,A
//  205   SampleApp_TxAddr.addr.shortAddr = 0x00; // 单播协调器地址
        MOV     DPTR,#SampleApp_TxAddr
        CLR     A
        MOVX    @DPTR,A
        INC     DPTR
        MOVX    @DPTR,A
//  206   
//  207   // 协调器单播发送到指定地址的终端上  
//  208   EndPoint_DstAddr.addrMode = (afAddrMode_t)Addr16Bit;
        MOV     DPTR,#EndPoint_DstAddr + 8
        MOV     A,#0x2
        MOVX    @DPTR,A
//  209   EndPoint_DstAddr.endPoint = SAMPLEAPP_ENDPOINT;
        INC     DPTR
        MOV     A,#0x14
        MOVX    @DPTR,A
//  210   EndPoint_DstAddr.addr.shortAddr = 0x00; // 在发送的时候动态修改终端地址
        MOV     DPTR,#EndPoint_DstAddr
        CLR     A
        MOVX    @DPTR,A
        INC     DPTR
        MOVX    @DPTR,A
//  211   
//  212   // Fill out the endpoint description.
//  213   SampleApp_epDesc.endPoint = SAMPLEAPP_ENDPOINT; // 端点号
        MOV     DPTR,#SampleApp_epDesc
        MOV     A,#0x14
        MOVX    @DPTR,A
//  214   SampleApp_epDesc.task_id = &SampleApp_TaskID; // 端点对应的任务
        INC     DPTR
        MOV     A,#SampleApp_TaskID & 0xff
        MOVX    @DPTR,A
        INC     DPTR
        MOV     A,#(SampleApp_TaskID >> 8) & 0xff
        MOVX    @DPTR,A
//  215   SampleApp_epDesc.simpleDesc = (SimpleDescriptionFormat_t *)&SampleApp_SimpleDesc; // 简单描述符
        INC     DPTR
        MOV     A,#SampleApp_SimpleDesc & 0xff
        MOVX    @DPTR,A
        INC     DPTR
        MOV     A,#(SampleApp_SimpleDesc >> 8) & 0xff
        MOVX    @DPTR,A
//  216   SampleApp_epDesc.latencyReq = noLatencyReqs;  
        INC     DPTR
        CLR     A
        MOVX    @DPTR,A
//  217   afRegister( &SampleApp_epDesc ); // 注册一个应用的端点描述符，注册一个新的端点到任务，这样当有新的消息到来时直接发送到指定的任务中
        ; Setup parameters for call to function afRegister
        MOV     R2,#SampleApp_epDesc & 0xff
        MOV     R3,#(SampleApp_epDesc >> 8) & 0xff
        LCALL   ??afRegister?relay
//  218   
//  219   // 绑定按键事件到任务ID
//  220   RegisterForKeys( SampleApp_TaskID );
        ; Setup parameters for call to function RegisterForKeys
        MOV     DPTR,#SampleApp_TaskID
        MOVX    A,@DPTR
        MOV     R1,A
        LCALL   ??RegisterForKeys?relay
//  221   
//  222   // By default, all devices start out in Group 1
//  223   SampleApp_Group.ID = 0x0001;
        MOV     DPTR,#SampleApp_Group
        MOV     A,#0x1
        MOVX    @DPTR,A
        INC     DPTR
        CLR     A
        MOVX    @DPTR,A
//  224   osal_memcpy( SampleApp_Group.name, "Group 1", 7 );
        ; Setup parameters for call to function osal_memcpy
        MOV     ?V0 + 0,#`?<Constant "Group 1">` & 0xff
        MOV     ?V0 + 1,#(`?<Constant "Group 1">` >> 8) & 0xff
        MOV     ?V0 + 2,A
        MOV     R0,#?V0 + 0
        LCALL   ?PUSH_XSTACK_I_THREE
        CFI CFA_XSP16 add(XSP16, 14)
        MOV     R4,#0x7
        MOV     R5,#0x0
        MOV     R2,#(SampleApp_Group + 2) & 0xff
        MOV     R3,#((SampleApp_Group + 2) >> 8) & 0xff
        LCALL   ??osal_memcpy?relay
        MOV     A,#0x3
        LCALL   ?DEALLOC_XSTACK8
        CFI CFA_XSP16 add(XSP16, 11)
//  225   aps_AddGroup( SAMPLEAPP_ENDPOINT, &SampleApp_Group );
        ; Setup parameters for call to function aps_AddGroup
        MOV     R2,#SampleApp_Group & 0xff
        MOV     R3,#(SampleApp_Group >> 8) & 0xff
        MOV     R1,#0x14
        LCALL   ??aps_AddGroup?relay
//  226   
//  227   // 初始化串口
//  228   MT_UartInit();                    //串口初始化
        ; Setup parameters for call to function MT_UartInit
        LCALL   ??MT_UartInit?relay
//  229   MT_UartRegisterTaskID(task_id);   //注册串口任务
        ; Setup parameters for call to function MT_UartRegisterTaskID
        MOV     A,R6
        MOV     R1,A
        LCALL   ??MT_UartRegisterTaskID?relay
//  230   myprintf("UartInit OK\n");
        ; Setup parameters for call to function myprintf
        MOV     R2,#`?<Constant "UartInit OK\\n">` & 0xff
        MOV     R3,#(`?<Constant "UartInit OK\\n">` >> 8) & 0xff
        LCALL   ??myprintf?relay
//  231 
//  232 #ifdef ZDO_COORDINATOR   
//  233   int ret = InitList_L(&LL); // 单链表初始化
//  234   if(ret == OVERFLOW) {
//  235     myprintf("InitList_L OVERFLOW\n");
//  236   }
//  237 #endif  
//  238 }
        LJMP    ??Subroutine11_0 & 0xFFFF
        CFI EndBlock cfiBlock1
        REQUIRE P1SEL
        REQUIRE P1DIR
        REQUIRE _A_P1
//  239 
//  240 /*********************************************************************
//  241 *          系统各种事件的处理函数
//  242 */

        RSEG BANKED_CODE:CODE:NOROOT(0)
//  243 uint16 SampleApp_ProcessEvent( uint8 task_id, uint16 events )
SampleApp_ProcessEvent:
        CFI Block cfiBlock2 Using cfiCommon1
        CFI Function SampleApp_ProcessEvent
        CODE
//  244 {
        FUNCALL SampleApp_ProcessEvent, osal_msg_receive
        LOCFRAME ISTACK, 0, STACK
        LOCFRAME PSTACK, 0, STACK
        LOCFRAME XSTACK, 12, STACK
        LOCFRAME IOVERLAY, 0, STATIC
        LOCFRAME DOVERLAY, 0, STATIC
        ARGFRAME ISTACK, 0, STACK
        ARGFRAME PSTACK, 0, STACK
        ARGFRAME XSTACK, 12, STACK
        ARGFRAME IOVERLAY, 0, STATIC
        ARGFRAME DOVERLAY, 0, STATIC
        FUNCALL SampleApp_ProcessEvent, myprintf
        LOCFRAME ISTACK, 0, STACK
        LOCFRAME PSTACK, 0, STACK
        LOCFRAME XSTACK, 14, STACK
        LOCFRAME IOVERLAY, 0, STATIC
        LOCFRAME DOVERLAY, 0, STATIC
        ARGFRAME ISTACK, 0, STACK
        ARGFRAME PSTACK, 0, STACK
        ARGFRAME XSTACK, 14, STACK
        ARGFRAME IOVERLAY, 0, STATIC
        ARGFRAME DOVERLAY, 0, STATIC
        FUNCALL SampleApp_ProcessEvent, osal_msg_deallocate
        LOCFRAME ISTACK, 0, STACK
        LOCFRAME PSTACK, 0, STACK
        LOCFRAME XSTACK, 12, STACK
        LOCFRAME IOVERLAY, 0, STATIC
        LOCFRAME DOVERLAY, 0, STATIC
        ARGFRAME ISTACK, 0, STACK
        ARGFRAME PSTACK, 0, STACK
        ARGFRAME XSTACK, 12, STACK
        ARGFRAME IOVERLAY, 0, STATIC
        ARGFRAME DOVERLAY, 0, STATIC
        FUNCALL SampleApp_ProcessEvent, osal_msg_receive
        LOCFRAME ISTACK, 0, STACK
        LOCFRAME PSTACK, 0, STACK
        LOCFRAME XSTACK, 12, STACK
        LOCFRAME IOVERLAY, 0, STATIC
        LOCFRAME DOVERLAY, 0, STATIC
        ARGFRAME ISTACK, 0, STACK
        ARGFRAME PSTACK, 0, STACK
        ARGFRAME XSTACK, 12, STACK
        ARGFRAME IOVERLAY, 0, STATIC
        ARGFRAME DOVERLAY, 0, STATIC
        FUNCALL SampleApp_ProcessEvent, myprintf
        LOCFRAME ISTACK, 0, STACK
        LOCFRAME PSTACK, 0, STACK
        LOCFRAME XSTACK, 12, STACK
        LOCFRAME IOVERLAY, 0, STATIC
        LOCFRAME DOVERLAY, 0, STATIC
        ARGFRAME ISTACK, 0, STACK
        ARGFRAME PSTACK, 0, STACK
        ARGFRAME XSTACK, 12, STACK
        ARGFRAME IOVERLAY, 0, STATIC
        ARGFRAME DOVERLAY, 0, STATIC
        FUNCALL SampleApp_ProcessEvent, SampleApp_MessageMSGCB
        LOCFRAME ISTACK, 0, STACK
        LOCFRAME PSTACK, 0, STACK
        LOCFRAME XSTACK, 12, STACK
        LOCFRAME IOVERLAY, 0, STATIC
        LOCFRAME DOVERLAY, 0, STATIC
        ARGFRAME ISTACK, 0, STACK
        ARGFRAME PSTACK, 0, STACK
        ARGFRAME XSTACK, 12, STACK
        ARGFRAME IOVERLAY, 0, STATIC
        ARGFRAME DOVERLAY, 0, STATIC
        FUNCALL SampleApp_ProcessEvent, osal_start_timerEx
        LOCFRAME ISTACK, 0, STACK
        LOCFRAME PSTACK, 0, STACK
        LOCFRAME XSTACK, 12, STACK
        LOCFRAME IOVERLAY, 0, STATIC
        LOCFRAME DOVERLAY, 0, STATIC
        ARGFRAME ISTACK, 0, STACK
        ARGFRAME PSTACK, 0, STACK
        ARGFRAME XSTACK, 12, STACK
        ARGFRAME IOVERLAY, 0, STATIC
        ARGFRAME DOVERLAY, 0, STATIC
        FUNCALL SampleApp_ProcessEvent, HalLedBlink
        LOCFRAME ISTACK, 0, STACK
        LOCFRAME PSTACK, 0, STACK
        LOCFRAME XSTACK, 12, STACK
        LOCFRAME IOVERLAY, 0, STATIC
        LOCFRAME DOVERLAY, 0, STATIC
        ARGFRAME ISTACK, 0, STACK
        ARGFRAME PSTACK, 0, STACK
        ARGFRAME XSTACK, 12, STACK
        ARGFRAME IOVERLAY, 0, STATIC
        ARGFRAME DOVERLAY, 0, STATIC
        FUNCALL SampleApp_ProcessEvent, HalLedBlink
        LOCFRAME ISTACK, 0, STACK
        LOCFRAME PSTACK, 0, STACK
        LOCFRAME XSTACK, 12, STACK
        LOCFRAME IOVERLAY, 0, STATIC
        LOCFRAME DOVERLAY, 0, STATIC
        ARGFRAME ISTACK, 0, STACK
        ARGFRAME PSTACK, 0, STACK
        ARGFRAME XSTACK, 12, STACK
        ARGFRAME IOVERLAY, 0, STATIC
        ARGFRAME DOVERLAY, 0, STATIC
        FUNCALL SampleApp_ProcessEvent, EndDeviceSendAfMessageByCmd
        LOCFRAME ISTACK, 0, STACK
        LOCFRAME PSTACK, 0, STACK
        LOCFRAME XSTACK, 12, STACK
        LOCFRAME IOVERLAY, 0, STATIC
        LOCFRAME DOVERLAY, 0, STATIC
        ARGFRAME ISTACK, 0, STACK
        ARGFRAME PSTACK, 0, STACK
        ARGFRAME XSTACK, 12, STACK
        ARGFRAME IOVERLAY, 0, STATIC
        ARGFRAME DOVERLAY, 0, STATIC
        FUNCALL SampleApp_ProcessEvent, HalLedBlink
        LOCFRAME ISTACK, 0, STACK
        LOCFRAME PSTACK, 0, STACK
        LOCFRAME XSTACK, 12, STACK
        LOCFRAME IOVERLAY, 0, STATIC
        LOCFRAME DOVERLAY, 0, STATIC
        ARGFRAME ISTACK, 0, STACK
        ARGFRAME PSTACK, 0, STACK
        ARGFRAME XSTACK, 12, STACK
        ARGFRAME IOVERLAY, 0, STATIC
        ARGFRAME DOVERLAY, 0, STATIC
        FUNCALL SampleApp_ProcessEvent, osal_start_timerEx
        LOCFRAME ISTACK, 0, STACK
        LOCFRAME PSTACK, 0, STACK
        LOCFRAME XSTACK, 12, STACK
        LOCFRAME IOVERLAY, 0, STATIC
        LOCFRAME DOVERLAY, 0, STATIC
        ARGFRAME ISTACK, 0, STACK
        ARGFRAME PSTACK, 0, STACK
        ARGFRAME XSTACK, 12, STACK
        ARGFRAME IOVERLAY, 0, STATIC
        ARGFRAME DOVERLAY, 0, STATIC
        FUNCALL SampleApp_ProcessEvent, EndDeviceSendHeartBeat
        LOCFRAME ISTACK, 0, STACK
        LOCFRAME PSTACK, 0, STACK
        LOCFRAME XSTACK, 12, STACK
        LOCFRAME IOVERLAY, 0, STATIC
        LOCFRAME DOVERLAY, 0, STATIC
        ARGFRAME ISTACK, 0, STACK
        ARGFRAME PSTACK, 0, STACK
        ARGFRAME XSTACK, 12, STACK
        ARGFRAME IOVERLAY, 0, STATIC
        ARGFRAME DOVERLAY, 0, STATIC
        FUNCALL SampleApp_ProcessEvent, osal_start_timerEx
        LOCFRAME ISTACK, 0, STACK
        LOCFRAME PSTACK, 0, STACK
        LOCFRAME XSTACK, 12, STACK
        LOCFRAME IOVERLAY, 0, STATIC
        LOCFRAME DOVERLAY, 0, STATIC
        ARGFRAME ISTACK, 0, STACK
        ARGFRAME PSTACK, 0, STACK
        ARGFRAME XSTACK, 12, STACK
        ARGFRAME IOVERLAY, 0, STATIC
        ARGFRAME DOVERLAY, 0, STATIC
        FUNCALL SampleApp_ProcessEvent, myprintf
        LOCFRAME ISTACK, 0, STACK
        LOCFRAME PSTACK, 0, STACK
        LOCFRAME XSTACK, 16, STACK
        LOCFRAME IOVERLAY, 0, STATIC
        LOCFRAME DOVERLAY, 0, STATIC
        ARGFRAME ISTACK, 0, STACK
        ARGFRAME PSTACK, 0, STACK
        ARGFRAME XSTACK, 16, STACK
        ARGFRAME IOVERLAY, 0, STATIC
        ARGFRAME DOVERLAY, 0, STATIC
        FUNCALL SampleApp_ProcessEvent, osal_start_timerEx
        LOCFRAME ISTACK, 0, STACK
        LOCFRAME PSTACK, 0, STACK
        LOCFRAME XSTACK, 12, STACK
        LOCFRAME IOVERLAY, 0, STATIC
        LOCFRAME DOVERLAY, 0, STATIC
        ARGFRAME ISTACK, 0, STACK
        ARGFRAME PSTACK, 0, STACK
        ARGFRAME XSTACK, 12, STACK
        ARGFRAME IOVERLAY, 0, STATIC
        ARGFRAME DOVERLAY, 0, STATIC
        FUNCALL SampleApp_ProcessEvent, osal_start_timerEx
        LOCFRAME ISTACK, 0, STACK
        LOCFRAME PSTACK, 0, STACK
        LOCFRAME XSTACK, 12, STACK
        LOCFRAME IOVERLAY, 0, STATIC
        LOCFRAME DOVERLAY, 0, STATIC
        ARGFRAME ISTACK, 0, STACK
        ARGFRAME PSTACK, 0, STACK
        ARGFRAME XSTACK, 12, STACK
        ARGFRAME IOVERLAY, 0, STATIC
        ARGFRAME DOVERLAY, 0, STATIC
        MOV     A,#-0xc
        LCALL   ?BANKED_ENTER_XDATA
        CFI DPH0 load(1, XDATA, add(CFA_XSP16, literal(-1)))
        CFI DPL0 load(1, XDATA, add(CFA_XSP16, literal(-2)))
        CFI ?BRET_EXT load(1, XDATA, add(CFA_XSP16, literal(-3)))
        CFI ?RET_HIGH load(1, XDATA, add(CFA_XSP16, literal(-4)))
        CFI ?RET_LOW load(1, XDATA, add(CFA_XSP16, literal(-5)))
        CFI R7 load(1, XDATA, add(CFA_XSP16, literal(-6)))
        CFI V3 load(1, XDATA, add(CFA_XSP16, literal(-7)))
        CFI V2 load(1, XDATA, add(CFA_XSP16, literal(-8)))
        CFI V1 load(1, XDATA, add(CFA_XSP16, literal(-9)))
        CFI V0 load(1, XDATA, add(CFA_XSP16, literal(-10)))
        CFI VB load(1, XDATA, add(CFA_XSP16, literal(-11)))
        CFI R6 load(1, XDATA, add(CFA_XSP16, literal(-12)))
        CFI CFA_SP SP+0
        CFI CFA_XSP16 add(XSP16, 12)
        ; Saved register size: 12
        ; Auto size: 0
        MOV     ?V0 + 0,R2
        MOV     ?V0 + 1,R3
//  245   afIncomingMSGPacket_t *MSGpkt;
//  246   afDataConfirm_t *afDataConfirm;
//  247   ZStatus_t sentStatus;
//  248   (void)task_id;  // Intentionally unreferenced parameter
//  249   
//  250   if ( events & SYS_EVENT_MSG )
        MOV     A,R3
        ANL     A,#0x80
        JNZ     $+5
        LJMP    ??SampleApp_ProcessEvent_0 & 0xFFFF
//  251   {
//  252     MSGpkt = (afIncomingMSGPacket_t *)osal_msg_receive( SampleApp_TaskID );
        ; Setup parameters for call to function osal_msg_receive
        SJMP    ??SampleApp_ProcessEvent_1
//  253     while ( MSGpkt )
//  254     {      
//  255       switch ( MSGpkt->hdr.event )
//  256       {
//  257         // 系统任务事件里面的接收数据确认消息
//  258         case AF_DATA_CONFIRM_CMD:          
//  259           afDataConfirm = (afDataConfirm_t *)MSGpkt;
//  260           sentStatus = afDataConfirm->hdr.status;
//  261           // Action taken when confirmation is received.
//  262           if ( sentStatus != ZSuccess )
//  263           {
//  264             myprintf("Got ERROR:AF_DATA_CONFIRM_CMD failed\n");
//  265           }
//  266           break;
//  267         
//  268           // 接收到一个按键事件
//  269         case KEY_CHANGE:
//  270           SampleApp_HandleKeys( ((keyChange_t *)MSGpkt)->state, ((keyChange_t *)MSGpkt)->keys );
//  271           break;
//  272           
//  273           // 无线网络收到数据
//  274         case AF_INCOMING_MSG_CMD:
//  275           SampleApp_MessageMSGCB( MSGpkt );
//  276           break;
//  277           
//  278           // 设备组网或者入网成功，可以发送一个消息，并开启一个心跳事件的定时器
//  279         case ZDO_STATE_CHANGE:
//  280           SampleApp_NwkState = (devStates_t)(MSGpkt->hdr.status); // 另外MSGpkt->srcAddr.addr.shortAddr;可用于获取终端节点的网络短地址                    
//  281           // 判断不同的设备类型
//  282           if(SampleApp_NwkState == DEV_ZB_COORD) { // 协调器组建好网络
//  283             osal_start_timerEx( SampleApp_TaskID, SAMPLEAPP_SEND_PERIODIC_MSG_EVT, SAMPLEAPP_SEND_PERIODIC_MSG_TIMEOUT ); // 开启定时器
//  284             HalLedBlink(HAL_LED_2, 3, 50, 250);
//  285           } else if(SampleApp_NwkState == DEV_ROUTER) { // 路由器加入网络
//  286             HalLedBlink(HAL_LED_2, 3, 50, 250);
//  287           } else if(SampleApp_NwkState == DEV_END_DEVICE) { // 终端加入网络
//  288             EndDeviceSendAfMessageByCmd(ENDDEVICE_NETWORK_READY); // 向协调器发送入网消息
//  289             HalLedBlink(HAL_LED_2, 3, 50, 250);
//  290             osal_start_timerEx( SampleApp_TaskID, SAMPLEAPP_SEND_PERIODIC_MSG_EVT, SAMPLEAPP_SEND_PERIODIC_MSG_TIMEOUT ); // 开启定时器
//  291             IEN1 |= (0x1 << 5); // 开启端口0中断
//  292           }
//  293           break;
//  294           
//  295         default:        
//  296           myprintf("unknown pkg-event = 0x%x\n", MSGpkt->hdr.event);      
??SampleApp_ProcessEvent_2:
        ; Setup parameters for call to function myprintf
        LCALL   ?Subroutine6 & 0xFFFF
??CrossCallReturnLabel_7:
        LCALL   ?PUSH_XSTACK_I_TWO
        CFI CFA_XSP16 add(XSP16, 14)
        MOV     R2,#`?<Constant "unknown pkg-event = 0...">` & 0xff
        MOV     R3,#(`?<Constant "unknown pkg-event = 0...">` >> 8) & 0xff
        LCALL   ?Subroutine4 & 0xFFFF
??CrossCallReturnLabel_0:
        LCALL   ?DEALLOC_XSTACK8
        CFI CFA_XSP16 add(XSP16, 12)
//  297           break;
//  298       }      
//  299       
//  300       osal_msg_deallocate( (uint8 *)MSGpkt );// Release the memory
??SampleApp_ProcessEvent_3:
        ; Setup parameters for call to function osal_msg_deallocate
        MOV     A,R6
        MOV     R2,A
        MOV     A,R7
        MOV     R3,A
        LCALL   ??osal_msg_deallocate?relay
//  301       MSGpkt = (afIncomingMSGPacket_t *)osal_msg_receive( SampleApp_TaskID );// Next - if one is available
        ; Setup parameters for call to function osal_msg_receive
??SampleApp_ProcessEvent_1:
        MOV     DPTR,#SampleApp_TaskID
        MOVX    A,@DPTR
        MOV     R1,A
        LCALL   ??osal_msg_receive?relay
        MOV     ?V0 + 2,R2
        MOV     ?V0 + 3,R3
        MOV     R6,?V0 + 2
        MOV     R7,?V0 + 3
        MOV     A,R6
        ORL     A,R7
        JZ      ??SampleApp_ProcessEvent_4
        MOV     DPL,R6
        MOV     DPH,R7
        MOVX    A,@DPTR
        ADD     A,#-0x1a
        JZ      ??SampleApp_ProcessEvent_5
        ADD     A,#0x5a
        JZ      ??SampleApp_ProcessEvent_3
        ADD     A,#-0x11
        JZ      ??SampleApp_ProcessEvent_6
        ADD     A,#-0x2c
        JNZ     ??SampleApp_ProcessEvent_2
        INC     DPTR
        MOVX    A,@DPTR
        JZ      ??SampleApp_ProcessEvent_3
        ; Setup parameters for call to function myprintf
        MOV     R2,#`?<Constant "Got ERROR:AF_DATA_CON...">` & 0xff
        MOV     R3,#(`?<Constant "Got ERROR:AF_DATA_CON...">` >> 8) & 0xff
        LCALL   ??myprintf?relay
        SJMP    ??SampleApp_ProcessEvent_3
??SampleApp_ProcessEvent_5:
        ; Setup parameters for call to function SampleApp_MessageMSGCB
        MOV     A,R6
        MOV     R2,A
        MOV     A,R7
        MOV     R3,A
        LCALL   ??SampleApp_MessageMSGCB?relay
        SJMP    ??SampleApp_ProcessEvent_3
??SampleApp_ProcessEvent_6:
        INC     DPTR
        MOVX    A,@DPTR
        MOV     DPTR,#SampleApp_NwkState
        MOVX    @DPTR,A
        XRL     A,#0x9
        JNZ     ??SampleApp_ProcessEvent_7
        ; Setup parameters for call to function osal_start_timerEx
        LCALL   ?Subroutine3 & 0xFFFF
        ; Setup parameters for call to function HalLedBlink
??CrossCallReturnLabel_13:
        MOV     R4,#-0x6
        MOV     R5,#0x0
        MOV     R3,#0x32
        MOV     R2,#0x3
        MOV     R1,#0x2
        LCALL   ??HalLedBlink?relay
        SJMP    ??SampleApp_ProcessEvent_3
??SampleApp_ProcessEvent_7:
        MOVX    A,@DPTR
        XRL     A,#0x7
        JZ      ??CrossCallReturnLabel_13
        ; Setup parameters for call to function HalLedBlink
        MOVX    A,@DPTR
        XRL     A,#0x6
        JNZ     ??SampleApp_ProcessEvent_3
        ; Setup parameters for call to function EndDeviceSendAfMessageByCmd
        MOV     R1,#-0x80
        LCALL   ??EndDeviceSendAfMessageByCmd?relay
        ; Setup parameters for call to function HalLedBlink
        MOV     R4,#-0x6
        MOV     R5,#0x0
        MOV     R3,#0x32
        MOV     R2,#0x3
        MOV     R1,#0x2
        LCALL   ??HalLedBlink?relay
        ; Setup parameters for call to function osal_start_timerEx
        LCALL   ?Subroutine3 & 0xFFFF
??CrossCallReturnLabel_14:
        SETB    0xb8.5
        LJMP    ??SampleApp_ProcessEvent_3 & 0xFFFF
//  302     }
//  303     
//  304     // return unprocessed events
//  305     return (events ^ SYS_EVENT_MSG);
??SampleApp_ProcessEvent_4:
        MOV     R2,?V0 + 0
        MOV     A,?V0 + 1
        XRL     A,#0x80
        MOV     R3,A
        LJMP    ??SampleApp_ProcessEvent_8 & 0xFFFF
//  306   }
//  307   
//  308   //myprintf("events = 0x%x\n", events);
//  309   // 接收到一个定时器事件
//  310   if ( events & SAMPLEAPP_SEND_PERIODIC_MSG_EVT )
??SampleApp_ProcessEvent_0:
        MOV     A,R2
        MOV     C,0xE0 /* A   */.0
        JNC     ??SampleApp_ProcessEvent_9
//  311   {
//  312 #ifdef ZDO_COORDINATOR // 协调器
//  313     SampleApp_SendHeartBeatMessageCoor(); // 协调器心跳功能函数，同时检测掉线的终端，将掉线信息发送到服务器
//  314     osal_start_timerEx( SampleApp_TaskID, SAMPLEAPP_SEND_PERIODIC_MSG_EVT, SAMPLEAPP_SEND_PERIODIC_MSG_TIMEOUT); // 1000ms再次开启定时器
//  315 #endif
//  316     
//  317 #ifdef END_DEVICE // 终端设备
//  318     EndDeviceSendHeartBeat(); // 终端心跳功能函数，心跳函数中还检查彩票引脚输出信号，一定时间内没有彩票出来则上传出彩票结果
        ; Setup parameters for call to function EndDeviceSendHeartBeat
        LCALL   ??EndDeviceSendHeartBeat?relay
//  319     osal_start_timerEx( SampleApp_TaskID, SAMPLEAPP_SEND_PERIODIC_MSG_EVT, SAMPLEAPP_SEND_PERIODIC_MSG_TIMEOUT*3/2); // 1500ms再次开启定时器
        ; Setup parameters for call to function osal_start_timerEx
        MOV     R4,#-0x24
        MOV     R5,#0x5
        LCALL   ??Subroutine9_0 & 0xFFFF
//  320 #endif
//  321     
//  322     return (events ^ SAMPLEAPP_SEND_PERIODIC_MSG_EVT); // 清除此已经处理事件标志位
??CrossCallReturnLabel_15:
        MOV     A,?V0 + 0
        XRL     A,#0x1
??SampleApp_ProcessEvent_10:
        MOV     R2,A
        MOV     R3,?V0 + 1
        LJMP    ??SampleApp_ProcessEvent_8 & 0xFFFF
//  323   }  
//  324 
//  325 #ifdef END_DEVICE  // 接收到线上金币的开启信号，模拟电平变化的定时器事件
//  326   else if(events & SAMPLEAPP_SIMULATE_COIN_MSG_EVT) {
??SampleApp_ProcessEvent_9:
        ANL     A,#0x2
        JZ      ??SampleApp_ProcessEvent_11
//  327     myprintf("Get COIN_MSG_EVT, NeedCoinDelivered = %d, events = 0x%x\n", NeedCoinDelivered, events);    
        ; Setup parameters for call to function myprintf
        MOV     R0,#?V0 + 0
        LCALL   ?PUSH_XSTACK_I_TWO
        CFI CFA_XSP16 add(XSP16, 14)
        MOV     DPTR,#NeedCoinDelivered
        MOVX    A,@DPTR
        MOV     ?V0 + 2,A
        RLC     A
        SUBB    A,0xE0 /* A   */
        MOV     ?V0 + 3,A
        MOV     R0,#?V0 + 2
        LCALL   ?PUSH_XSTACK_I_TWO
        CFI CFA_XSP16 add(XSP16, 16)
        MOV     R2,#`?<Constant "Get COIN_MSG_EVT, Nee...">` & 0xff
        MOV     R3,#(`?<Constant "Get COIN_MSG_EVT, Nee...">` >> 8) & 0xff
        LCALL   ??myprintf?relay
        MOV     A,#0x4
        LCALL   ?DEALLOC_XSTACK8
        CFI CFA_XSP16 add(XSP16, 12)
//  328     if(COIN_SIMULATE_PIN == 1) {
        MOV     C,0x90.2
        JNC     ??SampleApp_ProcessEvent_12
//  329       COIN_SIMULATE_PIN = 0; // 产生一个下降沿
        CLR     0x90.2
        SJMP    ??SampleApp_ProcessEvent_13
//  330     } else if(COIN_SIMULATE_PIN == 0) {
??SampleApp_ProcessEvent_12:
        MOV     C,0x90.2
        JC      ??SampleApp_ProcessEvent_13
//  331       COIN_SIMULATE_PIN = 1; // 完整产生了一个脉冲
        SETB    0x90.2
//  332       NeedCoinDelivered--;
        MOV     DPTR,#NeedCoinDelivered
        MOVX    A,@DPTR
        DEC     A
        MOVX    @DPTR,A
//  333     }
//  334     if(NeedCoinDelivered > 0) { // 还需要开启定时器
??SampleApp_ProcessEvent_13:
        MOV     DPTR,#NeedCoinDelivered
        LCALL   ?Subroutine5 & 0xFFFF
??CrossCallReturnLabel_5:
        JC      ??CrossCallReturnLabel_16
//  335       osal_start_timerEx( SampleApp_TaskID, SAMPLEAPP_SIMULATE_COIN_MSG_EVT, COIN_SIGNAL_HALF_TIME); // 低电平和高电平至少保持50ms
        ; Setup parameters for call to function osal_start_timerEx
        MOV     R4,#0x32
        MOV     R5,#0x0
        MOV     R2,#0x2
        LCALL   ??Subroutine10_0 & 0xFFFF
//  336     } 
//  337     
//  338     return (events ^ SAMPLEAPP_SIMULATE_COIN_MSG_EVT);
??CrossCallReturnLabel_16:
        MOV     A,?V0 + 0
        XRL     A,#0x2
        SJMP    ??SampleApp_ProcessEvent_10
//  339   } 
//  340   else if(events & SAMPLEAPP_TRANSPORT_COIN_MSG_EVT) { // 需要转发投币器的投币信号
??SampleApp_ProcessEvent_11:
        MOV     A,R2
        ANL     A,#0x4
        JZ      ??SampleApp_ProcessEvent_14
//  341     //myprintf("Get transport coin EVT, NeedCoinTransport = %d\n", NeedCoinTransport);
//  342     
//  343     if(COIN_SIMULATE_PIN == 1) {
        MOV     C,0x90.2
        JNC     ??SampleApp_ProcessEvent_15
//  344       COIN_SIMULATE_PIN = 0; // 产生一个下降沿
        CLR     0x90.2
        SJMP    ??SampleApp_ProcessEvent_16
//  345     } else if(COIN_SIMULATE_PIN == 0) {
??SampleApp_ProcessEvent_15:
        MOV     C,0x90.2
        JC      ??SampleApp_ProcessEvent_16
//  346       COIN_SIMULATE_PIN = 1; // 完整产生了一个脉冲
        SETB    0x90.2
//  347       NeedCoinTransport--;
        MOV     DPTR,#NeedCoinTransport
        MOVX    A,@DPTR
        DEC     A
        MOVX    @DPTR,A
//  348     }
//  349     if(NeedCoinTransport > 0) { // 还需要开启定时器
??SampleApp_ProcessEvent_16:
        MOV     DPTR,#NeedCoinTransport
        LCALL   ?Subroutine5 & 0xFFFF
??CrossCallReturnLabel_6:
        JC      ??CrossCallReturnLabel_17
//  350       osal_start_timerEx( SampleApp_TaskID, SAMPLEAPP_TRANSPORT_COIN_MSG_EVT, COIN_SIGNAL_HALF_TIME); // 低电平和高电平至少保持50ms
        ; Setup parameters for call to function osal_start_timerEx
        MOV     R4,#0x32
        MOV     R5,#0x0
        MOV     R2,#0x4
        LCALL   ??Subroutine10_0 & 0xFFFF
//  351     }
//  352     return (events ^ SAMPLEAPP_TRANSPORT_COIN_MSG_EVT);
??CrossCallReturnLabel_17:
        MOV     A,?V0 + 0
        XRL     A,#0x4
        LJMP    ??SampleApp_ProcessEvent_10 & 0xFFFF
//  353   }
//  354 #endif  
//  355 
//  356   return 0;
??SampleApp_ProcessEvent_14:
        MOV     R2,#0x0
        MOV     R3,#0x0
        CFI EndBlock cfiBlock2
??SampleApp_ProcessEvent_8:
        REQUIRE ?Subroutine1
        REQUIRE _A_IEN1
        REQUIRE _A_P1
        ; // Fall through to label ?Subroutine1
//  357 }

        RSEG BANKED_CODE:CODE:NOROOT(0)
?Subroutine1:
        CFI Block cfiBlock3 Using cfiCommon1
        CFI NoFunction
        CFI CFA_SP SP+0
        CFI CFA_XSP16 add(XSP16, 12)
        CFI VB load(1, XDATA, add(CFA_XSP16, literal(-11)))
        CFI DPL0 load(1, XDATA, add(CFA_XSP16, literal(-2)))
        CFI DPH0 load(1, XDATA, add(CFA_XSP16, literal(-1)))
        CFI R6 load(1, XDATA, add(CFA_XSP16, literal(-12)))
        CFI R7 load(1, XDATA, add(CFA_XSP16, literal(-6)))
        CFI V0 load(1, XDATA, add(CFA_XSP16, literal(-10)))
        CFI V1 load(1, XDATA, add(CFA_XSP16, literal(-9)))
        CFI V2 load(1, XDATA, add(CFA_XSP16, literal(-8)))
        CFI V3 load(1, XDATA, add(CFA_XSP16, literal(-7)))
        CFI ?BRET_EXT load(1, XDATA, add(CFA_XSP16, literal(-3)))
        CFI ?RET_HIGH load(1, XDATA, add(CFA_XSP16, literal(-4)))
        CFI ?RET_LOW load(1, XDATA, add(CFA_XSP16, literal(-5)))
        MOV     R7,#0x4
        LJMP    ?BANKED_LEAVE_XDATA
        CFI EndBlock cfiBlock3

        RSEG BANKED_CODE:CODE:NOROOT(0)
?Subroutine5:
        CFI Block cfiCond4 Using cfiCommon1
        CFI NoFunction
        CFI Conditional ??CrossCallReturnLabel_5
        CFI R6 load(1, XDATA, add(CFA_XSP16, literal(-12)))
        CFI VB load(1, XDATA, add(CFA_XSP16, literal(-11)))
        CFI V0 load(1, XDATA, add(CFA_XSP16, literal(-10)))
        CFI V1 load(1, XDATA, add(CFA_XSP16, literal(-9)))
        CFI V2 load(1, XDATA, add(CFA_XSP16, literal(-8)))
        CFI V3 load(1, XDATA, add(CFA_XSP16, literal(-7)))
        CFI R7 load(1, XDATA, add(CFA_XSP16, literal(-6)))
        CFI ?RET_LOW load(1, XDATA, add(CFA_XSP16, literal(-5)))
        CFI ?RET_HIGH load(1, XDATA, add(CFA_XSP16, literal(-4)))
        CFI ?BRET_EXT load(1, XDATA, add(CFA_XSP16, literal(-3)))
        CFI DPL0 load(1, XDATA, add(CFA_XSP16, literal(-2)))
        CFI DPH0 load(1, XDATA, add(CFA_XSP16, literal(-1)))
        CFI CFA_SP SP+0
        CFI CFA_XSP16 add(XSP16, 12)
        CFI Block cfiCond5 Using cfiCommon1
        CFI (cfiCond5) NoFunction
        CFI (cfiCond5) Conditional ??CrossCallReturnLabel_6
        CFI (cfiCond5) R6 load(1, XDATA, add(CFA_XSP16, literal(-12)))
        CFI (cfiCond5) VB load(1, XDATA, add(CFA_XSP16, literal(-11)))
        CFI (cfiCond5) V0 load(1, XDATA, add(CFA_XSP16, literal(-10)))
        CFI (cfiCond5) V1 load(1, XDATA, add(CFA_XSP16, literal(-9)))
        CFI (cfiCond5) V2 load(1, XDATA, add(CFA_XSP16, literal(-8)))
        CFI (cfiCond5) V3 load(1, XDATA, add(CFA_XSP16, literal(-7)))
        CFI (cfiCond5) R7 load(1, XDATA, add(CFA_XSP16, literal(-6)))
        CFI (cfiCond5) ?RET_LOW load(1, XDATA, add(CFA_XSP16, literal(-5)))
        CFI (cfiCond5) ?RET_HIGH load(1, XDATA, add(CFA_XSP16, literal(-4)))
        CFI (cfiCond5) ?BRET_EXT load(1, XDATA, add(CFA_XSP16, literal(-3)))
        CFI (cfiCond5) DPL0 load(1, XDATA, add(CFA_XSP16, literal(-2)))
        CFI (cfiCond5) DPH0 load(1, XDATA, add(CFA_XSP16, literal(-1)))
        CFI (cfiCond5) CFA_SP SP+0
        CFI (cfiCond5) CFA_XSP16 add(XSP16, 12)
        CFI Block cfiPicker6 Using cfiCommon0
        CFI (cfiPicker6) NoFunction
        CFI (cfiPicker6) Picker
        MOVX    A,@DPTR
        CLR     C
        SUBB    A,#0x1
        MOV     C,0xD0 /* PSW */.2
        XRL     A,PSW
        RLC     A
        RET
        CFI EndBlock cfiCond4
        CFI EndBlock cfiCond5
        CFI EndBlock cfiPicker6
//  358 
//  359 /*********************************************************************
//  360 * LOCAL FUNCTIONS
//  361 */
//  362 #define INIT_LEFT_SEC 5
//  363 #ifdef NEED_TEST_DIStANCE
//  364 uint16 recvTestMsgCount = 0;
//  365 #endif

        RSEG BANKED_CODE:CODE:NOROOT(0)
//  366 void SampleApp_MessageMSGCB( afIncomingMSGPacket_t *pkt )
SampleApp_MessageMSGCB:
        CFI Block cfiBlock7 Using cfiCommon1
        CFI Function SampleApp_MessageMSGCB
        CODE
//  367 {
        FUNCALL SampleApp_MessageMSGCB, re_replace_data
        LOCFRAME ISTACK, 0, STACK
        LOCFRAME PSTACK, 0, STACK
        LOCFRAME XSTACK, 45, STACK
        LOCFRAME IOVERLAY, 0, STATIC
        LOCFRAME DOVERLAY, 0, STATIC
        ARGFRAME ISTACK, 0, STACK
        ARGFRAME PSTACK, 0, STACK
        ARGFRAME XSTACK, 45, STACK
        ARGFRAME IOVERLAY, 0, STATIC
        ARGFRAME DOVERLAY, 0, STATIC
        FUNCALL SampleApp_MessageMSGCB, check_xor
        LOCFRAME ISTACK, 0, STACK
        LOCFRAME PSTACK, 0, STACK
        LOCFRAME XSTACK, 43, STACK
        LOCFRAME IOVERLAY, 0, STATIC
        LOCFRAME DOVERLAY, 0, STATIC
        ARGFRAME ISTACK, 0, STACK
        ARGFRAME PSTACK, 0, STACK
        ARGFRAME XSTACK, 43, STACK
        ARGFRAME IOVERLAY, 0, STATIC
        ARGFRAME DOVERLAY, 0, STATIC
        FUNCALL SampleApp_MessageMSGCB, osal_start_timerEx
        LOCFRAME ISTACK, 0, STACK
        LOCFRAME PSTACK, 0, STACK
        LOCFRAME XSTACK, 43, STACK
        LOCFRAME IOVERLAY, 0, STATIC
        LOCFRAME DOVERLAY, 0, STATIC
        ARGFRAME ISTACK, 0, STACK
        ARGFRAME PSTACK, 0, STACK
        ARGFRAME XSTACK, 43, STACK
        ARGFRAME IOVERLAY, 0, STATIC
        ARGFRAME DOVERLAY, 0, STATIC
        FUNCALL SampleApp_MessageMSGCB, EndDeviceSendAfMessageByCmd
        LOCFRAME ISTACK, 0, STACK
        LOCFRAME PSTACK, 0, STACK
        LOCFRAME XSTACK, 43, STACK
        LOCFRAME IOVERLAY, 0, STATIC
        LOCFRAME DOVERLAY, 0, STATIC
        ARGFRAME ISTACK, 0, STACK
        ARGFRAME PSTACK, 0, STACK
        ARGFRAME XSTACK, 43, STACK
        ARGFRAME IOVERLAY, 0, STATIC
        ARGFRAME DOVERLAY, 0, STATIC
        FUNCALL SampleApp_MessageMSGCB, myprintf
        LOCFRAME ISTACK, 0, STACK
        LOCFRAME PSTACK, 0, STACK
        LOCFRAME XSTACK, 45, STACK
        LOCFRAME IOVERLAY, 0, STATIC
        LOCFRAME DOVERLAY, 0, STATIC
        ARGFRAME ISTACK, 0, STACK
        ARGFRAME PSTACK, 0, STACK
        ARGFRAME XSTACK, 45, STACK
        ARGFRAME IOVERLAY, 0, STATIC
        ARGFRAME DOVERLAY, 0, STATIC
        FUNCALL SampleApp_MessageMSGCB, HalLedBlink
        LOCFRAME ISTACK, 0, STACK
        LOCFRAME PSTACK, 0, STACK
        LOCFRAME XSTACK, 43, STACK
        LOCFRAME IOVERLAY, 0, STATIC
        LOCFRAME DOVERLAY, 0, STATIC
        ARGFRAME ISTACK, 0, STACK
        ARGFRAME PSTACK, 0, STACK
        ARGFRAME XSTACK, 43, STACK
        ARGFRAME IOVERLAY, 0, STATIC
        ARGFRAME DOVERLAY, 0, STATIC
        FUNCALL SampleApp_MessageMSGCB, myprintf
        LOCFRAME ISTACK, 0, STACK
        LOCFRAME PSTACK, 0, STACK
        LOCFRAME XSTACK, 43, STACK
        LOCFRAME IOVERLAY, 0, STATIC
        LOCFRAME DOVERLAY, 0, STATIC
        ARGFRAME ISTACK, 0, STACK
        ARGFRAME PSTACK, 0, STACK
        ARGFRAME XSTACK, 43, STACK
        ARGFRAME IOVERLAY, 0, STATIC
        ARGFRAME DOVERLAY, 0, STATIC
        MOV     A,#-0xa
        LCALL   ?BANKED_ENTER_XDATA
        CFI DPH0 load(1, XDATA, add(CFA_XSP16, literal(-1)))
        CFI DPL0 load(1, XDATA, add(CFA_XSP16, literal(-2)))
        CFI ?BRET_EXT load(1, XDATA, add(CFA_XSP16, literal(-3)))
        CFI ?RET_HIGH load(1, XDATA, add(CFA_XSP16, literal(-4)))
        CFI ?RET_LOW load(1, XDATA, add(CFA_XSP16, literal(-5)))
        CFI R7 load(1, XDATA, add(CFA_XSP16, literal(-6)))
        CFI V1 load(1, XDATA, add(CFA_XSP16, literal(-7)))
        CFI V0 load(1, XDATA, add(CFA_XSP16, literal(-8)))
        CFI VB load(1, XDATA, add(CFA_XSP16, literal(-9)))
        CFI R6 load(1, XDATA, add(CFA_XSP16, literal(-10)))
        CFI CFA_SP SP+0
        CFI CFA_XSP16 add(XSP16, 10)
        ; Saved register size: 10
        ; Auto size: 33
        MOV     A,#-0x21
        LCALL   ?ALLOC_XSTACK8
        CFI CFA_XSP16 add(XSP16, 43)
//  368   uint8* buffer = NULL;
//  369   uint8 recvLen = 0;
//  370   uint8 outputBuffer[SERIAL_BUFFER_SIZE] = {0};
        MOV     DPTR,#`?<Constant {0}>`
        PUSH    DPL
        CFI CFA_SP SP+-1
        MOV     A,#0x1
        LCALL   ?XSTACK_DISP0_8
        MOV     R4,DPL
        MOV     R5,DPH
        MOV     DPH,#(`?<Constant {0}>` >> 8) & 0xff
        POP     DPL
        CFI CFA_SP SP+0
        MOV     A,#0x20
        LCALL   ?MOVE_LONG8_XDATA_XDATA
//  371   uint8 outputLen = 0;
        MOV     DPL,?XSP + 0
        MOV     DPH,?XSP + 1
        MOVX    @DPTR,A
//  372   bool check = false;
//  373   uint8 cmd = 0x0;
//  374   
//  375   // 协调器在发送数据的时候指定的此消息对应的命令字，即表示哪种类型的控制命令
//  376   if(pkt->clusterId == SAMPLEAPP_PERIODIC_CLUSTERID) {
        MOV     DPL,R2
        MOV     DPH,R3
        INC     DPTR
        INC     DPTR
        INC     DPTR
        INC     DPTR
        MOVX    A,@DPTR
        XRL     A,#0x1
        JNZ     ??SampleApp_MessageMSGCB_0
        INC     DPTR
        MOVX    A,@DPTR
??SampleApp_MessageMSGCB_0:
        JZ      $+5
        LJMP    ??SampleApp_MessageMSGCB_1 & 0xFFFF
//  377     //pkt->cmd.Data数据数组; pkt->cmd.DataLength 数据长度
//  378     buffer = pkt->cmd.Data;
//  379     recvLen = pkt->cmd.DataLength;
//  380     re_replace_data(buffer, recvLen, outputBuffer, &outputLen); // 还原被替换的特殊数据
        ; Setup parameters for call to function re_replace_data
        MOV     DPL,?XSP + 0
        MOV     DPH,?XSP + 1
        MOV     ?V0 + 0,DPL
        MOV     ?V0 + 1,DPH
        MOV     R0,#?V0 + 0
        LCALL   ?PUSH_XSTACK_I_TWO
        CFI CFA_XSP16 add(XSP16, 45)
        MOV     A,#0x3
        LCALL   ?XSTACK_DISP0_8
        MOV     R4,DPL
        MOV     R5,DPH
        MOV     A,R2
        ADD     A,#0x20
        MOV     DPL,A
        MOV     A,R3
        ADDC    A,#0x0
        MOV     DPH,A
        MOVX    A,@DPTR
        MOV     R1,A
        MOV     A,R2
        ADD     A,#0x22
        MOV     DPL,A
        MOV     A,R3
        ADDC    A,#0x0
        MOV     DPH,A
        MOVX    A,@DPTR
        MOV     R2,A
        INC     DPTR
        MOVX    A,@DPTR
        MOV     R3,A
        LCALL   ??re_replace_data?relay
        MOV     A,#0x2
        LCALL   ?DEALLOC_XSTACK8
        CFI CFA_XSP16 add(XSP16, 43)
//  381     check = check_xor(outputBuffer, outputLen); // 数据校验
        ; Setup parameters for call to function check_xor
        MOV     DPL,?XSP + 0
        MOV     DPH,?XSP + 1
        MOVX    A,@DPTR
        MOV     R1,A
        MOV     A,#0x1
        LCALL   ?XSTACK_DISP0_8
        MOV     R2,DPL
        MOV     R3,DPH
        LCALL   ??check_xor?relay
        MOV     A,R1
        MOV     R0,A
//  382     cmd = outputBuffer[1];  
        MOV     A,#0x2
        LCALL   ?XSTACK_DISP0_8
        MOVX    A,@DPTR
        MOV     R1,A
//  383     
//  384 //协调器接收到终端的无线数据 
//  385 #ifdef ZDO_COORDINATOR
//  386     if(check) {      
//  387       int8 ret = 0;
//  388       if(cmd == ENDDEVICE_NETWORK_READY) { // 终端入网
//  389         uint8 machineId = outputBuffer[4];
//  390         ret = checkEPIsInListByMachineId(LL, machineId);
//  391         if(ret != -1) { // 已经在链表中，更新倒计时
//  392           updateListEleStatus(LL, ret, INIT_LEFT_SEC);       
//  393         } else if(ret == -1) { // 没有在链表中
//  394           ListInsert_L(LL, ListLength_L(LL)+1, outputBuffer[5], outputBuffer[6], &outputBuffer[7], INIT_LEFT_SEC); // 添加一个线性列表元素到链表尾部 
//  395           myprintf("Insert new EP in list\n");
//  396           printAddrInfoHex(outputBuffer+5, 10); // 打印中断的长短地址信息         
//  397         }
//  398         // myprintf("length = %d\n", ListLength_L(LL));      
//  399       } else if(cmd == ENDDEVICE_HEARTBEAT) { // 终端心跳
//  400         uint8 machineId = outputBuffer[4];
//  401         ret = checkEPIsInListByMachineId(LL, machineId);
//  402         if(ret != -1) { // 已经在链表中，更新倒计时
//  403           updateListEleStatus(LL, ret, INIT_LEFT_SEC);
//  404         }
//  405       } else if(cmd == ENDDEVICE_REPLY_RECVED_COIN || cmd == ENDDEVICE_REPORT_GAME_REWARD) { // 将数据转发到树莓派，回复收到投币命令、上报游戏奖励彩票个数
//  406         mySendByteBuf(outputBuffer, outputLen);        
//  407       }          
//  408     } else {
//  409       myprintf("coord recv end_device message check failed\n");
//  410     }
//  411 #endif    
//  412     
//  413 #ifdef END_DEVICE //终端接收数据处理
//  414     if(check) {
        MOV     A,R0
        JZ      ??SampleApp_MessageMSGCB_2
//  415       if(cmd == TO_PAY_COIN) { // 服务器发送的模拟投币动作
        MOV     A,#0x50
        XRL     A,R1
        JNZ     ??SampleApp_MessageMSGCB_3
//  416         NeedCoinDelivered = outputBuffer[4];
        MOV     A,#0x5
        LCALL   ?XSTACK_DISP0_8
        MOVX    A,@DPTR
        MOV     DPTR,#NeedCoinDelivered
        MOVX    @DPTR,A
//  417         COIN_SIMULATE_PIN = 1; // 初始高电平
        SETB    0x90.2
//  418         osal_start_timerEx( SampleApp_TaskID, SAMPLEAPP_SIMULATE_COIN_MSG_EVT, COIN_SIGNAL_HALF_TIME); // 产生定时器事件                
        ; Setup parameters for call to function osal_start_timerEx
        MOV     R4,#0x32
        MOV     R5,#0x0
        MOV     R2,#0x2
        LCALL   ??Subroutine10_0 & 0xFFFF
//  419         
//  420         EndDeviceSendAfMessageByCmd(ENDDEVICE_REPLY_RECVED_COIN); //回复已经收到投币命令
??CrossCallReturnLabel_18:
        ; Setup parameters for call to function EndDeviceSendAfMessageByCmd
        MOV     R1,#-0x7e
        LCALL   ??EndDeviceSendAfMessageByCmd?relay
//  421         myprintf("NeedCoinDelivered = %d\n", NeedCoinDelivered);        
        ; Setup parameters for call to function myprintf
        MOV     DPTR,#NeedCoinDelivered
        MOVX    A,@DPTR
        MOV     ?V0 + 0,A
        RLC     A
        SUBB    A,0xE0 /* A   */
        MOV     ?V0 + 1,A
        MOV     R0,#?V0 + 0
        LCALL   ?PUSH_XSTACK_I_TWO
        CFI CFA_XSP16 add(XSP16, 45)
        MOV     R2,#`?<Constant "NeedCoinDelivered = %d\\n">` & 0xff
        MOV     R3,#(`?<Constant "NeedCoinDelivered = %d\\n">` >> 8) & 0xff
        LCALL   ?Subroutine4 & 0xFFFF
//  422       } else if(cmd == TEST_DISTANCE_FLASH_LED) {
??CrossCallReturnLabel_1:
        LCALL   ?DEALLOC_XSTACK8
        CFI CFA_XSP16 add(XSP16, 43)
        SJMP    ??SampleApp_MessageMSGCB_1
??SampleApp_MessageMSGCB_3:
        MOV     A,#0x51
        XRL     A,R1
        JNZ     ??SampleApp_MessageMSGCB_1
//  423         HalLedBlink(HAL_LED_1, 1, 50, 500);
        ; Setup parameters for call to function HalLedBlink
        MOV     R4,#-0xc
        MOV     R5,#0x1
        MOV     R3,#0x32
        MOV     R2,#0x1
        MOV     R1,#0x1
        LCALL   ??HalLedBlink?relay
        SJMP    ??SampleApp_MessageMSGCB_1
//  424 #ifdef NEED_TEST_DIStANCE
//  425         recvTestMsgCount++;
//  426         HalLcdWriteString("Recv:", HAL_LCD_LINE_5);
//  427         convertHexToStrLCD(recvTestMsgCount, HAL_LCD_LINE_6);
//  428 #endif 
//  429       }    
//  430     } else {
//  431       myprintf("end device check af data failed\n");
??SampleApp_MessageMSGCB_2:
        ; Setup parameters for call to function myprintf
        MOV     R2,#`?<Constant "end device check af d...">` & 0xff
        MOV     R3,#(`?<Constant "end device check af d...">` >> 8) & 0xff
        LCALL   ??myprintf?relay
//  432     }     
//  433 #endif        
//  434   }
//  435 }
??SampleApp_MessageMSGCB_1:
        MOV     A,#0x21
        CFI EndBlock cfiBlock7
        REQUIRE ?Subroutine2
        REQUIRE _A_P1
        ; // Fall through to label ?Subroutine2

        RSEG BANKED_CODE:CODE:NOROOT(0)
?Subroutine2:
        CFI Block cfiBlock8 Using cfiCommon1
        CFI NoFunction
        CFI CFA_SP SP+0
        CFI CFA_XSP16 add(XSP16, 43)
        CFI VB load(1, XDATA, add(CFA_XSP16, literal(-9)))
        CFI DPL0 load(1, XDATA, add(CFA_XSP16, literal(-2)))
        CFI DPH0 load(1, XDATA, add(CFA_XSP16, literal(-1)))
        CFI R6 load(1, XDATA, add(CFA_XSP16, literal(-10)))
        CFI R7 load(1, XDATA, add(CFA_XSP16, literal(-6)))
        CFI V0 load(1, XDATA, add(CFA_XSP16, literal(-8)))
        CFI V1 load(1, XDATA, add(CFA_XSP16, literal(-7)))
        CFI ?BRET_EXT load(1, XDATA, add(CFA_XSP16, literal(-3)))
        CFI ?RET_HIGH load(1, XDATA, add(CFA_XSP16, literal(-4)))
        CFI ?RET_LOW load(1, XDATA, add(CFA_XSP16, literal(-5)))
        CFI Invalid
        LCALL   ?DEALLOC_XSTACK8
        CFI CFA_XSP16 add(XSP16, 10)
        CFI Valid
        MOV     R7,#0x2
        LJMP    ?BANKED_LEAVE_XDATA
        CFI EndBlock cfiBlock8

        RSEG BANKED_CODE:CODE:NOROOT(0)
?Subroutine3:
        CFI Block cfiCond9 Using cfiCommon1
        CFI NoFunction
        CFI Conditional ??CrossCallReturnLabel_13
        CFI R6 load(1, XDATA, add(CFA_XSP16, literal(-12)))
        CFI VB load(1, XDATA, add(CFA_XSP16, literal(-11)))
        CFI V0 load(1, XDATA, add(CFA_XSP16, literal(-10)))
        CFI V1 load(1, XDATA, add(CFA_XSP16, literal(-9)))
        CFI V2 load(1, XDATA, add(CFA_XSP16, literal(-8)))
        CFI V3 load(1, XDATA, add(CFA_XSP16, literal(-7)))
        CFI R7 load(1, XDATA, add(CFA_XSP16, literal(-6)))
        CFI ?RET_LOW load(1, XDATA, add(CFA_XSP16, literal(-5)))
        CFI ?RET_HIGH load(1, XDATA, add(CFA_XSP16, literal(-4)))
        CFI ?BRET_EXT load(1, XDATA, add(CFA_XSP16, literal(-3)))
        CFI DPL0 load(1, XDATA, add(CFA_XSP16, literal(-2)))
        CFI DPH0 load(1, XDATA, add(CFA_XSP16, literal(-1)))
        CFI CFA_SP SP+0
        CFI CFA_XSP16 add(XSP16, 12)
        CFI Block cfiCond10 Using cfiCommon1
        CFI (cfiCond10) NoFunction
        CFI (cfiCond10) Conditional ??CrossCallReturnLabel_14
        CFI (cfiCond10) R6 load(1, XDATA, add(CFA_XSP16, literal(-12)))
        CFI (cfiCond10) VB load(1, XDATA, add(CFA_XSP16, literal(-11)))
        CFI (cfiCond10) V0 load(1, XDATA, add(CFA_XSP16, literal(-10)))
        CFI (cfiCond10) V1 load(1, XDATA, add(CFA_XSP16, literal(-9)))
        CFI (cfiCond10) V2 load(1, XDATA, add(CFA_XSP16, literal(-8)))
        CFI (cfiCond10) V3 load(1, XDATA, add(CFA_XSP16, literal(-7)))
        CFI (cfiCond10) R7 load(1, XDATA, add(CFA_XSP16, literal(-6)))
        CFI (cfiCond10) ?RET_LOW load(1, XDATA, add(CFA_XSP16, literal(-5)))
        CFI (cfiCond10) ?RET_HIGH load(1, XDATA, add(CFA_XSP16, literal(-4)))
        CFI (cfiCond10) ?BRET_EXT load(1, XDATA, add(CFA_XSP16, literal(-3)))
        CFI (cfiCond10) DPL0 load(1, XDATA, add(CFA_XSP16, literal(-2)))
        CFI (cfiCond10) DPH0 load(1, XDATA, add(CFA_XSP16, literal(-1)))
        CFI (cfiCond10) CFA_SP SP+0
        CFI (cfiCond10) CFA_XSP16 add(XSP16, 12)
        CFI Block cfiPicker11 Using cfiCommon0
        CFI (cfiPicker11) NoFunction
        CFI (cfiPicker11) Picker
        MOV     R4,#-0x18
        MOV     R5,#0x3
        CFI EndBlock cfiCond9
        CFI EndBlock cfiCond10
        CFI EndBlock cfiPicker11
        REQUIRE ??Subroutine9_0
        ; // Fall through to label ??Subroutine9_0

        RSEG BANKED_CODE:CODE:NOROOT(0)
??Subroutine9_0:
        CFI Block cfiCond12 Using cfiCommon1
        CFI NoFunction
        CFI Conditional ??CrossCallReturnLabel_15
        CFI R6 load(1, XDATA, add(CFA_XSP16, literal(-12)))
        CFI VB load(1, XDATA, add(CFA_XSP16, literal(-11)))
        CFI V0 load(1, XDATA, add(CFA_XSP16, literal(-10)))
        CFI V1 load(1, XDATA, add(CFA_XSP16, literal(-9)))
        CFI V2 load(1, XDATA, add(CFA_XSP16, literal(-8)))
        CFI V3 load(1, XDATA, add(CFA_XSP16, literal(-7)))
        CFI R7 load(1, XDATA, add(CFA_XSP16, literal(-6)))
        CFI ?RET_LOW load(1, XDATA, add(CFA_XSP16, literal(-5)))
        CFI ?RET_HIGH load(1, XDATA, add(CFA_XSP16, literal(-4)))
        CFI ?BRET_EXT load(1, XDATA, add(CFA_XSP16, literal(-3)))
        CFI DPL0 load(1, XDATA, add(CFA_XSP16, literal(-2)))
        CFI DPH0 load(1, XDATA, add(CFA_XSP16, literal(-1)))
        CFI CFA_SP SP+0
        CFI CFA_XSP16 add(XSP16, 12)
        CFI Block cfiCond13 Using cfiCommon1
        CFI (cfiCond13) NoFunction
        CFI (cfiCond13) Conditional ??CrossCallReturnLabel_13
        CFI (cfiCond13) R6 load(1, XDATA, add(CFA_XSP16, literal(-12)))
        CFI (cfiCond13) VB load(1, XDATA, add(CFA_XSP16, literal(-11)))
        CFI (cfiCond13) V0 load(1, XDATA, add(CFA_XSP16, literal(-10)))
        CFI (cfiCond13) V1 load(1, XDATA, add(CFA_XSP16, literal(-9)))
        CFI (cfiCond13) V2 load(1, XDATA, add(CFA_XSP16, literal(-8)))
        CFI (cfiCond13) V3 load(1, XDATA, add(CFA_XSP16, literal(-7)))
        CFI (cfiCond13) R7 load(1, XDATA, add(CFA_XSP16, literal(-6)))
        CFI (cfiCond13) ?RET_LOW load(1, XDATA, add(CFA_XSP16, literal(-5)))
        CFI (cfiCond13) ?RET_HIGH load(1, XDATA, add(CFA_XSP16, literal(-4)))
        CFI (cfiCond13) ?BRET_EXT load(1, XDATA, add(CFA_XSP16, literal(-3)))
        CFI (cfiCond13) DPL0 load(1, XDATA, add(CFA_XSP16, literal(-2)))
        CFI (cfiCond13) DPH0 load(1, XDATA, add(CFA_XSP16, literal(-1)))
        CFI (cfiCond13) CFA_SP SP+0
        CFI (cfiCond13) CFA_XSP16 add(XSP16, 12)
        CFI Block cfiCond14 Using cfiCommon1
        CFI (cfiCond14) NoFunction
        CFI (cfiCond14) Conditional ??CrossCallReturnLabel_14
        CFI (cfiCond14) R6 load(1, XDATA, add(CFA_XSP16, literal(-12)))
        CFI (cfiCond14) VB load(1, XDATA, add(CFA_XSP16, literal(-11)))
        CFI (cfiCond14) V0 load(1, XDATA, add(CFA_XSP16, literal(-10)))
        CFI (cfiCond14) V1 load(1, XDATA, add(CFA_XSP16, literal(-9)))
        CFI (cfiCond14) V2 load(1, XDATA, add(CFA_XSP16, literal(-8)))
        CFI (cfiCond14) V3 load(1, XDATA, add(CFA_XSP16, literal(-7)))
        CFI (cfiCond14) R7 load(1, XDATA, add(CFA_XSP16, literal(-6)))
        CFI (cfiCond14) ?RET_LOW load(1, XDATA, add(CFA_XSP16, literal(-5)))
        CFI (cfiCond14) ?RET_HIGH load(1, XDATA, add(CFA_XSP16, literal(-4)))
        CFI (cfiCond14) ?BRET_EXT load(1, XDATA, add(CFA_XSP16, literal(-3)))
        CFI (cfiCond14) DPL0 load(1, XDATA, add(CFA_XSP16, literal(-2)))
        CFI (cfiCond14) DPH0 load(1, XDATA, add(CFA_XSP16, literal(-1)))
        CFI (cfiCond14) CFA_SP SP+0
        CFI (cfiCond14) CFA_XSP16 add(XSP16, 12)
        CFI Block cfiPicker15 Using cfiCommon0
        CFI (cfiPicker15) NoFunction
        CFI (cfiPicker15) Picker
        MOV     R2,#0x1
        CFI EndBlock cfiCond12
        CFI EndBlock cfiCond13
        CFI EndBlock cfiCond14
        CFI EndBlock cfiPicker15
        REQUIRE ??Subroutine10_0
        ; // Fall through to label ??Subroutine10_0

        RSEG BANKED_CODE:CODE:NOROOT(0)
??Subroutine10_0:
        CFI Block cfiCond16 Using cfiCommon1
        CFI NoFunction
        CFI Conditional ??CrossCallReturnLabel_16
        CFI R6 load(1, XDATA, add(CFA_XSP16, literal(-12)))
        CFI VB load(1, XDATA, add(CFA_XSP16, literal(-11)))
        CFI V0 load(1, XDATA, add(CFA_XSP16, literal(-10)))
        CFI V1 load(1, XDATA, add(CFA_XSP16, literal(-9)))
        CFI V2 load(1, XDATA, add(CFA_XSP16, literal(-8)))
        CFI V3 load(1, XDATA, add(CFA_XSP16, literal(-7)))
        CFI R7 load(1, XDATA, add(CFA_XSP16, literal(-6)))
        CFI ?RET_LOW load(1, XDATA, add(CFA_XSP16, literal(-5)))
        CFI ?RET_HIGH load(1, XDATA, add(CFA_XSP16, literal(-4)))
        CFI ?BRET_EXT load(1, XDATA, add(CFA_XSP16, literal(-3)))
        CFI DPL0 load(1, XDATA, add(CFA_XSP16, literal(-2)))
        CFI DPH0 load(1, XDATA, add(CFA_XSP16, literal(-1)))
        CFI CFA_SP SP+0
        CFI CFA_XSP16 add(XSP16, 12)
        CFI Block cfiCond17 Using cfiCommon1
        CFI (cfiCond17) NoFunction
        CFI (cfiCond17) Conditional ??CrossCallReturnLabel_17
        CFI (cfiCond17) R6 load(1, XDATA, add(CFA_XSP16, literal(-12)))
        CFI (cfiCond17) VB load(1, XDATA, add(CFA_XSP16, literal(-11)))
        CFI (cfiCond17) V0 load(1, XDATA, add(CFA_XSP16, literal(-10)))
        CFI (cfiCond17) V1 load(1, XDATA, add(CFA_XSP16, literal(-9)))
        CFI (cfiCond17) V2 load(1, XDATA, add(CFA_XSP16, literal(-8)))
        CFI (cfiCond17) V3 load(1, XDATA, add(CFA_XSP16, literal(-7)))
        CFI (cfiCond17) R7 load(1, XDATA, add(CFA_XSP16, literal(-6)))
        CFI (cfiCond17) ?RET_LOW load(1, XDATA, add(CFA_XSP16, literal(-5)))
        CFI (cfiCond17) ?RET_HIGH load(1, XDATA, add(CFA_XSP16, literal(-4)))
        CFI (cfiCond17) ?BRET_EXT load(1, XDATA, add(CFA_XSP16, literal(-3)))
        CFI (cfiCond17) DPL0 load(1, XDATA, add(CFA_XSP16, literal(-2)))
        CFI (cfiCond17) DPH0 load(1, XDATA, add(CFA_XSP16, literal(-1)))
        CFI (cfiCond17) CFA_SP SP+0
        CFI (cfiCond17) CFA_XSP16 add(XSP16, 12)
        CFI Block cfiCond18 Using cfiCommon1
        CFI (cfiCond18) NoFunction
        CFI (cfiCond18) Conditional ??CrossCallReturnLabel_18
        CFI (cfiCond18) R6 load(1, XDATA, add(CFA_XSP16, literal(-10)))
        CFI (cfiCond18) VB load(1, XDATA, add(CFA_XSP16, literal(-9)))
        CFI (cfiCond18) V0 load(1, XDATA, add(CFA_XSP16, literal(-8)))
        CFI (cfiCond18) V1 load(1, XDATA, add(CFA_XSP16, literal(-7)))
        CFI (cfiCond18) R7 load(1, XDATA, add(CFA_XSP16, literal(-6)))
        CFI (cfiCond18) ?RET_LOW load(1, XDATA, add(CFA_XSP16, literal(-5)))
        CFI (cfiCond18) ?RET_HIGH load(1, XDATA, add(CFA_XSP16, literal(-4)))
        CFI (cfiCond18) ?BRET_EXT load(1, XDATA, add(CFA_XSP16, literal(-3)))
        CFI (cfiCond18) DPL0 load(1, XDATA, add(CFA_XSP16, literal(-2)))
        CFI (cfiCond18) DPH0 load(1, XDATA, add(CFA_XSP16, literal(-1)))
        CFI (cfiCond18) CFA_SP SP+0
        CFI (cfiCond18) CFA_XSP16 add(XSP16, 43)
        CFI Block cfiCond19 Using cfiCommon1
        CFI (cfiCond19) NoFunction
        CFI (cfiCond19) Conditional ??CrossCallReturnLabel_15
        CFI (cfiCond19) R6 load(1, XDATA, add(CFA_XSP16, literal(-12)))
        CFI (cfiCond19) VB load(1, XDATA, add(CFA_XSP16, literal(-11)))
        CFI (cfiCond19) V0 load(1, XDATA, add(CFA_XSP16, literal(-10)))
        CFI (cfiCond19) V1 load(1, XDATA, add(CFA_XSP16, literal(-9)))
        CFI (cfiCond19) V2 load(1, XDATA, add(CFA_XSP16, literal(-8)))
        CFI (cfiCond19) V3 load(1, XDATA, add(CFA_XSP16, literal(-7)))
        CFI (cfiCond19) R7 load(1, XDATA, add(CFA_XSP16, literal(-6)))
        CFI (cfiCond19) ?RET_LOW load(1, XDATA, add(CFA_XSP16, literal(-5)))
        CFI (cfiCond19) ?RET_HIGH load(1, XDATA, add(CFA_XSP16, literal(-4)))
        CFI (cfiCond19) ?BRET_EXT load(1, XDATA, add(CFA_XSP16, literal(-3)))
        CFI (cfiCond19) DPL0 load(1, XDATA, add(CFA_XSP16, literal(-2)))
        CFI (cfiCond19) DPH0 load(1, XDATA, add(CFA_XSP16, literal(-1)))
        CFI (cfiCond19) CFA_SP SP+0
        CFI (cfiCond19) CFA_XSP16 add(XSP16, 12)
        CFI Block cfiCond20 Using cfiCommon1
        CFI (cfiCond20) NoFunction
        CFI (cfiCond20) Conditional ??CrossCallReturnLabel_13
        CFI (cfiCond20) R6 load(1, XDATA, add(CFA_XSP16, literal(-12)))
        CFI (cfiCond20) VB load(1, XDATA, add(CFA_XSP16, literal(-11)))
        CFI (cfiCond20) V0 load(1, XDATA, add(CFA_XSP16, literal(-10)))
        CFI (cfiCond20) V1 load(1, XDATA, add(CFA_XSP16, literal(-9)))
        CFI (cfiCond20) V2 load(1, XDATA, add(CFA_XSP16, literal(-8)))
        CFI (cfiCond20) V3 load(1, XDATA, add(CFA_XSP16, literal(-7)))
        CFI (cfiCond20) R7 load(1, XDATA, add(CFA_XSP16, literal(-6)))
        CFI (cfiCond20) ?RET_LOW load(1, XDATA, add(CFA_XSP16, literal(-5)))
        CFI (cfiCond20) ?RET_HIGH load(1, XDATA, add(CFA_XSP16, literal(-4)))
        CFI (cfiCond20) ?BRET_EXT load(1, XDATA, add(CFA_XSP16, literal(-3)))
        CFI (cfiCond20) DPL0 load(1, XDATA, add(CFA_XSP16, literal(-2)))
        CFI (cfiCond20) DPH0 load(1, XDATA, add(CFA_XSP16, literal(-1)))
        CFI (cfiCond20) CFA_SP SP+0
        CFI (cfiCond20) CFA_XSP16 add(XSP16, 12)
        CFI Block cfiCond21 Using cfiCommon1
        CFI (cfiCond21) NoFunction
        CFI (cfiCond21) Conditional ??CrossCallReturnLabel_14
        CFI (cfiCond21) R6 load(1, XDATA, add(CFA_XSP16, literal(-12)))
        CFI (cfiCond21) VB load(1, XDATA, add(CFA_XSP16, literal(-11)))
        CFI (cfiCond21) V0 load(1, XDATA, add(CFA_XSP16, literal(-10)))
        CFI (cfiCond21) V1 load(1, XDATA, add(CFA_XSP16, literal(-9)))
        CFI (cfiCond21) V2 load(1, XDATA, add(CFA_XSP16, literal(-8)))
        CFI (cfiCond21) V3 load(1, XDATA, add(CFA_XSP16, literal(-7)))
        CFI (cfiCond21) R7 load(1, XDATA, add(CFA_XSP16, literal(-6)))
        CFI (cfiCond21) ?RET_LOW load(1, XDATA, add(CFA_XSP16, literal(-5)))
        CFI (cfiCond21) ?RET_HIGH load(1, XDATA, add(CFA_XSP16, literal(-4)))
        CFI (cfiCond21) ?BRET_EXT load(1, XDATA, add(CFA_XSP16, literal(-3)))
        CFI (cfiCond21) DPL0 load(1, XDATA, add(CFA_XSP16, literal(-2)))
        CFI (cfiCond21) DPH0 load(1, XDATA, add(CFA_XSP16, literal(-1)))
        CFI (cfiCond21) CFA_SP SP+0
        CFI (cfiCond21) CFA_XSP16 add(XSP16, 12)
        CFI Block cfiPicker22 Using cfiCommon0
        CFI (cfiPicker22) NoFunction
        CFI (cfiPicker22) Picker
        MOV     R3,#0x0
        MOV     DPTR,#SampleApp_TaskID
        MOVX    A,@DPTR
        MOV     R1,A
        LCALL   ??osal_start_timerEx?relay
        RET
        CFI EndBlock cfiCond16
        CFI EndBlock cfiCond17
        CFI EndBlock cfiCond18
        CFI EndBlock cfiCond19
        CFI EndBlock cfiCond20
        CFI EndBlock cfiCond21
        CFI EndBlock cfiPicker22
//  436 
//  437 /**
//  438   协调器心跳功能函数
//  439 */
//  440 #ifdef NEED_TEST_DIStANCE
//  441   uint16 totalSendTestCount = 0;
//  442   uint16 sendTestCount = 0;
//  443 #endif  

        RSEG BANKED_CODE:CODE:NOROOT(0)
//  444 void SampleApp_SendHeartBeatMessageCoor(void) {  
SampleApp_SendHeartBeatMessageCoor:
        CFI Block cfiBlock23 Using cfiCommon1
        CFI Function SampleApp_SendHeartBeatMessageCoor
        CODE
        FUNCALL SampleApp_SendHeartBeatMessageCoor, decAllListEPLeftSec
        LOCFRAME ISTACK, 2, STACK
        LOCFRAME PSTACK, 0, STACK
        LOCFRAME XSTACK, 0, STACK
        LOCFRAME IOVERLAY, 0, STATIC
        LOCFRAME DOVERLAY, 0, STATIC
        ARGFRAME ISTACK, 2, STACK
        ARGFRAME PSTACK, 0, STACK
        ARGFRAME XSTACK, 0, STACK
        ARGFRAME IOVERLAY, 0, STATIC
        ARGFRAME DOVERLAY, 0, STATIC
        FUNCALL SampleApp_SendHeartBeatMessageCoor, HalLedBlink
        LOCFRAME ISTACK, 2, STACK
        LOCFRAME PSTACK, 0, STACK
        LOCFRAME XSTACK, 0, STACK
        LOCFRAME IOVERLAY, 0, STATIC
        LOCFRAME DOVERLAY, 0, STATIC
        ARGFRAME ISTACK, 2, STACK
        ARGFRAME PSTACK, 0, STACK
        ARGFRAME XSTACK, 0, STACK
        ARGFRAME IOVERLAY, 0, STATIC
        ARGFRAME DOVERLAY, 0, STATIC
        PUSH    DPL
        CFI DPL0 Frame(CFA_SP, 4)
        CFI CFA_SP SP+-4
        PUSH    DPH
        CFI DPH0 Frame(CFA_SP, 5)
        CFI CFA_SP SP+-5
        ; Saved register size: 2
        ; Auto size: 0
//  445   // 将终端列表中元素在线时长减1，如果检测到超时则将IEEE发送到上位机
//  446   decAllListEPLeftSec(LL); 
        ; Setup parameters for call to function decAllListEPLeftSec
        MOV     DPTR,#LL
        MOVX    A,@DPTR
        MOV     R2,A
        INC     DPTR
        MOVX    A,@DPTR
        MOV     R3,A
        LCALL   ??decAllListEPLeftSec?relay
//  447   HalLedBlink(HAL_LED_1, 1, 50, 500);
        ; Setup parameters for call to function HalLedBlink
        MOV     R4,#-0xc
        MOV     R5,#0x1
        MOV     R3,#0x32
        MOV     R2,#0x1
        MOV     R1,#0x1
        LCALL   ??HalLedBlink?relay
//  448 #ifdef NEED_TEST_DIStANCE  
//  449   // 发送稳定性测试数据到终端设备
//  450   totalSendTestCount++;
//  451   if(totalSendTestCount % 3 == 0) {
//  452     SampleApp_SendPeriodicMessage(1);
//  453     myprintf("sendTestCount = %d\n", totalSendTestCount); // 串口打印发送的次数
//  454   }
//  455 #endif  
//  456 }
        POP     DPH
        CFI DPH0 SameValue
        CFI CFA_SP SP+-4
        POP     DPL
        CFI DPL0 SameValue
        CFI CFA_SP SP+-3
        LJMP    ?BRET
        CFI EndBlock cfiBlock23
//  457 
//  458 /**
//  459   终端心跳函数，用于定时向协调器发送心跳，包含本终端机器编号
//  460 */

        RSEG BANKED_CODE:CODE:NOROOT(0)
//  461 void EndDeviceSendHeartBeat(void) {
EndDeviceSendHeartBeat:
        CFI Block cfiBlock24 Using cfiCommon1
        CFI Function EndDeviceSendHeartBeat
        CODE
        FUNCALL EndDeviceSendHeartBeat, EndDeviceSendAfMessageByCmd
        LOCFRAME ISTACK, 0, STACK
        LOCFRAME PSTACK, 0, STACK
        LOCFRAME XSTACK, 12, STACK
        LOCFRAME IOVERLAY, 0, STATIC
        LOCFRAME DOVERLAY, 0, STATIC
        ARGFRAME ISTACK, 0, STACK
        ARGFRAME PSTACK, 0, STACK
        ARGFRAME XSTACK, 12, STACK
        ARGFRAME IOVERLAY, 0, STATIC
        ARGFRAME DOVERLAY, 0, STATIC
        FUNCALL EndDeviceSendHeartBeat, osal_getClock
        LOCFRAME ISTACK, 0, STACK
        LOCFRAME PSTACK, 0, STACK
        LOCFRAME XSTACK, 12, STACK
        LOCFRAME IOVERLAY, 0, STATIC
        LOCFRAME DOVERLAY, 0, STATIC
        ARGFRAME ISTACK, 0, STACK
        ARGFRAME PSTACK, 0, STACK
        ARGFRAME XSTACK, 12, STACK
        ARGFRAME IOVERLAY, 0, STATIC
        ARGFRAME DOVERLAY, 0, STATIC
        FUNCALL EndDeviceSendHeartBeat, EndDeviceSendAfMessageByCmd
        LOCFRAME ISTACK, 0, STACK
        LOCFRAME PSTACK, 0, STACK
        LOCFRAME XSTACK, 12, STACK
        LOCFRAME IOVERLAY, 0, STATIC
        LOCFRAME DOVERLAY, 0, STATIC
        ARGFRAME ISTACK, 0, STACK
        ARGFRAME PSTACK, 0, STACK
        ARGFRAME XSTACK, 12, STACK
        ARGFRAME IOVERLAY, 0, STATIC
        ARGFRAME DOVERLAY, 0, STATIC
        FUNCALL EndDeviceSendHeartBeat, myprintf
        LOCFRAME ISTACK, 0, STACK
        LOCFRAME PSTACK, 0, STACK
        LOCFRAME XSTACK, 14, STACK
        LOCFRAME IOVERLAY, 0, STATIC
        LOCFRAME DOVERLAY, 0, STATIC
        ARGFRAME ISTACK, 0, STACK
        ARGFRAME PSTACK, 0, STACK
        ARGFRAME XSTACK, 14, STACK
        ARGFRAME IOVERLAY, 0, STATIC
        ARGFRAME DOVERLAY, 0, STATIC
        MOV     A,#-0xc
        LCALL   ?BANKED_ENTER_XDATA
        CFI DPH0 load(1, XDATA, add(CFA_XSP16, literal(-1)))
        CFI DPL0 load(1, XDATA, add(CFA_XSP16, literal(-2)))
        CFI ?BRET_EXT load(1, XDATA, add(CFA_XSP16, literal(-3)))
        CFI ?RET_HIGH load(1, XDATA, add(CFA_XSP16, literal(-4)))
        CFI ?RET_LOW load(1, XDATA, add(CFA_XSP16, literal(-5)))
        CFI R7 load(1, XDATA, add(CFA_XSP16, literal(-6)))
        CFI V3 load(1, XDATA, add(CFA_XSP16, literal(-7)))
        CFI V2 load(1, XDATA, add(CFA_XSP16, literal(-8)))
        CFI V1 load(1, XDATA, add(CFA_XSP16, literal(-9)))
        CFI V0 load(1, XDATA, add(CFA_XSP16, literal(-10)))
        CFI VB load(1, XDATA, add(CFA_XSP16, literal(-11)))
        CFI R6 load(1, XDATA, add(CFA_XSP16, literal(-12)))
        CFI CFA_SP SP+0
        CFI CFA_XSP16 add(XSP16, 12)
        ; Saved register size: 12
        ; Auto size: 0
//  462   EndDeviceSendAfMessageByCmd(ENDDEVICE_HEARTBEAT);
        ; Setup parameters for call to function EndDeviceSendAfMessageByCmd
        MOV     R1,#-0x7f
        LCALL   ??EndDeviceSendAfMessageByCmd?relay
//  463   
//  464   if(startRewardInterrupt == 1 && (osal_getClock() - lastRecvRewardSecTime) >= 2) { // 如果触发了奖励中断，且奖励结束距离当前时间大于指定时间则认为是一次奖励结束
        MOV     DPTR,#startRewardInterrupt
        MOVX    A,@DPTR
        XRL     A,#0x1
        JNZ     ??EndDeviceSendHeartBeat_0
        ; Setup parameters for call to function osal_getClock
        LCALL   ??osal_getClock?relay
        MOV     ?V0 + 0,R2
        MOV     ?V0 + 1,R3
        MOV     ?V0 + 2,R4
        MOV     ?V0 + 3,R5
        MOV     DPTR,#lastRecvRewardSecTime
        MOV     R0,#?V0 + 0
        LCALL   ?L_SUB_X
        MOV     DPTR,#__Constant_2
        MOV     R0,#?V0 + 0
        LCALL   ?UL_GE_X
        JNC     ??EndDeviceSendHeartBeat_0
//  465     if(rewardCount == 0) {
        MOV     DPTR,#rewardCount
        MOVX    A,@DPTR
        JNZ     ??EndDeviceSendHeartBeat_1
//  466       startRewardInterrupt = 0;
        MOV     DPTR,#startRewardInterrupt
        CLR     A
        SJMP    ??EndDeviceSendHeartBeat_2
//  467       return;
//  468     }    
//  469     EndDeviceSendAfMessageByCmd(ENDDEVICE_REPORT_GAME_REWARD); // 发送奖励彩票个数到协调器
??EndDeviceSendHeartBeat_1:
        ; Setup parameters for call to function EndDeviceSendAfMessageByCmd
        MOV     R1,#-0x7d
        LCALL   ??EndDeviceSendAfMessageByCmd?relay
//  470     myprintf("Upload reward result count, rewardCount = %d\n", rewardCount);    
        ; Setup parameters for call to function myprintf
        MOV     DPTR,#rewardCount
        LCALL   ?Subroutine7 & 0xFFFF
??CrossCallReturnLabel_9:
        LCALL   ?PUSH_XSTACK_I_TWO
        CFI CFA_XSP16 add(XSP16, 14)
        MOV     R2,#`?<Constant "Upload reward result ...">` & 0xff
        MOV     R3,#(`?<Constant "Upload reward result ...">` >> 8) & 0xff
        LCALL   ?Subroutine4 & 0xFFFF
??CrossCallReturnLabel_2:
        LCALL   ?DEALLOC_XSTACK8
        CFI CFA_XSP16 add(XSP16, 12)
//  471     rewardCount = 0; // 置0
        MOV     DPTR,#rewardCount
        CLR     A
        MOVX    @DPTR,A
//  472     startRewardInterrupt = 0;    
        MOV     DPTR,#startRewardInterrupt
??EndDeviceSendHeartBeat_2:
        MOVX    @DPTR,A
//  473   }
??EndDeviceSendHeartBeat_0:
        LJMP    ?Subroutine1 & 0xFFFF
        CFI EndBlock cfiBlock24
//  474 }

        RSEG BANKED_CODE:CODE:NOROOT(0)
?Subroutine4:
        CFI Block cfiCond25 Using cfiCommon1
        CFI NoFunction
        CFI Conditional ??CrossCallReturnLabel_0
        CFI R6 load(1, XDATA, add(CFA_XSP16, literal(-12)))
        CFI VB load(1, XDATA, add(CFA_XSP16, literal(-11)))
        CFI V0 load(1, XDATA, add(CFA_XSP16, literal(-10)))
        CFI V1 load(1, XDATA, add(CFA_XSP16, literal(-9)))
        CFI V2 load(1, XDATA, add(CFA_XSP16, literal(-8)))
        CFI V3 load(1, XDATA, add(CFA_XSP16, literal(-7)))
        CFI R7 load(1, XDATA, add(CFA_XSP16, literal(-6)))
        CFI ?RET_LOW load(1, XDATA, add(CFA_XSP16, literal(-5)))
        CFI ?RET_HIGH load(1, XDATA, add(CFA_XSP16, literal(-4)))
        CFI ?BRET_EXT load(1, XDATA, add(CFA_XSP16, literal(-3)))
        CFI DPL0 load(1, XDATA, add(CFA_XSP16, literal(-2)))
        CFI DPH0 load(1, XDATA, add(CFA_XSP16, literal(-1)))
        CFI CFA_SP SP+0
        CFI CFA_XSP16 add(XSP16, 14)
        CFI Block cfiCond26 Using cfiCommon1
        CFI (cfiCond26) NoFunction
        CFI (cfiCond26) Conditional ??CrossCallReturnLabel_1
        CFI (cfiCond26) R6 load(1, XDATA, add(CFA_XSP16, literal(-10)))
        CFI (cfiCond26) VB load(1, XDATA, add(CFA_XSP16, literal(-9)))
        CFI (cfiCond26) V0 load(1, XDATA, add(CFA_XSP16, literal(-8)))
        CFI (cfiCond26) V1 load(1, XDATA, add(CFA_XSP16, literal(-7)))
        CFI (cfiCond26) R7 load(1, XDATA, add(CFA_XSP16, literal(-6)))
        CFI (cfiCond26) ?RET_LOW load(1, XDATA, add(CFA_XSP16, literal(-5)))
        CFI (cfiCond26) ?RET_HIGH load(1, XDATA, add(CFA_XSP16, literal(-4)))
        CFI (cfiCond26) ?BRET_EXT load(1, XDATA, add(CFA_XSP16, literal(-3)))
        CFI (cfiCond26) DPL0 load(1, XDATA, add(CFA_XSP16, literal(-2)))
        CFI (cfiCond26) DPH0 load(1, XDATA, add(CFA_XSP16, literal(-1)))
        CFI (cfiCond26) CFA_SP SP+0
        CFI (cfiCond26) CFA_XSP16 add(XSP16, 45)
        CFI Block cfiCond27 Using cfiCommon1
        CFI (cfiCond27) NoFunction
        CFI (cfiCond27) Conditional ??CrossCallReturnLabel_2
        CFI (cfiCond27) R6 load(1, XDATA, add(CFA_XSP16, literal(-12)))
        CFI (cfiCond27) VB load(1, XDATA, add(CFA_XSP16, literal(-11)))
        CFI (cfiCond27) V0 load(1, XDATA, add(CFA_XSP16, literal(-10)))
        CFI (cfiCond27) V1 load(1, XDATA, add(CFA_XSP16, literal(-9)))
        CFI (cfiCond27) V2 load(1, XDATA, add(CFA_XSP16, literal(-8)))
        CFI (cfiCond27) V3 load(1, XDATA, add(CFA_XSP16, literal(-7)))
        CFI (cfiCond27) R7 load(1, XDATA, add(CFA_XSP16, literal(-6)))
        CFI (cfiCond27) ?RET_LOW load(1, XDATA, add(CFA_XSP16, literal(-5)))
        CFI (cfiCond27) ?RET_HIGH load(1, XDATA, add(CFA_XSP16, literal(-4)))
        CFI (cfiCond27) ?BRET_EXT load(1, XDATA, add(CFA_XSP16, literal(-3)))
        CFI (cfiCond27) DPL0 load(1, XDATA, add(CFA_XSP16, literal(-2)))
        CFI (cfiCond27) DPH0 load(1, XDATA, add(CFA_XSP16, literal(-1)))
        CFI (cfiCond27) CFA_SP SP+0
        CFI (cfiCond27) CFA_XSP16 add(XSP16, 14)
        CFI Block cfiCond28 Using cfiCommon1
        CFI (cfiCond28) NoFunction
        CFI (cfiCond28) Conditional ??CrossCallReturnLabel_3
        CFI (cfiCond28) R6 load(1, XDATA, add(CFA_XSP16, literal(-11)))
        CFI (cfiCond28) VB load(1, XDATA, add(CFA_XSP16, literal(-10)))
        CFI (cfiCond28) V0 load(1, XDATA, add(CFA_XSP16, literal(-9)))
        CFI (cfiCond28) V1 load(1, XDATA, add(CFA_XSP16, literal(-8)))
        CFI (cfiCond28) V2 load(1, XDATA, add(CFA_XSP16, literal(-7)))
        CFI (cfiCond28) R7 load(1, XDATA, add(CFA_XSP16, literal(-6)))
        CFI (cfiCond28) ?RET_LOW load(1, XDATA, add(CFA_XSP16, literal(-5)))
        CFI (cfiCond28) ?RET_HIGH load(1, XDATA, add(CFA_XSP16, literal(-4)))
        CFI (cfiCond28) ?BRET_EXT load(1, XDATA, add(CFA_XSP16, literal(-3)))
        CFI (cfiCond28) DPL0 load(1, XDATA, add(CFA_XSP16, literal(-2)))
        CFI (cfiCond28) DPH0 load(1, XDATA, add(CFA_XSP16, literal(-1)))
        CFI (cfiCond28) CFA_SP SP+0
        CFI (cfiCond28) CFA_XSP16 add(XSP16, 78)
        CFI Block cfiCond29 Using cfiCommon1
        CFI (cfiCond29) NoFunction
        CFI (cfiCond29) Conditional ??CrossCallReturnLabel_4
        CFI (cfiCond29) R6 load(1, XDATA, add(CFA_XSP16, literal(-13)))
        CFI (cfiCond29) VB load(1, XDATA, add(CFA_XSP16, literal(-12)))
        CFI (cfiCond29) V0 load(1, XDATA, add(CFA_XSP16, literal(-11)))
        CFI (cfiCond29) V1 load(1, XDATA, add(CFA_XSP16, literal(-10)))
        CFI (cfiCond29) V2 load(1, XDATA, add(CFA_XSP16, literal(-9)))
        CFI (cfiCond29) V3 load(1, XDATA, add(CFA_XSP16, literal(-8)))
        CFI (cfiCond29) V4 load(1, XDATA, add(CFA_XSP16, literal(-7)))
        CFI (cfiCond29) R7 load(1, XDATA, add(CFA_XSP16, literal(-6)))
        CFI (cfiCond29) ?RET_LOW load(1, XDATA, add(CFA_XSP16, literal(-5)))
        CFI (cfiCond29) ?RET_HIGH load(1, XDATA, add(CFA_XSP16, literal(-4)))
        CFI (cfiCond29) ?BRET_EXT load(1, XDATA, add(CFA_XSP16, literal(-3)))
        CFI (cfiCond29) DPL0 load(1, XDATA, add(CFA_XSP16, literal(-2)))
        CFI (cfiCond29) DPH0 load(1, XDATA, add(CFA_XSP16, literal(-1)))
        CFI (cfiCond29) CFA_SP SP+0
        CFI (cfiCond29) CFA_XSP16 add(XSP16, 15)
        CFI Block cfiPicker30 Using cfiCommon0
        CFI (cfiPicker30) NoFunction
        CFI (cfiPicker30) Picker
        LCALL   ??myprintf?relay
        MOV     A,#0x2
        RET
        CFI EndBlock cfiCond25
        CFI EndBlock cfiCond26
        CFI EndBlock cfiCond27
        CFI EndBlock cfiCond28
        CFI EndBlock cfiCond29
        CFI EndBlock cfiPicker30
//  475 
//  476 /**
//  477   终端用于发送各种信息到协调器
//  478 */

        RSEG BANKED_CODE:CODE:NOROOT(0)
//  479 void EndDeviceSendAfMessageByCmd(uint8 cmd) {
EndDeviceSendAfMessageByCmd:
        CFI Block cfiBlock31 Using cfiCommon1
        CFI Function EndDeviceSendAfMessageByCmd
        CODE
        FUNCALL EndDeviceSendAfMessageByCmd, NLME_GetShortAddr
        LOCFRAME ISTACK, 0, STACK
        LOCFRAME PSTACK, 0, STACK
        LOCFRAME XSTACK, 76, STACK
        LOCFRAME IOVERLAY, 0, STATIC
        LOCFRAME DOVERLAY, 0, STATIC
        ARGFRAME ISTACK, 0, STACK
        ARGFRAME PSTACK, 0, STACK
        ARGFRAME XSTACK, 76, STACK
        ARGFRAME IOVERLAY, 0, STATIC
        ARGFRAME DOVERLAY, 0, STATIC
        FUNCALL EndDeviceSendAfMessageByCmd, NLME_GetExtAddr
        LOCFRAME ISTACK, 0, STACK
        LOCFRAME PSTACK, 0, STACK
        LOCFRAME XSTACK, 76, STACK
        LOCFRAME IOVERLAY, 0, STATIC
        LOCFRAME DOVERLAY, 0, STATIC
        ARGFRAME ISTACK, 0, STACK
        ARGFRAME PSTACK, 0, STACK
        ARGFRAME XSTACK, 76, STACK
        ARGFRAME IOVERLAY, 0, STATIC
        ARGFRAME DOVERLAY, 0, STATIC
        FUNCALL EndDeviceSendAfMessageByCmd, osal_memcpy
        LOCFRAME ISTACK, 0, STACK
        LOCFRAME PSTACK, 0, STACK
        LOCFRAME XSTACK, 79, STACK
        LOCFRAME IOVERLAY, 0, STATIC
        LOCFRAME DOVERLAY, 0, STATIC
        ARGFRAME ISTACK, 0, STACK
        ARGFRAME PSTACK, 0, STACK
        ARGFRAME XSTACK, 79, STACK
        ARGFRAME IOVERLAY, 0, STATIC
        ARGFRAME DOVERLAY, 0, STATIC
        FUNCALL EndDeviceSendAfMessageByCmd, encodeData
        LOCFRAME ISTACK, 0, STACK
        LOCFRAME PSTACK, 0, STACK
        LOCFRAME XSTACK, 80, STACK
        LOCFRAME IOVERLAY, 0, STATIC
        LOCFRAME DOVERLAY, 0, STATIC
        ARGFRAME ISTACK, 0, STACK
        ARGFRAME PSTACK, 0, STACK
        ARGFRAME XSTACK, 80, STACK
        ARGFRAME IOVERLAY, 0, STATIC
        ARGFRAME DOVERLAY, 0, STATIC
        FUNCALL EndDeviceSendAfMessageByCmd, AF_DataRequest
        LOCFRAME ISTACK, 0, STACK
        LOCFRAME PSTACK, 0, STACK
        LOCFRAME XSTACK, 85, STACK
        LOCFRAME IOVERLAY, 0, STATIC
        LOCFRAME DOVERLAY, 0, STATIC
        ARGFRAME ISTACK, 0, STACK
        ARGFRAME PSTACK, 0, STACK
        ARGFRAME XSTACK, 85, STACK
        ARGFRAME IOVERLAY, 0, STATIC
        ARGFRAME DOVERLAY, 0, STATIC
        FUNCALL EndDeviceSendAfMessageByCmd, myprintf
        LOCFRAME ISTACK, 0, STACK
        LOCFRAME PSTACK, 0, STACK
        LOCFRAME XSTACK, 78, STACK
        LOCFRAME IOVERLAY, 0, STATIC
        LOCFRAME DOVERLAY, 0, STATIC
        ARGFRAME ISTACK, 0, STACK
        ARGFRAME PSTACK, 0, STACK
        ARGFRAME XSTACK, 78, STACK
        ARGFRAME IOVERLAY, 0, STATIC
        ARGFRAME DOVERLAY, 0, STATIC
        MOV     A,#-0xb
        LCALL   ?BANKED_ENTER_XDATA
        CFI DPH0 load(1, XDATA, add(CFA_XSP16, literal(-1)))
        CFI DPL0 load(1, XDATA, add(CFA_XSP16, literal(-2)))
        CFI ?BRET_EXT load(1, XDATA, add(CFA_XSP16, literal(-3)))
        CFI ?RET_HIGH load(1, XDATA, add(CFA_XSP16, literal(-4)))
        CFI ?RET_LOW load(1, XDATA, add(CFA_XSP16, literal(-5)))
        CFI R7 load(1, XDATA, add(CFA_XSP16, literal(-6)))
        CFI V2 load(1, XDATA, add(CFA_XSP16, literal(-7)))
        CFI V1 load(1, XDATA, add(CFA_XSP16, literal(-8)))
        CFI V0 load(1, XDATA, add(CFA_XSP16, literal(-9)))
        CFI VB load(1, XDATA, add(CFA_XSP16, literal(-10)))
        CFI R6 load(1, XDATA, add(CFA_XSP16, literal(-11)))
        CFI CFA_SP SP+0
        CFI CFA_XSP16 add(XSP16, 11)
        ; Saved register size: 11
        ; Auto size: 65
        MOV     A,#-0x41
        LCALL   ?ALLOC_XSTACK8
        CFI CFA_XSP16 add(XSP16, 76)
        MOV     A,R1
        MOV     R6,A
//  480   uint8 strBuf[SEND_BUF_SIZE] = {0};
        MOV     A,#0x1
        LCALL   ?XSTACK_DISP0_8
        MOV     R4,DPL
        MOV     R5,DPH
        MOV     DPH,#(`?<Constant {0}>_1` >> 8) & 0xff
        MOV     DPL,#`?<Constant {0}>_1` & 0xff
        MOV     A,#0x20
        LCALL   ?MOVE_LONG8_XDATA_XDATA
//  481   uint8 strBufLen = 0;
        MOV     R1,A
//  482   uint8 outputBuf[SEND_BUF_SIZE] = {0};
        MOV     DPH,#(`?<Constant {0}>_2` >> 8) & 0xff
        MOV     DPL,#`?<Constant {0}>_2` & 0xff
        MOV     A,#0x20
        LCALL   ?MOVE_LONG8_XDATA_XDATA
//  483   uint8 outputBufLen = 0;
        MOV     DPL,?XSP + 0
        MOV     DPH,?XSP + 1
        MOVX    @DPTR,A
//  484   
//  485   if(cmd == ENDDEVICE_NETWORK_READY) {
        MOV     A,#-0x80
        XRL     A,R6
        JNZ     ??EndDeviceSendAfMessageByCmd_0
//  486     uint16 shortAddr = NLME_GetShortAddr(); // 获取自身网络设备地址，获取父设备网络地址：uint16 NLME_GetCoordShortAddr( void );  
        ; Setup parameters for call to function NLME_GetShortAddr
        LCALL   ??NLME_GetShortAddr?relay
//  487     strBuf[0] = MACHINE_ID; // 此终端编号
        MOV     A,#0x1
        LCALL   ?XSTACK_DISP0_8
        MOV     A,#0x1
        MOVX    @DPTR,A
//  488     strBuf[1] = HI_UINT16(shortAddr); // 存放地址的高8位
        INC     A
        LCALL   ?XSTACK_DISP0_8
        MOV     A,R3
        MOVX    @DPTR,A
//  489     strBuf[2] = LO_UINT16(shortAddr); // 存放低8位
        MOV     A,#0x3
        LCALL   ?XSTACK_DISP0_8
        MOV     A,R2
        MOVX    @DPTR,A
//  490     osal_memcpy(&strBuf[3], NLME_GetExtAddr(), 8); // 复制IEEE地址  
        ; Setup parameters for call to function osal_memcpy
        ; Setup parameters for call to function NLME_GetExtAddr
        LCALL   ??NLME_GetExtAddr?relay
        MOV     ?V0 + 0,R2
        MOV     ?V0 + 1,R3
        MOV     ?V0 + 2,#0x0
        MOV     R0,#?V0 + 0
        LCALL   ?PUSH_XSTACK_I_THREE
        CFI CFA_XSP16 add(XSP16, 79)
        MOV     R4,#0x8
        MOV     R5,#0x0
        MOV     A,#0x7
        LCALL   ?XSTACK_DISP0_8
        MOV     R2,DPL
        MOV     R3,DPH
        LCALL   ??osal_memcpy?relay
        MOV     A,#0x3
        LCALL   ?DEALLOC_XSTACK8
        CFI CFA_XSP16 add(XSP16, 76)
//  491     strBufLen = 11;
        MOV     R1,#0xb
        SJMP    ??EndDeviceSendAfMessageByCmd_1
//  492   } else if(cmd == ENDDEVICE_HEARTBEAT) {
??EndDeviceSendAfMessageByCmd_0:
        MOV     A,#-0x7f
        XRL     A,R6
        JNZ     ??EndDeviceSendAfMessageByCmd_2
//  493     strBuf[0] = MACHINE_ID; // 此终端编号
??EndDeviceSendAfMessageByCmd_3:
        MOV     A,#0x1
        LCALL   ?XSTACK_DISP0_8
        MOV     A,#0x1
        MOVX    @DPTR,A
//  494     strBufLen = 1;
        SJMP    ??EndDeviceSendAfMessageByCmd_4
//  495   } else if(cmd == ENDDEVICE_REPLY_RECVED_COIN) { // 终端设备回复已经收到金币
??EndDeviceSendAfMessageByCmd_2:
        MOV     A,#-0x7e
        XRL     A,R6
        JZ      ??EndDeviceSendAfMessageByCmd_3
//  496     strBuf[0] = MACHINE_ID; // 此终端编号
//  497     strBufLen = 1;
//  498   } else if(cmd == ENDDEVICE_REPORT_GAME_REWARD) { // 终端上传奖励彩票个数
        MOV     A,#-0x7d
        XRL     A,R6
        JNZ     ??EndDeviceSendAfMessageByCmd_1
//  499     strBuf[0] = MACHINE_ID; // 此终端编号
        MOV     A,#0x1
        LCALL   ?XSTACK_DISP0_8
        MOV     A,#0x1
        MOVX    @DPTR,A
//  500     strBuf[1] = rewardCount;
        MOV     DPTR,#rewardCount
        MOVX    A,@DPTR
        PUSH    A
        CFI CFA_SP SP+-1
        MOV     A,#0x2
        LCALL   ?XSTACK_DISP0_8
        POP     A
        CFI CFA_SP SP+0
        MOVX    @DPTR,A
//  501     strBufLen = 2;
        INC     R1
??EndDeviceSendAfMessageByCmd_4:
        INC     R1
//  502   }
//  503 
//  504   // 进行数据协议封装
//  505   encodeData(cmd, strBuf, strBufLen, outputBuf, &outputBufLen);
??EndDeviceSendAfMessageByCmd_1:
        ; Setup parameters for call to function encodeData
        MOV     DPL,?XSP + 0
        MOV     DPH,?XSP + 1
        MOV     ?V0 + 0,DPL
        MOV     ?V0 + 1,DPH
        MOV     R0,#?V0 + 0
        LCALL   ?PUSH_XSTACK_I_TWO
        CFI CFA_XSP16 add(XSP16, 78)
        MOV     A,#0x23
        LCALL   ?XSTACK_DISP0_8
        MOV     ?V0 + 0,DPL
        MOV     ?V0 + 1,DPH
        MOV     R0,#?V0 + 0
        LCALL   ?PUSH_XSTACK_I_TWO
        CFI CFA_XSP16 add(XSP16, 80)
        MOV     A,R1
        MOV     R4,A
        MOV     A,#0x5
        LCALL   ?XSTACK_DISP0_8
        MOV     R2,DPL
        MOV     R3,DPH
        MOV     A,R6
        MOV     R1,A
        LCALL   ??encodeData?relay
        MOV     A,#0x4
        LCALL   ?DEALLOC_XSTACK8
        CFI CFA_XSP16 add(XSP16, 76)
//  506   if ( AF_DataRequest( &SampleApp_TxAddr,                  // 发送的目的地址+端点地址+传送模式
//  507                       (endPointDesc_t *)&SampleApp_epDesc, // 源终端的描述
//  508                       SAMPLEAPP_PERIODIC_CLUSTERID,        // 被profile指定的有效的集群号
//  509                       outputBufLen,                                  // 发送数据长度
//  510                       outputBuf,                              // 发送数据缓冲区
//  511                       &SampleApp_TransID,                  // 消息发送ID
//  512                       AF_DISCV_ROUTE,                      // 有效位掩码的发送选项
//  513                       AF_DEFAULT_RADIUS ) != afStatus_SUCCESS ) // 传送跳数，通常设置为AF_DEFAULT_RADIUS
        ; Setup parameters for call to function AF_DataRequest
        MOV     ?V0 + 0,#0x1e
        MOV     R0,#?V0 + 0
        LCALL   ?PUSH_XSTACK_I_ONE
        CFI CFA_XSP16 add(XSP16, 77)
        MOV     ?V0 + 0,#SampleApp_TransID & 0xff
        MOV     ?V0 + 1,#(SampleApp_TransID >> 8) & 0xff
        MOV     R0,#?V0 + 0
        LCALL   ?PUSH_XSTACK_I_TWO
        CFI CFA_XSP16 add(XSP16, 79)
        MOV     A,#0x24
        LCALL   ?XSTACK_DISP0_8
        MOV     ?V0 + 0,DPL
        MOV     ?V0 + 1,DPH
        MOV     R0,#?V0 + 0
        LCALL   ?PUSH_XSTACK_I_TWO
        CFI CFA_XSP16 add(XSP16, 81)
        MOV     A,#0x5
        LCALL   ?XSTACK_DISP0_8
        LCALL   ?Subroutine7 & 0xFFFF
??CrossCallReturnLabel_10:
        LCALL   ?PUSH_XSTACK_I_TWO
        CFI CFA_XSP16 add(XSP16, 83)
        MOV     ?V0 + 0,#0x1
        MOV     R0,#?V0 + 0
        LCALL   ?PUSH_XSTACK_I_TWO
        CFI CFA_XSP16 add(XSP16, 85)
        MOV     R1,#0x20
        MOV     R4,#SampleApp_epDesc & 0xff
        MOV     R5,#(SampleApp_epDesc >> 8) & 0xff
        MOV     R2,#SampleApp_TxAddr & 0xff
        MOV     R3,#(SampleApp_TxAddr >> 8) & 0xff
        LCALL   ??AF_DataRequest?relay
        MOV     A,#0x9
        LCALL   ?DEALLOC_XSTACK8
        CFI CFA_XSP16 add(XSP16, 76)
        MOV     A,R1
        JZ      ??EndDeviceSendAfMessageByCmd_5
//  514   {
//  515     myprintf("send cmd = 0x%x failed\n", cmd); 
        ; Setup parameters for call to function myprintf
        MOV     ?V0 + 0,R6
        MOV     R0,#?V0 + 0
        LCALL   ?PUSH_XSTACK_I_TWO
        CFI CFA_XSP16 add(XSP16, 78)
        MOV     R2,#`?<Constant "send cmd = 0x%x failed\\n">` & 0xff
        MOV     R3,#(`?<Constant "send cmd = 0x%x failed\\n">` >> 8) & 0xff
        LCALL   ?Subroutine4 & 0xFFFF
//  516   }
??CrossCallReturnLabel_3:
        LCALL   ?DEALLOC_XSTACK8
        CFI CFA_XSP16 add(XSP16, 76)
//  517 }
??EndDeviceSendAfMessageByCmd_5:
        MOV     A,#0x41
        CFI EndBlock cfiBlock31
        REQUIRE ?Subroutine0
        ; // Fall through to label ?Subroutine0

        RSEG BANKED_CODE:CODE:NOROOT(0)
?Subroutine0:
        CFI Block cfiBlock32 Using cfiCommon1
        CFI NoFunction
        CFI CFA_SP SP+0
        CFI CFA_XSP16 add(XSP16, 76)
        CFI VB load(1, XDATA, add(CFA_XSP16, literal(-10)))
        CFI DPL0 load(1, XDATA, add(CFA_XSP16, literal(-2)))
        CFI DPH0 load(1, XDATA, add(CFA_XSP16, literal(-1)))
        CFI R6 load(1, XDATA, add(CFA_XSP16, literal(-11)))
        CFI R7 load(1, XDATA, add(CFA_XSP16, literal(-6)))
        CFI V0 load(1, XDATA, add(CFA_XSP16, literal(-9)))
        CFI V1 load(1, XDATA, add(CFA_XSP16, literal(-8)))
        CFI V2 load(1, XDATA, add(CFA_XSP16, literal(-7)))
        CFI ?BRET_EXT load(1, XDATA, add(CFA_XSP16, literal(-3)))
        CFI ?RET_HIGH load(1, XDATA, add(CFA_XSP16, literal(-4)))
        CFI ?RET_LOW load(1, XDATA, add(CFA_XSP16, literal(-5)))
        CFI Invalid
        LCALL   ?DEALLOC_XSTACK8
        CFI EndBlock cfiBlock32
        REQUIRE ??Subroutine11_0
        ; // Fall through to label ??Subroutine11_0

        RSEG BANKED_CODE:CODE:NOROOT(0)
??Subroutine11_0:
        CFI Block cfiBlock33 Using cfiCommon1
        CFI NoFunction
        CFI CFA_SP SP+0
        CFI CFA_XSP16 add(XSP16, 11)
        CFI VB load(1, XDATA, add(CFA_XSP16, literal(-10)))
        CFI DPL0 load(1, XDATA, add(CFA_XSP16, literal(-2)))
        CFI DPH0 load(1, XDATA, add(CFA_XSP16, literal(-1)))
        CFI R6 load(1, XDATA, add(CFA_XSP16, literal(-11)))
        CFI R7 load(1, XDATA, add(CFA_XSP16, literal(-6)))
        CFI V0 load(1, XDATA, add(CFA_XSP16, literal(-9)))
        CFI V1 load(1, XDATA, add(CFA_XSP16, literal(-8)))
        CFI V2 load(1, XDATA, add(CFA_XSP16, literal(-7)))
        CFI ?BRET_EXT load(1, XDATA, add(CFA_XSP16, literal(-3)))
        CFI ?RET_HIGH load(1, XDATA, add(CFA_XSP16, literal(-4)))
        CFI ?RET_LOW load(1, XDATA, add(CFA_XSP16, literal(-5)))
        MOV     R7,#0x3
        LJMP    ?BANKED_LEAVE_XDATA
        CFI EndBlock cfiBlock33

        RSEG BANKED_CODE:CODE:NOROOT(0)
?Subroutine7:
        CFI Block cfiCond34 Using cfiCommon1
        CFI NoFunction
        CFI Conditional ??CrossCallReturnLabel_9
        CFI R6 load(1, XDATA, add(CFA_XSP16, literal(-12)))
        CFI VB load(1, XDATA, add(CFA_XSP16, literal(-11)))
        CFI V0 load(1, XDATA, add(CFA_XSP16, literal(-10)))
        CFI V1 load(1, XDATA, add(CFA_XSP16, literal(-9)))
        CFI V2 load(1, XDATA, add(CFA_XSP16, literal(-8)))
        CFI V3 load(1, XDATA, add(CFA_XSP16, literal(-7)))
        CFI R7 load(1, XDATA, add(CFA_XSP16, literal(-6)))
        CFI ?RET_LOW load(1, XDATA, add(CFA_XSP16, literal(-5)))
        CFI ?RET_HIGH load(1, XDATA, add(CFA_XSP16, literal(-4)))
        CFI ?BRET_EXT load(1, XDATA, add(CFA_XSP16, literal(-3)))
        CFI DPL0 load(1, XDATA, add(CFA_XSP16, literal(-2)))
        CFI DPH0 load(1, XDATA, add(CFA_XSP16, literal(-1)))
        CFI CFA_SP SP+0
        CFI CFA_XSP16 add(XSP16, 12)
        CFI Block cfiCond35 Using cfiCommon1
        CFI (cfiCond35) NoFunction
        CFI (cfiCond35) Conditional ??CrossCallReturnLabel_10
        CFI (cfiCond35) R6 load(1, XDATA, add(CFA_XSP16, literal(-11)))
        CFI (cfiCond35) VB load(1, XDATA, add(CFA_XSP16, literal(-10)))
        CFI (cfiCond35) V0 load(1, XDATA, add(CFA_XSP16, literal(-9)))
        CFI (cfiCond35) V1 load(1, XDATA, add(CFA_XSP16, literal(-8)))
        CFI (cfiCond35) V2 load(1, XDATA, add(CFA_XSP16, literal(-7)))
        CFI (cfiCond35) R7 load(1, XDATA, add(CFA_XSP16, literal(-6)))
        CFI (cfiCond35) ?RET_LOW load(1, XDATA, add(CFA_XSP16, literal(-5)))
        CFI (cfiCond35) ?RET_HIGH load(1, XDATA, add(CFA_XSP16, literal(-4)))
        CFI (cfiCond35) ?BRET_EXT load(1, XDATA, add(CFA_XSP16, literal(-3)))
        CFI (cfiCond35) DPL0 load(1, XDATA, add(CFA_XSP16, literal(-2)))
        CFI (cfiCond35) DPH0 load(1, XDATA, add(CFA_XSP16, literal(-1)))
        CFI (cfiCond35) CFA_SP SP+0
        CFI (cfiCond35) CFA_XSP16 add(XSP16, 81)
        CFI Block cfiPicker36 Using cfiCommon0
        CFI (cfiPicker36) NoFunction
        CFI (cfiPicker36) Picker
        MOVX    A,@DPTR
        MOV     ?V0 + 0,A
        MOV     ?V0 + 1,#0x0
        MOV     R0,#?V0 + 0
        RET
        CFI EndBlock cfiCond34
        CFI EndBlock cfiCond35
        CFI EndBlock cfiPicker36
//  518 
//  519 /**
//  520   协调器打印终端上传的长短地址
//  521 */

        RSEG BANKED_CODE:CODE:NOROOT(0)
//  522 void printAddrInfoHex(uint8* buf, uint8 dataLen) {
printAddrInfoHex:
        CFI Block cfiBlock37 Using cfiCommon1
        CFI Function printAddrInfoHex
        CODE
        FUNCALL printAddrInfoHex, myprintf
        LOCFRAME ISTACK, 0, STACK
        LOCFRAME PSTACK, 0, STACK
        LOCFRAME XSTACK, 13, STACK
        LOCFRAME IOVERLAY, 0, STATIC
        LOCFRAME DOVERLAY, 0, STATIC
        ARGFRAME ISTACK, 0, STACK
        ARGFRAME PSTACK, 0, STACK
        ARGFRAME XSTACK, 13, STACK
        ARGFRAME IOVERLAY, 0, STATIC
        ARGFRAME DOVERLAY, 0, STATIC
        FUNCALL printAddrInfoHex, myprintf
        LOCFRAME ISTACK, 0, STACK
        LOCFRAME PSTACK, 0, STACK
        LOCFRAME XSTACK, 13, STACK
        LOCFRAME IOVERLAY, 0, STATIC
        LOCFRAME DOVERLAY, 0, STATIC
        ARGFRAME ISTACK, 0, STACK
        ARGFRAME PSTACK, 0, STACK
        ARGFRAME XSTACK, 13, STACK
        ARGFRAME IOVERLAY, 0, STATIC
        ARGFRAME DOVERLAY, 0, STATIC
        FUNCALL printAddrInfoHex, myprintf
        LOCFRAME ISTACK, 0, STACK
        LOCFRAME PSTACK, 0, STACK
        LOCFRAME XSTACK, 15, STACK
        LOCFRAME IOVERLAY, 0, STATIC
        LOCFRAME DOVERLAY, 0, STATIC
        ARGFRAME ISTACK, 0, STACK
        ARGFRAME PSTACK, 0, STACK
        ARGFRAME XSTACK, 15, STACK
        ARGFRAME IOVERLAY, 0, STATIC
        ARGFRAME DOVERLAY, 0, STATIC
        FUNCALL printAddrInfoHex, myprintf
        LOCFRAME ISTACK, 0, STACK
        LOCFRAME PSTACK, 0, STACK
        LOCFRAME XSTACK, 13, STACK
        LOCFRAME IOVERLAY, 0, STATIC
        LOCFRAME DOVERLAY, 0, STATIC
        ARGFRAME ISTACK, 0, STACK
        ARGFRAME PSTACK, 0, STACK
        ARGFRAME XSTACK, 13, STACK
        ARGFRAME IOVERLAY, 0, STATIC
        ARGFRAME DOVERLAY, 0, STATIC
        MOV     A,#-0xd
        LCALL   ?BANKED_ENTER_XDATA
        CFI DPH0 load(1, XDATA, add(CFA_XSP16, literal(-1)))
        CFI DPL0 load(1, XDATA, add(CFA_XSP16, literal(-2)))
        CFI ?BRET_EXT load(1, XDATA, add(CFA_XSP16, literal(-3)))
        CFI ?RET_HIGH load(1, XDATA, add(CFA_XSP16, literal(-4)))
        CFI ?RET_LOW load(1, XDATA, add(CFA_XSP16, literal(-5)))
        CFI R7 load(1, XDATA, add(CFA_XSP16, literal(-6)))
        CFI V4 load(1, XDATA, add(CFA_XSP16, literal(-7)))
        CFI V3 load(1, XDATA, add(CFA_XSP16, literal(-8)))
        CFI V2 load(1, XDATA, add(CFA_XSP16, literal(-9)))
        CFI V1 load(1, XDATA, add(CFA_XSP16, literal(-10)))
        CFI V0 load(1, XDATA, add(CFA_XSP16, literal(-11)))
        CFI VB load(1, XDATA, add(CFA_XSP16, literal(-12)))
        CFI R6 load(1, XDATA, add(CFA_XSP16, literal(-13)))
        CFI CFA_SP SP+0
        CFI CFA_XSP16 add(XSP16, 13)
        ; Saved register size: 13
        ; Auto size: 0
        MOV     A,R2
        MOV     R6,A
        MOV     A,R3
        MOV     R7,A
        MOV     ?V0 + 4,R1
//  523   int i = 0;
//  524   
//  525   myprintf("\n");
        ; Setup parameters for call to function myprintf
        MOV     R2,#`?<Constant "\\n">` & 0xff
        MOV     R3,#(`?<Constant "\\n">` >> 8) & 0xff
        LCALL   ??myprintf?relay
//  526   for(i = 0; i < dataLen; i++) {
        MOV     ?V0 + 0,#0x0
        MOV     ?V0 + 1,#0x0
        SJMP    ??printAddrInfoHex_0
//  527     if(i == 2) {
??printAddrInfoHex_1:
        MOV     A,#0x2
        XRL     A,?V0 + 0
        JNZ     ??printAddrInfoHex_2
        MOV     A,?V0 + 1
??printAddrInfoHex_2:
        JNZ     ??printAddrInfoHex_3
//  528       myprintf("; IEEE = ");
        ; Setup parameters for call to function myprintf
        MOV     R2,#`?<Constant "; IEEE = ">` & 0xff
        MOV     R3,#(`?<Constant "; IEEE = ">` >> 8) & 0xff
        LCALL   ??myprintf?relay
//  529     }
//  530     myprintf("0x%x,", buf[i]);
??printAddrInfoHex_3:
        ; Setup parameters for call to function myprintf
        MOV     A,R6
        ADD     A,?V0 + 0
        MOV     DPL,A
        MOV     A,R7
        ADDC    A,?V0 + 1
        MOV     DPH,A
        LCALL   ?Subroutine6 & 0xFFFF
//  531   }
??CrossCallReturnLabel_8:
        LCALL   ?PUSH_XSTACK_I_TWO
        CFI CFA_XSP16 add(XSP16, 15)
        MOV     R2,#`?<Constant "0x%x,">` & 0xff
        MOV     R3,#(`?<Constant "0x%x,">` >> 8) & 0xff
        LCALL   ?Subroutine4 & 0xFFFF
??CrossCallReturnLabel_4:
        LCALL   ?DEALLOC_XSTACK8
        CFI CFA_XSP16 add(XSP16, 13)
        MOV     A,?V0 + 0
        ADD     A,#0x1
        MOV     ?V0 + 0,A
        MOV     A,?V0 + 1
        ADDC    A,#0x0
        MOV     ?V0 + 1,A
??printAddrInfoHex_0:
        MOV     ?V0 + 2,?V0 + 4
        CLR     C
        MOV     A,?V0 + 0
        SUBB    A,?V0 + 2
        MOV     A,?V0 + 1
        SUBB    A,#0x0
        MOV     C,0xD0 /* PSW */.2
        XRL     A,PSW
        RLC     A
        JC      ??printAddrInfoHex_1
//  532   myprintf("\n");
        ; Setup parameters for call to function myprintf
        MOV     R2,#`?<Constant "\\n">` & 0xff
        MOV     R3,#(`?<Constant "\\n">` >> 8) & 0xff
        LCALL   ??myprintf?relay
//  533 }
        MOV     R7,#0x5
        LJMP    ?BANKED_LEAVE_XDATA
        CFI EndBlock cfiBlock37

        RSEG BANKED_CODE:CODE:NOROOT(0)
?Subroutine6:
        CFI Block cfiCond38 Using cfiCommon1
        CFI NoFunction
        CFI Conditional ??CrossCallReturnLabel_7
        CFI R6 load(1, XDATA, add(CFA_XSP16, literal(-12)))
        CFI VB load(1, XDATA, add(CFA_XSP16, literal(-11)))
        CFI V0 load(1, XDATA, add(CFA_XSP16, literal(-10)))
        CFI V1 load(1, XDATA, add(CFA_XSP16, literal(-9)))
        CFI V2 load(1, XDATA, add(CFA_XSP16, literal(-8)))
        CFI V3 load(1, XDATA, add(CFA_XSP16, literal(-7)))
        CFI R7 load(1, XDATA, add(CFA_XSP16, literal(-6)))
        CFI ?RET_LOW load(1, XDATA, add(CFA_XSP16, literal(-5)))
        CFI ?RET_HIGH load(1, XDATA, add(CFA_XSP16, literal(-4)))
        CFI ?BRET_EXT load(1, XDATA, add(CFA_XSP16, literal(-3)))
        CFI DPL0 load(1, XDATA, add(CFA_XSP16, literal(-2)))
        CFI DPH0 load(1, XDATA, add(CFA_XSP16, literal(-1)))
        CFI CFA_SP SP+0
        CFI CFA_XSP16 add(XSP16, 12)
        CFI Block cfiCond39 Using cfiCommon1
        CFI (cfiCond39) NoFunction
        CFI (cfiCond39) Conditional ??CrossCallReturnLabel_8
        CFI (cfiCond39) R6 load(1, XDATA, add(CFA_XSP16, literal(-13)))
        CFI (cfiCond39) VB load(1, XDATA, add(CFA_XSP16, literal(-12)))
        CFI (cfiCond39) V0 load(1, XDATA, add(CFA_XSP16, literal(-11)))
        CFI (cfiCond39) V1 load(1, XDATA, add(CFA_XSP16, literal(-10)))
        CFI (cfiCond39) V2 load(1, XDATA, add(CFA_XSP16, literal(-9)))
        CFI (cfiCond39) V3 load(1, XDATA, add(CFA_XSP16, literal(-8)))
        CFI (cfiCond39) V4 load(1, XDATA, add(CFA_XSP16, literal(-7)))
        CFI (cfiCond39) R7 load(1, XDATA, add(CFA_XSP16, literal(-6)))
        CFI (cfiCond39) ?RET_LOW load(1, XDATA, add(CFA_XSP16, literal(-5)))
        CFI (cfiCond39) ?RET_HIGH load(1, XDATA, add(CFA_XSP16, literal(-4)))
        CFI (cfiCond39) ?BRET_EXT load(1, XDATA, add(CFA_XSP16, literal(-3)))
        CFI (cfiCond39) DPL0 load(1, XDATA, add(CFA_XSP16, literal(-2)))
        CFI (cfiCond39) DPH0 load(1, XDATA, add(CFA_XSP16, literal(-1)))
        CFI (cfiCond39) CFA_SP SP+0
        CFI (cfiCond39) CFA_XSP16 add(XSP16, 13)
        CFI Block cfiPicker40 Using cfiCommon0
        CFI (cfiPicker40) NoFunction
        CFI (cfiPicker40) Picker
        MOVX    A,@DPTR
        MOV     ?V0 + 2,A
        MOV     ?V0 + 3,#0x0
        MOV     R0,#?V0 + 2
        RET
        CFI EndBlock cfiCond38
        CFI EndBlock cfiCond39
        CFI EndBlock cfiPicker40
//  534 
//  535 /**
//  536   将十六进制数转变成字符
//  537 */

        RSEG BANKED_CODE:CODE:NOROOT(0)
//  538 void convertHexToStrLCD(uint16 addr, uint8 lcdLineNum) {
convertHexToStrLCD:
        CFI Block cfiBlock41 Using cfiCommon1
        CFI Function convertHexToStrLCD
        CODE
        FUNCALL convertHexToStrLCD, HalLcdWriteString
        LOCFRAME ISTACK, 0, STACK
        LOCFRAME PSTACK, 0, STACK
        LOCFRAME XSTACK, 18, STACK
        LOCFRAME IOVERLAY, 0, STATIC
        LOCFRAME DOVERLAY, 0, STATIC
        ARGFRAME ISTACK, 0, STACK
        ARGFRAME PSTACK, 0, STACK
        ARGFRAME XSTACK, 18, STACK
        ARGFRAME IOVERLAY, 0, STATIC
        ARGFRAME DOVERLAY, 0, STATIC
        MOV     A,#-0xb
        LCALL   ?BANKED_ENTER_XDATA
        CFI DPH0 load(1, XDATA, add(CFA_XSP16, literal(-1)))
        CFI DPL0 load(1, XDATA, add(CFA_XSP16, literal(-2)))
        CFI ?BRET_EXT load(1, XDATA, add(CFA_XSP16, literal(-3)))
        CFI ?RET_HIGH load(1, XDATA, add(CFA_XSP16, literal(-4)))
        CFI ?RET_LOW load(1, XDATA, add(CFA_XSP16, literal(-5)))
        CFI R7 load(1, XDATA, add(CFA_XSP16, literal(-6)))
        CFI V2 load(1, XDATA, add(CFA_XSP16, literal(-7)))
        CFI V1 load(1, XDATA, add(CFA_XSP16, literal(-8)))
        CFI V0 load(1, XDATA, add(CFA_XSP16, literal(-9)))
        CFI VB load(1, XDATA, add(CFA_XSP16, literal(-10)))
        CFI R6 load(1, XDATA, add(CFA_XSP16, literal(-11)))
        CFI CFA_SP SP+0
        CFI CFA_XSP16 add(XSP16, 11)
        ; Saved register size: 11
        ; Auto size: 7
        MOV     A,#-0x7
        LCALL   ?ALLOC_XSTACK8
        CFI CFA_XSP16 add(XSP16, 18)
        MOV     A,#0x5
        LCALL   ?XSTACK_DISP0_8
        MOV     A,R2
        MOVX    @DPTR,A
        INC     DPTR
        MOV     A,R3
        MOVX    @DPTR,A
        MOV     A,R1
        MOV     R6,A
//  539   uint8 i;
//  540   uint8 *xad;
//  541   uint8 lcd_buf[2*2+1];
//  542 
//  543   // Display the extended address.
//  544   xad = (uint8*)&addr + 2 - 1;
        MOV     R0,DPL
        MOV     R1,DPH
//  545 
//  546   for (i = 0; i < 2*2; xad--)
        MOV     R4,#0x0
//  547   {
//  548     uint8 ch;
//  549     ch = (*xad >> 4) & 0x0F;
??convertHexToStrLCD_0:
        MOV     DPL,R0
        MOV     DPH,R1
        MOVX    A,@DPTR
        SWAP    A
        ANL     A,#0xf
        MOV     R5,A
//  550     lcd_buf[i++] = ch + (( ch < 10 ) ? '0' : '7'); // +7可以转变成大写字符ABCDEF
        MOV     A,R4
        MOV     R7,A
        INC     R4
        MOV     A,R5
        CLR     C
        SUBB    A,#0xa
        JNC     ??convertHexToStrLCD_1
        MOV     R2,#0x30
        SJMP    ??convertHexToStrLCD_2
??convertHexToStrLCD_1:
        MOV     R2,#0x37
??convertHexToStrLCD_2:
        MOV     A,R2
        ADD     A,R5
        PUSH    A
        CFI CFA_SP SP+-1
        MOV     ?V0 + 0,R7
        LCALL   ?Subroutine8 & 0xFFFF
??CrossCallReturnLabel_11:
        POP     A
        CFI CFA_SP SP+0
        MOVX    @DPTR,A
//  551     ch = *xad & 0x0F;
        MOV     DPL,R0
        MOV     DPH,R1
        MOVX    A,@DPTR
        ANL     A,#0xf
        MOV     R5,A
//  552     lcd_buf[i++] = ch + (( ch < 10 ) ? '0' : '7');
        MOV     ?V0 + 2,R4
        INC     R4
        CLR     C
        SUBB    A,#0xa
        JNC     ??convertHexToStrLCD_3
        MOV     R2,#0x30
        SJMP    ??convertHexToStrLCD_4
??convertHexToStrLCD_3:
        MOV     R2,#0x37
??convertHexToStrLCD_4:
        MOV     A,R2
        ADD     A,R5
        PUSH    A
        CFI CFA_SP SP+-1
        MOV     ?V0 + 0,?V0 + 2
        LCALL   ?Subroutine8 & 0xFFFF
//  553   }
??CrossCallReturnLabel_12:
        POP     A
        CFI CFA_SP SP+0
        MOVX    @DPTR,A
        MOV     A,R0
        ADD     A,#-0x1
        DEC     R0
        MOV     A,R1
        ADDC    A,#-0x1
        MOV     R1,A
        MOV     A,R4
        CLR     C
        SUBB    A,#0x4
        JC      ??convertHexToStrLCD_0
//  554   lcd_buf[2*2] = '\0';
        MOV     A,#0x4
        LCALL   ?XSTACK_DISP0_8
        CLR     A
        MOVX    @DPTR,A
//  555   HalLcdWriteString( (char*)lcd_buf, lcdLineNum);
        ; Setup parameters for call to function HalLcdWriteString
        MOV     A,R6
        MOV     R1,A
        MOV     DPL,?XSP + 0
        MOV     DPH,?XSP + 1
        MOV     R2,DPL
        MOV     R3,DPH
        LCALL   ??HalLcdWriteString?relay
//  556 }
        MOV     A,#0x7
        LJMP    ?Subroutine0 & 0xFFFF
        CFI EndBlock cfiBlock41

        RSEG BANKED_CODE:CODE:NOROOT(0)
?Subroutine8:
        CFI Block cfiCond42 Using cfiCommon1
        CFI NoFunction
        CFI Conditional ??CrossCallReturnLabel_11
        CFI R6 load(1, XDATA, add(CFA_XSP16, literal(-11)))
        CFI VB load(1, XDATA, add(CFA_XSP16, literal(-10)))
        CFI V0 load(1, XDATA, add(CFA_XSP16, literal(-9)))
        CFI V1 load(1, XDATA, add(CFA_XSP16, literal(-8)))
        CFI V2 load(1, XDATA, add(CFA_XSP16, literal(-7)))
        CFI R7 load(1, XDATA, add(CFA_XSP16, literal(-6)))
        CFI ?RET_LOW load(1, XDATA, add(CFA_XSP16, literal(-5)))
        CFI ?RET_HIGH load(1, XDATA, add(CFA_XSP16, literal(-4)))
        CFI ?BRET_EXT load(1, XDATA, add(CFA_XSP16, literal(-3)))
        CFI DPL0 load(1, XDATA, add(CFA_XSP16, literal(-2)))
        CFI DPH0 load(1, XDATA, add(CFA_XSP16, literal(-1)))
        CFI CFA_SP SP+-1
        CFI CFA_XSP16 add(XSP16, 18)
        CFI Block cfiCond43 Using cfiCommon1
        CFI (cfiCond43) NoFunction
        CFI (cfiCond43) Conditional ??CrossCallReturnLabel_12
        CFI (cfiCond43) R6 load(1, XDATA, add(CFA_XSP16, literal(-11)))
        CFI (cfiCond43) VB load(1, XDATA, add(CFA_XSP16, literal(-10)))
        CFI (cfiCond43) V0 load(1, XDATA, add(CFA_XSP16, literal(-9)))
        CFI (cfiCond43) V1 load(1, XDATA, add(CFA_XSP16, literal(-8)))
        CFI (cfiCond43) V2 load(1, XDATA, add(CFA_XSP16, literal(-7)))
        CFI (cfiCond43) R7 load(1, XDATA, add(CFA_XSP16, literal(-6)))
        CFI (cfiCond43) ?RET_LOW load(1, XDATA, add(CFA_XSP16, literal(-5)))
        CFI (cfiCond43) ?RET_HIGH load(1, XDATA, add(CFA_XSP16, literal(-4)))
        CFI (cfiCond43) ?BRET_EXT load(1, XDATA, add(CFA_XSP16, literal(-3)))
        CFI (cfiCond43) DPL0 load(1, XDATA, add(CFA_XSP16, literal(-2)))
        CFI (cfiCond43) DPH0 load(1, XDATA, add(CFA_XSP16, literal(-1)))
        CFI (cfiCond43) CFA_SP SP+-1
        CFI (cfiCond43) CFA_XSP16 add(XSP16, 18)
        CFI Block cfiPicker44 Using cfiCommon0
        CFI (cfiPicker44) NoFunction
        CFI (cfiPicker44) Picker
        MOV     DPL,?XSP + 0
        MOV     DPH,?XSP + 1
        MOV     A,DPL
        ADD     A,?V0 + 0
        MOV     DPL,A
        MOV     A,DPH
        ADDC    A,#0x0
        MOV     DPH,A
        RET
        CFI EndBlock cfiCond42
        CFI EndBlock cfiCond43
        CFI EndBlock cfiPicker44
//  557 
//  558 /**
//  559 * 协调器向终端发送广播类型消息
//  560 */

        RSEG BANKED_CODE:CODE:NOROOT(0)
//  561 void SampleApp_SendPeriodicMessage( int8 key )
SampleApp_SendPeriodicMessage:
        CFI Block cfiBlock45 Using cfiCommon1
        CFI Function SampleApp_SendPeriodicMessage
        CODE
//  562 {
        FUNCALL SampleApp_SendPeriodicMessage, AF_DataRequest
        LOCFRAME ISTACK, 0, STACK
        LOCFRAME PSTACK, 0, STACK
        LOCFRAME XSTACK, 23, STACK
        LOCFRAME IOVERLAY, 0, STATIC
        LOCFRAME DOVERLAY, 0, STATIC
        ARGFRAME ISTACK, 0, STACK
        ARGFRAME PSTACK, 0, STACK
        ARGFRAME XSTACK, 23, STACK
        ARGFRAME IOVERLAY, 0, STATIC
        ARGFRAME DOVERLAY, 0, STATIC
        FUNCALL SampleApp_SendPeriodicMessage, HalLedBlink
        LOCFRAME ISTACK, 0, STACK
        LOCFRAME PSTACK, 0, STACK
        LOCFRAME XSTACK, 14, STACK
        LOCFRAME IOVERLAY, 0, STATIC
        LOCFRAME DOVERLAY, 0, STATIC
        ARGFRAME ISTACK, 0, STACK
        ARGFRAME PSTACK, 0, STACK
        ARGFRAME XSTACK, 14, STACK
        ARGFRAME IOVERLAY, 0, STATIC
        ARGFRAME DOVERLAY, 0, STATIC
        FUNCALL SampleApp_SendPeriodicMessage, myprintf
        LOCFRAME ISTACK, 0, STACK
        LOCFRAME PSTACK, 0, STACK
        LOCFRAME XSTACK, 14, STACK
        LOCFRAME IOVERLAY, 0, STATIC
        LOCFRAME DOVERLAY, 0, STATIC
        ARGFRAME ISTACK, 0, STACK
        ARGFRAME PSTACK, 0, STACK
        ARGFRAME XSTACK, 14, STACK
        ARGFRAME IOVERLAY, 0, STATIC
        ARGFRAME DOVERLAY, 0, STATIC
        MOV     A,#-0xa
        LCALL   ?BANKED_ENTER_XDATA
        CFI DPH0 load(1, XDATA, add(CFA_XSP16, literal(-1)))
        CFI DPL0 load(1, XDATA, add(CFA_XSP16, literal(-2)))
        CFI ?BRET_EXT load(1, XDATA, add(CFA_XSP16, literal(-3)))
        CFI ?RET_HIGH load(1, XDATA, add(CFA_XSP16, literal(-4)))
        CFI ?RET_LOW load(1, XDATA, add(CFA_XSP16, literal(-5)))
        CFI R7 load(1, XDATA, add(CFA_XSP16, literal(-6)))
        CFI V1 load(1, XDATA, add(CFA_XSP16, literal(-7)))
        CFI V0 load(1, XDATA, add(CFA_XSP16, literal(-8)))
        CFI VB load(1, XDATA, add(CFA_XSP16, literal(-9)))
        CFI R6 load(1, XDATA, add(CFA_XSP16, literal(-10)))
        CFI CFA_SP SP+0
        CFI CFA_XSP16 add(XSP16, 10)
        ; Saved register size: 10
        ; Auto size: 4
        MOV     A,#-0x4
        LCALL   ?ALLOC_XSTACK8
        CFI CFA_XSP16 add(XSP16, 14)
        MOV     A,R1
        MOV     R6,A
//  563   if(key == 1) { // 按键S1
        MOV     A,#0x1
        XRL     A,R6
        JNZ     ??SampleApp_SendPeriodicMessage_0
//  564     uint8 sendKeyS1Buf[4] = {'#', 0x31, 0, '@'};
        MOV     DPL,?XSP + 0
        MOV     DPH,?XSP + 1
        MOV     R4,DPL
        MOV     R5,DPH
        MOV     DPH,#(`?<Constant {35, 49, 0, 64}>` >> 8) & 0xff
        MOV     DPL,#`?<Constant {35, 49, 0, 64}>` & 0xff
        MOV     A,#0x4
        LCALL   ?MOVE_LONG8_XDATA_XDATA
//  565     
//  566     if ( AF_DataRequest( &SampleApp_Periodic_DstAddr, &SampleApp_epDesc,
//  567                         SAMPLEAPP_PERIODIC_CLUSTERID,
//  568                         4,
//  569                         sendKeyS1Buf,
//  570                         &SampleApp_TransID,
//  571                         AF_DISCV_ROUTE,
//  572                         AF_DEFAULT_RADIUS ) == afStatus_SUCCESS )
        ; Setup parameters for call to function AF_DataRequest
        MOV     ?V0 + 0,#0x1e
        MOV     R0,#?V0 + 0
        LCALL   ?PUSH_XSTACK_I_ONE
        CFI CFA_XSP16 add(XSP16, 15)
        MOV     ?V0 + 0,#SampleApp_TransID & 0xff
        MOV     ?V0 + 1,#(SampleApp_TransID >> 8) & 0xff
        MOV     R0,#?V0 + 0
        LCALL   ?PUSH_XSTACK_I_TWO
        CFI CFA_XSP16 add(XSP16, 17)
        MOV     A,#0x3
        LCALL   ?XSTACK_DISP0_8
        MOV     ?V0 + 0,DPL
        MOV     ?V0 + 1,DPH
        MOV     R0,#?V0 + 0
        LCALL   ?PUSH_XSTACK_I_TWO
        CFI CFA_XSP16 add(XSP16, 19)
        MOV     ?V0 + 0,#0x4
        MOV     ?V0 + 1,#0x0
        MOV     R0,#?V0 + 0
        LCALL   ?PUSH_XSTACK_I_TWO
        CFI CFA_XSP16 add(XSP16, 21)
        MOV     ?V0 + 0,#0x1
        MOV     R0,#?V0 + 0
        LCALL   ?PUSH_XSTACK_I_TWO
        CFI CFA_XSP16 add(XSP16, 23)
        MOV     R1,#0x20
        MOV     R4,#SampleApp_epDesc & 0xff
        MOV     R5,#(SampleApp_epDesc >> 8) & 0xff
        MOV     R2,#SampleApp_Periodic_DstAddr & 0xff
        MOV     R3,#(SampleApp_Periodic_DstAddr >> 8) & 0xff
        LCALL   ??AF_DataRequest?relay
        MOV     A,#0x9
        LCALL   ?DEALLOC_XSTACK8
        CFI CFA_XSP16 add(XSP16, 14)
        MOV     A,R1
        JNZ     ??SampleApp_SendPeriodicMessage_1
//  573     {
//  574       HalLedBlink(HAL_LED_1, 1, 50, 250);
        ; Setup parameters for call to function HalLedBlink
        MOV     R4,#-0x6
        MOV     R5,#0x0
        MOV     R3,#0x32
        MOV     R2,#0x1
        MOV     R1,#0x1
        LCALL   ??HalLedBlink?relay
        SJMP    ??SampleApp_SendPeriodicMessage_0
//  575     } else {
//  576       myprintf("SampleApp_SendPeriodicMessage() failed\n");
??SampleApp_SendPeriodicMessage_1:
        ; Setup parameters for call to function myprintf
        MOV     R2,#`?<Constant "SampleApp_SendPeriodi...">` & 0xff
        MOV     R3,#(`?<Constant "SampleApp_SendPeriodi...">` >> 8) & 0xff
        LCALL   ??myprintf?relay
//  577     }
//  578   }
//  579 }
??SampleApp_SendPeriodicMessage_0:
        MOV     A,#0x4
        LJMP    ?Subroutine2 & 0xFFFF
        CFI EndBlock cfiBlock45
//  580 
//  581 
//  582 /*********************************************************************
//  583 * Event Generation Functions
//  584 * @brief   按键事件处理函数
//  585 */

        RSEG BANKED_CODE:CODE:NOROOT(0)
//  586 void SampleApp_HandleKeys( uint8 shift, uint8 keys )
SampleApp_HandleKeys:
        CFI Block cfiBlock46 Using cfiCommon1
        CFI Function SampleApp_HandleKeys
        CODE
//  587 {
        ; Saved register size: 0
        ; Auto size: 0
//  588   (void)shift;  // Intentionally unreferenced parameter
//  589 #ifdef ZDO_COORDINATOR       //按协调器S1才发数据  
//  590   if ( keys & HAL_KEY_SW_6 ){ // 按键S1,以广播方式发数据    
//  591     SampleApp_SendPeriodicMessage(1);
//  592   } else if(keys & HAL_KEY_SW_1) { // 按键S2
//  593     //SampleApp_SendPeriodicMessage(2);
//  594   }
//  595 #endif
//  596 }
        LJMP    ?BRET
        CFI EndBlock cfiBlock46

        COMMON INTVEC:CODE:ROOT(0)
        ORG 107
`??port0Isr??INTVEC 107`:
        LJMP       (port0Isr)

        RSEG XDATA_ID:CODE:NOROOT(0)
`?<Initializer for pre_coin_pin_value>`:
        DATA8
        DB 1

        RSEG XDATA_ID:CODE:NOROOT(0)
`?<Initializer for coin_pin_value>`:
        DATA8
        DB 1

        RSEG XDATA_ID:CODE:NOROOT(0)
`?<Initializer for pre_reward_pin_value>`:
        DATA8
        DB 1

        RSEG XDATA_ID:CODE:NOROOT(0)
`?<Initializer for reward_pin_value>`:
        DATA8
        DB 1

        RSEG BANK_RELAYS:CODE:REORDER:NOROOT(0)
??SampleApp_Init?relay:
        LCALL   ?BDISPATCH
        DATA
        DC24    SampleApp_Init

        RSEG BANK_RELAYS:CODE:REORDER:NOROOT(0)
??SampleApp_ProcessEvent?relay:
        LCALL   ?BDISPATCH
        DATA
        DC24    SampleApp_ProcessEvent

        RSEG BANK_RELAYS:CODE:REORDER:NOROOT(0)
??SampleApp_MessageMSGCB?relay:
        LCALL   ?BDISPATCH
        DATA
        DC24    SampleApp_MessageMSGCB

        RSEG BANK_RELAYS:CODE:REORDER:NOROOT(0)
??SampleApp_SendHeartBeatMessageCoor?relay:
        LCALL   ?BDISPATCH
        DATA
        DC24    SampleApp_SendHeartBeatMessageCoor

        RSEG BANK_RELAYS:CODE:REORDER:NOROOT(0)
??EndDeviceSendHeartBeat?relay:
        LCALL   ?BDISPATCH
        DATA
        DC24    EndDeviceSendHeartBeat

        RSEG BANK_RELAYS:CODE:REORDER:NOROOT(0)
??EndDeviceSendAfMessageByCmd?relay:
        LCALL   ?BDISPATCH
        DATA
        DC24    EndDeviceSendAfMessageByCmd

        RSEG BANK_RELAYS:CODE:REORDER:NOROOT(0)
??printAddrInfoHex?relay:
        LCALL   ?BDISPATCH
        DATA
        DC24    printAddrInfoHex

        RSEG BANK_RELAYS:CODE:REORDER:NOROOT(0)
??convertHexToStrLCD?relay:
        LCALL   ?BDISPATCH
        DATA
        DC24    convertHexToStrLCD

        RSEG BANK_RELAYS:CODE:REORDER:NOROOT(0)
??SampleApp_SendPeriodicMessage?relay:
        LCALL   ?BDISPATCH
        DATA
        DC24    SampleApp_SendPeriodicMessage

        RSEG BANK_RELAYS:CODE:REORDER:NOROOT(0)
??SampleApp_HandleKeys?relay:
        LCALL   ?BDISPATCH
        DATA
        DC24    SampleApp_HandleKeys

        RSEG XDATA_ROM_C:CONST:REORDER:NOROOT(0)
        DATA8
`?<Constant "\\nP0_6=%d">`:
        DB "\012P0_6=%d"

        RSEG XDATA_ROM_C:CONST:REORDER:NOROOT(0)
        DATA8
`?<Constant "Group 1">`:
        DB "Group 1"

        RSEG XDATA_ROM_C:CONST:REORDER:NOROOT(0)
        DATA8
`?<Constant "UartInit OK\\n">`:
        DB "UartInit OK\012"

        RSEG XDATA_ROM_C:CONST:REORDER:NOROOT(0)
        DATA8
`?<Constant "Got ERROR:AF_DATA_CON...">`:
        DB "Got ERROR:AF_DATA_CONFIRM_CMD failed\012"

        RSEG XDATA_ROM_C:CONST:REORDER:NOROOT(0)
        DATA8
`?<Constant "unknown pkg-event = 0...">`:
        DB "unknown pkg-event = 0x%x\012"

        RSEG XDATA_ROM_C:CONST:REORDER:NOROOT(0)
        DATA8
`?<Constant "Get COIN_MSG_EVT, Nee...">`:
        DB 47H, 65H, 74H, 20H, 43H, 4FH, 49H, 4EH
        DB 5FH, 4DH, 53H, 47H, 5FH, 45H, 56H, 54H
        DB 2CH, 20H, 4EH, 65H, 65H, 64H, 43H, 6FH
        DB 69H, 6EH, 44H, 65H, 6CH, 69H, 76H, 65H
        DB 72H, 65H, 64H, 20H, 3DH, 20H, 25H, 64H
        DB 2CH, 20H, 65H, 76H, 65H, 6EH, 74H, 73H
        DB 20H, 3DH, 20H, 30H, 78H, 25H, 78H, 0AH
        DB 0

        RSEG XDATA_ROM_C:CONST:REORDER:NOROOT(0)
        DATA8
`?<Constant {0}>`:
        DB 0
        DB 0, 0, 0, 0, 0, 0, 0, 0
        DB 0, 0, 0, 0, 0, 0, 0, 0
        DB 0, 0, 0, 0, 0, 0, 0, 0
        DB 0, 0, 0, 0, 0, 0, 0

        RSEG XDATA_ROM_C:CONST:REORDER:NOROOT(0)
        DATA8
`?<Constant "NeedCoinDelivered = %d\\n">`:
        DB "NeedCoinDelivered = %d\012"

        RSEG XDATA_ROM_C:CONST:REORDER:NOROOT(0)
        DATA8
`?<Constant "end device check af d...">`:
        DB "end device check af data failed\012"

        RSEG XDATA_ROM_C:CONST:REORDER:NOROOT(0)
        DATA8
`?<Constant "Upload reward result ...">`:
        DB "Upload reward result count, rewardCount = %d\012"

        RSEG XDATA_ROM_C:CONST:REORDER:NOROOT(0)
        DATA8
`?<Constant {0}>_1`:
        DB 0
        DB 0, 0, 0, 0, 0, 0, 0, 0
        DB 0, 0, 0, 0, 0, 0, 0, 0
        DB 0, 0, 0, 0, 0, 0, 0, 0
        DB 0, 0, 0, 0, 0, 0, 0

        RSEG XDATA_ROM_C:CONST:REORDER:NOROOT(0)
        DATA8
`?<Constant {0}>_2`:
        DB 0
        DB 0, 0, 0, 0, 0, 0, 0, 0
        DB 0, 0, 0, 0, 0, 0, 0, 0
        DB 0, 0, 0, 0, 0, 0, 0, 0
        DB 0, 0, 0, 0, 0, 0, 0

        RSEG XDATA_ROM_C:CONST:REORDER:NOROOT(0)
        DATA8
`?<Constant "send cmd = 0x%x failed\\n">`:
        DB "send cmd = 0x%x failed\012"

        RSEG XDATA_ROM_C:CONST:REORDER:NOROOT(0)
        DATA16
`?<Constant "\\n">`:
        DB "\012"

        RSEG XDATA_ROM_C:CONST:REORDER:NOROOT(0)
        DATA8
`?<Constant "; IEEE = ">`:
        DB "; IEEE = "

        RSEG XDATA_ROM_C:CONST:REORDER:NOROOT(0)
        DATA8
`?<Constant "0x%x,">`:
        DB "0x%x,"

        RSEG XDATA_ROM_C:CONST:REORDER:NOROOT(0)
        DATA32
`?<Constant {35, 49, 0, 64}>`:
        DATA8
        DB 35
        DB 49
        DB 0
        DB 64

        RSEG XDATA_ROM_C:CONST:REORDER:NOROOT(0)
        DATA8
`?<Constant "SampleApp_SendPeriodi...">`:
        DB "SampleApp_SendPeriodicMessage() failed\012"

        RSEG XDATA_ROM_C:CONST:REORDER:NOROOT(0)
        DATA32
__Constant_2:
        DD 2

        END
// 
// 1 711 bytes in segment BANKED_CODE
//    60 bytes in segment BANK_RELAYS
//     3 bytes in segment INTVEC
//   176 bytes in segment NEAR_CODE
//     7 bytes in segment SFR_AN
//     4 bytes in segment XDATA_I
//     4 bytes in segment XDATA_ID
//   460 bytes in segment XDATA_ROM_C
//    87 bytes in segment XDATA_Z
// 
// 1 951 bytes of CODE  memory (+ 3 bytes shared)
//   456 bytes of CONST memory (+ 4 bytes shared)
//     0 bytes of DATA  memory (+ 7 bytes shared)
//    91 bytes of XDATA memory
//
//Errors: none
//Warnings: none
