///////////////////////////////////////////////////////////////////////////////
//                                                                            /
// IAR C/C++ Compiler V8.10.3.10338/W32 for 8051        18/Jun/2019  09:27:00 /
// Copyright 2004-2011 IAR Systems AB.                                        /
//                                                                            /
//    Core               =  plain                                             /
//    Code model         =  banked                                            /
//    Data model         =  large                                             /
//    Calling convention =  xdata reentrant                                   /
//    Constant location  =  data_rom                                          /
//    Dptr setup         =  1,16                                              /
//    Source file        =  E:\Github_Repository\zigbee-net-tech\ZStack-2.5.1 /
//                          a\Projects\zstack\Samples\SampleApp\Source\Sample /
//                          App.c                                             /
//    Command line       =  -f E:\Github_Repository\zigbee-net-tech\ZStack-2. /
//                          5.1a\Projects\zstack\Samples\SampleApp\CC2530DB\. /
//                          .\..\..\Tools\CC2530DB\f8wEndev.cfg (-DCPU32MHZ   /
//                          -DROOT=__near_func -DMAC_CFG_TX_DATA_MAX=3        /
//                          -DMAC_CFG_TX_MAX=6 -DMAC_CFG_RX_MAX=3             /
//                          -DEND_DEVICE) -f E:\Github_Repository\zigbee-net- /
//                          tech\ZStack-2.5.1a\Projects\zstack\Samples\Sample /
//                          App\CC2530DB\..\..\..\Tools\CC2530DB\f8wConfig.cf /
//                          g (-DZIGBEEPRO -DSECURE=0 -DZG_SECURE_DYNAMIC=0   /
//                          -DREFLECTOR -DDEFAULT_CHANLIST=0x00000800         /
//                          -DZDAPP_CONFIG_PAN_ID=0xFFF1                      /
//                          -DNWK_START_DELAY=100 -DEXTENDED_JOINING_RANDOM_M /
//                          ASK=0x007F -DBEACON_REQUEST_DELAY=100             /
//                          -DBEACON_REQ_DELAY_MASK=0x00FF                    /
//                          -DLINK_STATUS_JITTER_MASK=0x007F                  /
//                          -DROUTE_EXPIRY_TIME=30 -DAPSC_ACK_WAIT_DURATION_P /
//                          OLLED=3000 -DNWK_INDIRECT_MSG_TIMEOUT=7           /
//                          -DMAX_RREQ_ENTRIES=8 -DAPSC_MAX_FRAME_RETRIES=3   /
//                          -DNWK_MAX_DATA_RETRIES=2                          /
//                          -DMAX_POLL_FAILURE_RETRIES=2 -DMAX_BCAST=9        /
//                          -DAPS_MAX_GROUPS=16 -DMAX_RTG_ENTRIES=40          /
//                          -DNWK_MAX_BINDING_ENTRIES=4                       /
//                          -DMAX_BINDING_CLUSTER_IDS=4                       /
//                          "-DDEFAULT_KEY={0x01, 0x03, 0x05, 0x07, 0x09,     /
//                          0x0B, 0x0D, 0x0F, 0x00, 0x02, 0x04, 0x06, 0x08,   /
//                          0x0A, 0x0C, 0x0D}" -DMAC_MAX_FRAME_SIZE=116       /
//                          -DZDNWKMGR_MIN_TRANSMISSIONS=20 "-DCONST=const    /
//                          __code" -DGENERIC=__generic                       /
//                          -DRFD_RCVC_ALWAYS_ON=FALSE -DPOLL_RATE=1000       /
//                          -DQUEUED_POLL_RATE=100 -DRESPONSE_POLL_RATE=100)  /
//                          -DREJOIN_POLL_RATE=440 E:\Github_Repository\zigbe /
//                          e-net-tech\ZStack-2.5.1a\Projects\zstack\Samples\ /
//                          SampleApp\Source\SampleApp.c -D NWK_AUTO_POLL -D  /
//                          ZTOOL_P1 -D MT_TASK -D MT_SYS_FUNC -D             /
//                          MT_ZDO_FUNC -lC E:\Github_Repository\zigbee-net-t /
//                          ech\ZStack-2.5.1a\Projects\zstack\Samples\SampleA /
//                          pp\CC2530DB\EndDeviceEB\List\ -lA                 /
//                          E:\Github_Repository\zigbee-net-tech\ZStack-2.5.1 /
//                          a\Projects\zstack\Samples\SampleApp\CC2530DB\EndD /
//                          eviceEB\List\ --diag_suppress Pe001,Pa010 -o      /
//                          E:\Github_Repository\zigbee-net-tech\ZStack-2.5.1 /
//                          a\Projects\zstack\Samples\SampleApp\CC2530DB\EndD /
//                          eviceEB\Obj\ -e --no_code_motion --debug          /
//                          --core=plain --dptr=16,1 --data_model=large       /
//                          --code_model=banked --calling_convention=xdata_re /
//                          entrant --place_constants=data_rom                /
//                          --nr_virtual_regs 16 -I                           /
//                          E:\Github_Repository\zigbee-net-tech\ZStack-2.5.1 /
//                          a\Projects\zstack\Samples\SampleApp\CC2530DB\ -I  /
//                          E:\Github_Repository\zigbee-net-tech\ZStack-2.5.1 /
//                          a\Projects\zstack\Samples\SampleApp\CC2530DB\..\S /
//                          ource\ -I E:\Github_Repository\zigbee-net-tech\ZS /
//                          tack-2.5.1a\Projects\zstack\Samples\SampleApp\CC2 /
//                          530DB\..\..\..\ZMain\TI2530DB\ -I                 /
//                          E:\Github_Repository\zigbee-net-tech\ZStack-2.5.1 /
//                          a\Projects\zstack\Samples\SampleApp\CC2530DB\..\. /
//                          .\..\..\..\Components\hal\include\ -I             /
//                          E:\Github_Repository\zigbee-net-tech\ZStack-2.5.1 /
//                          a\Projects\zstack\Samples\SampleApp\CC2530DB\..\. /
//                          .\..\..\..\Components\hal\target\CC2530EB\ -I     /
//                          E:\Github_Repository\zigbee-net-tech\ZStack-2.5.1 /
//                          a\Projects\zstack\Samples\SampleApp\CC2530DB\..\. /
//                          .\..\..\..\Components\mac\include\ -I             /
//                          E:\Github_Repository\zigbee-net-tech\ZStack-2.5.1 /
//                          a\Projects\zstack\Samples\SampleApp\CC2530DB\..\. /
//                          .\..\..\..\Components\mac\high_level\ -I          /
//                          E:\Github_Repository\zigbee-net-tech\ZStack-2.5.1 /
//                          a\Projects\zstack\Samples\SampleApp\CC2530DB\..\. /
//                          .\..\..\..\Components\mac\low_level\srf04\ -I     /
//                          E:\Github_Repository\zigbee-net-tech\ZStack-2.5.1 /
//                          a\Projects\zstack\Samples\SampleApp\CC2530DB\..\. /
//                          .\..\..\..\Components\mac\low_level\srf04\single_ /
//                          chip\ -I E:\Github_Repository\zigbee-net-tech\ZSt /
//                          ack-2.5.1a\Projects\zstack\Samples\SampleApp\CC25 /
//                          30DB\..\..\..\..\..\Components\mt\ -I             /
//                          E:\Github_Repository\zigbee-net-tech\ZStack-2.5.1 /
//                          a\Projects\zstack\Samples\SampleApp\CC2530DB\..\. /
//                          .\..\..\..\Components\osal\include\ -I            /
//                          E:\Github_Repository\zigbee-net-tech\ZStack-2.5.1 /
//                          a\Projects\zstack\Samples\SampleApp\CC2530DB\..\. /
//                          .\..\..\..\Components\services\saddr\ -I          /
//                          E:\Github_Repository\zigbee-net-tech\ZStack-2.5.1 /
//                          a\Projects\zstack\Samples\SampleApp\CC2530DB\..\. /
//                          .\..\..\..\Components\services\sdata\ -I          /
//                          E:\Github_Repository\zigbee-net-tech\ZStack-2.5.1 /
//                          a\Projects\zstack\Samples\SampleApp\CC2530DB\..\. /
//                          .\..\..\..\Components\stack\af\ -I                /
//                          E:\Github_Repository\zigbee-net-tech\ZStack-2.5.1 /
//                          a\Projects\zstack\Samples\SampleApp\CC2530DB\..\. /
//                          .\..\..\..\Components\stack\nwk\ -I               /
//                          E:\Github_Repository\zigbee-net-tech\ZStack-2.5.1 /
//                          a\Projects\zstack\Samples\SampleApp\CC2530DB\..\. /
//                          .\..\..\..\Components\stack\sapi\ -I              /
//                          E:\Github_Repository\zigbee-net-tech\ZStack-2.5.1 /
//                          a\Projects\zstack\Samples\SampleApp\CC2530DB\..\. /
//                          .\..\..\..\Components\stack\sec\ -I               /
//                          E:\Github_Repository\zigbee-net-tech\ZStack-2.5.1 /
//                          a\Projects\zstack\Samples\SampleApp\CC2530DB\..\. /
//                          .\..\..\..\Components\stack\sys\ -I               /
//                          E:\Github_Repository\zigbee-net-tech\ZStack-2.5.1 /
//                          a\Projects\zstack\Samples\SampleApp\CC2530DB\..\. /
//                          .\..\..\..\Components\stack\zdo\ -I               /
//                          E:\Github_Repository\zigbee-net-tech\ZStack-2.5.1 /
//                          a\Projects\zstack\Samples\SampleApp\CC2530DB\..\. /
//                          .\..\..\..\Components\zmac\ -I                    /
//                          E:\Github_Repository\zigbee-net-tech\ZStack-2.5.1 /
//                          a\Projects\zstack\Samples\SampleApp\CC2530DB\..\. /
//                          .\..\..\..\Components\zmac\f8w\ -Ohz              /
//                          --require_prototypes                              /
//    List file          =  E:\Github_Repository\zigbee-net-tech\ZStack-2.5.1 /
//                          a\Projects\zstack\Samples\SampleApp\CC2530DB\EndD /
//                          eviceEB\List\SampleApp.s51                        /
//                                                                            /
//                                                                            /
///////////////////////////////////////////////////////////////////////////////

        NAME SampleApp

        RTMODEL "__SystemLibrary", "CLib"
        RTMODEL "__calling_convention", "xdata_reentrant"
        RTMODEL "__code_model", "banked"
        RTMODEL "__core", "plain"
        RTMODEL "__data_model", "large"
        RTMODEL "__dptr_size", "16"
        RTMODEL "__extended_stack", "disabled"
        RTMODEL "__location_for_constants", "data"
        RTMODEL "__number_of_dptrs", "1"
        RTMODEL "__rt_version", "1"

        RSEG DOVERLAY:DATA:NOROOT(0)
        RSEG IOVERLAY:IDATA:NOROOT(0)
        RSEG ISTACK:IDATA:NOROOT(0)
        RSEG PSTACK:XDATA:NOROOT(0)
        RSEG XSTACK:XDATA:NOROOT(0)

        EXTERN ?ALLOC_XSTACK8
        EXTERN ?BANKED_ENTER_XDATA
        EXTERN ?BANKED_LEAVE_XDATA
        EXTERN ?BDISPATCH
        EXTERN ?BRET
        EXTERN ?DEALLOC_XSTACK8
        EXTERN ?INTERRUPT_ENTER_XSP
        EXTERN ?INTERRUPT_LEAVE_XSP
        EXTERN ?MOVE_LONG8_XDATA_XDATA
        EXTERN ?PUSH_XSTACK_I_ONE
        EXTERN ?PUSH_XSTACK_I_THREE
        EXTERN ?PUSH_XSTACK_I_TWO
        EXTERN ?V0
        EXTERN ?XSP
        EXTERN ?XSTACK_DISP0_8
        EXTERN __INIT_XDATA_Z

        PUBLIC ??AfReplyGetCoinCmd?relay
        FUNCTION ??AfReplyGetCoinCmd?relay,0203H
        PUBLIC ??AfSendAddrInfo?relay
        FUNCTION ??AfSendAddrInfo?relay,0203H
        PUBLIC ??SampleApp_HandleKeys?relay
        FUNCTION ??SampleApp_HandleKeys?relay,0203H
        PUBLIC ??SampleApp_Init?relay
        FUNCTION ??SampleApp_Init?relay,0203H
        PUBLIC ??SampleApp_MessageMSGCB?relay
        FUNCTION ??SampleApp_MessageMSGCB?relay,0203H
        PUBLIC ??SampleApp_ProcessEvent?relay
        FUNCTION ??SampleApp_ProcessEvent?relay,0203H
        PUBLIC ??SampleApp_SendHeartBeatMessageCoor?relay
        FUNCTION ??SampleApp_SendHeartBeatMessageCoor?relay,0203H
        PUBLIC ??SampleApp_SendHeartBeatMessageEnd?relay
        FUNCTION ??SampleApp_SendHeartBeatMessageEnd?relay,0203H
        PUBLIC ??SampleApp_SendPeriodicMessage?relay
        FUNCTION ??SampleApp_SendPeriodicMessage?relay,0203H
        PUBLIC ??checkGameIsOverReward?relay
        FUNCTION ??checkGameIsOverReward?relay,0203H
        PUBLIC ??convertHexToStr?relay
        FUNCTION ??convertHexToStr?relay,0203H
        PUBWEAK `??port0Isr??INTVEC 107`
        PUBLIC ??printAddrInfoHex?relay
        FUNCTION ??printAddrInfoHex?relay,0203H
        PUBLIC AfReplyGetCoinCmd
        FUNCTION AfReplyGetCoinCmd,021203H
        ARGFRAME XSTACK, 10, STACK
        ARGFRAME IOVERLAY, 0, STATIC
        ARGFRAME DOVERLAY, 0, STATIC
        LOCFRAME ISTACK, 2, STACK
        LOCFRAME XSTACK, 31, STACK
        PUBLIC AfSendAddrInfo
        FUNCTION AfSendAddrInfo,021203H
        ARGFRAME XSTACK, 15, STACK
        ARGFRAME IOVERLAY, 0, STATIC
        ARGFRAME DOVERLAY, 0, STATIC
        LOCFRAME ISTACK, 2, STACK
        LOCFRAME XSTACK, 33, STACK
        PUBLIC EndPoint_DstAddr
        PUBLIC GenericApp_DstAddr
        PUBLIC LL
        PUBLIC NeedCoinDelivered
        PUBLIC NeedCoinTransport
        PUBWEAK P0IFG
        PUBWEAK P1DIR
        PUBWEAK P1SEL
        PUBLIC SampleAppFlashCounter
        PUBLIC SampleAppPeriodicCounter
        PUBLIC SampleApp_ClusterList
        PUBLIC SampleApp_Group
        PUBLIC SampleApp_HandleKeys
        FUNCTION SampleApp_HandleKeys,021203H
        ARGFRAME XSTACK, 15, STACK
        ARGFRAME IOVERLAY, 0, STATIC
        ARGFRAME DOVERLAY, 0, STATIC
        LOCFRAME XSTACK, 9, STACK
        PUBLIC SampleApp_Init
        FUNCTION SampleApp_Init,021203H
        ARGFRAME XSTACK, 0, STACK
        LOCFRAME XSTACK, 14, STACK
        PUBLIC SampleApp_MessageMSGCB
        FUNCTION SampleApp_MessageMSGCB,021203H
        ARGFRAME XSTACK, 15, STACK
        ARGFRAME IOVERLAY, 0, STATIC
        ARGFRAME DOVERLAY, 0, STATIC
        LOCFRAME XSTACK, 12, STACK
        PUBLIC SampleApp_NwkState
        PUBLIC SampleApp_Periodic_DstAddr
        PUBLIC SampleApp_ProcessEvent
        FUNCTION SampleApp_ProcessEvent,021203H
        ARGFRAME XSTACK, 0, STACK
        LOCFRAME ISTACK, 2, STACK
        LOCFRAME XSTACK, 19, STACK
        PUBLIC SampleApp_SendHeartBeatMessageCoor
        FUNCTION SampleApp_SendHeartBeatMessageCoor,021203H
        ARGFRAME XSTACK, 0, STACK
        LOCFRAME ISTACK, 4, STACK
        LOCFRAME XSTACK, 3, STACK
        PUBLIC SampleApp_SendHeartBeatMessageEnd
        FUNCTION SampleApp_SendHeartBeatMessageEnd,021203H
        ARGFRAME XSTACK, 15, STACK
        ARGFRAME IOVERLAY, 0, STATIC
        ARGFRAME DOVERLAY, 0, STATIC
        LOCFRAME ISTACK, 2, STACK
        PUBLIC SampleApp_SendPeriodicMessage
        FUNCTION SampleApp_SendPeriodicMessage,021203H
        ARGFRAME XSTACK, 0, STACK
        LOCFRAME ISTACK, 2, STACK
        LOCFRAME XSTACK, 23, STACK
        PUBLIC SampleApp_SimpleDesc
        PUBLIC SampleApp_TaskID
        PUBLIC SampleApp_TransID
        PUBLIC SampleApp_TxAddr
        PUBLIC SampleApp_epDesc
        PUBWEAK _A_IRCON
        PUBWEAK _A_P1
        PUBLIC checkGameIsOverReward
        FUNCTION checkGameIsOverReward,021203H
        ARGFRAME XSTACK, 0, STACK
        LOCFRAME ISTACK, 2, STACK
        LOCFRAME XSTACK, 32, STACK
        PUBLIC convertHexToStr
        FUNCTION convertHexToStr,021203H
        ARGFRAME XSTACK, 0, STACK
        LOCFRAME ISTACK, 1, STACK
        LOCFRAME XSTACK, 18, STACK
        PUBLIC gameWillOver
        PUBLIC port0Isr
        FUNCTION port0Isr,021233H
        ARGFRAME XSTACK, 0, STACK
        LOCFRAME XSTACK, 14, STACK
        PUBLIC printAddrInfoHex
        FUNCTION printAddrInfoHex,021203H
        ARGFRAME XSTACK, 0, STACK
        LOCFRAME XSTACK, 15, STACK
        PUBLIC rewardCount
        
        CFI Names cfiNames0
        CFI StackFrame CFA_SP SP IDATA
        CFI StackFrame CFA_PSP16 PSP16 XDATA
        CFI StackFrame CFA_XSP16 XSP16 XDATA
        CFI StaticOverlayFrame CFA_IOVERLAY IOVERLAY
        CFI StaticOverlayFrame CFA_DOVERLAY DOVERLAY
        CFI Resource `PSW.CY`:1, `B.BR0`:1, `B.BR1`:1, `B.BR2`:1, `B.BR3`:1
        CFI Resource `B.BR4`:1, `B.BR5`:1, `B.BR6`:1, `B.BR7`:1, `VB.BR8`:1
        CFI Resource `VB.BR9`:1, `VB.BR10`:1, `VB.BR11`:1, `VB.BR12`:1
        CFI Resource `VB.BR13`:1, `VB.BR14`:1, `VB.BR15`:1, VB:8, B:8, A:8
        CFI Resource PSW:8, DPL0:8, DPH0:8, R0:8, R1:8, R2:8, R3:8, R4:8, R5:8
        CFI Resource R6:8, R7:8, V0:8, V1:8, V2:8, V3:8, V4:8, V5:8, V6:8, V7:8
        CFI Resource V8:8, V9:8, V10:8, V11:8, V12:8, V13:8, V14:8, V15:8, SP:8
        CFI Resource PSPH:8, PSPL:8, PSP16:16, XSPH:8, XSPL:8, XSP16:16
        CFI VirtualResource ?RET:24
        CFI Resource ?BRET_EXT:8
        CFI VirtualResource ?RET_HIGH:8, ?RET_LOW:8
        CFI ResourceParts PSP16 PSPH, PSPL
        CFI ResourceParts XSP16 XSPH, XSPL
        CFI ResourceParts ?RET ?BRET_EXT, ?RET_HIGH, ?RET_LOW
        CFI EndNames cfiNames0
        
        CFI Common cfiCommon0 Using cfiNames0
        CFI CodeAlign 1
        CFI DataAlign -1
        CFI ReturnAddress ?RET CODE
        CFI CFA_DOVERLAY Used
        CFI CFA_IOVERLAY Used
        CFI CFA_SP SP+-2
        CFI CFA_PSP16 PSP16+0
        CFI CFA_XSP16 XSP16+0
        CFI `PSW.CY` SameValue
        CFI `B.BR0` SameValue
        CFI `B.BR1` SameValue
        CFI `B.BR2` SameValue
        CFI `B.BR3` SameValue
        CFI `B.BR4` SameValue
        CFI `B.BR5` SameValue
        CFI `B.BR6` SameValue
        CFI `B.BR7` SameValue
        CFI `VB.BR8` SameValue
        CFI `VB.BR9` SameValue
        CFI `VB.BR10` SameValue
        CFI `VB.BR11` SameValue
        CFI `VB.BR12` SameValue
        CFI `VB.BR13` SameValue
        CFI `VB.BR14` SameValue
        CFI `VB.BR15` SameValue
        CFI VB SameValue
        CFI B SameValue
        CFI A SameValue
        CFI PSW SameValue
        CFI DPL0 SameValue
        CFI DPH0 SameValue
        CFI R0 SameValue
        CFI R1 SameValue
        CFI R2 SameValue
        CFI R3 SameValue
        CFI R4 SameValue
        CFI R5 SameValue
        CFI R6 SameValue
        CFI R7 SameValue
        CFI V0 SameValue
        CFI V1 SameValue
        CFI V2 SameValue
        CFI V3 SameValue
        CFI V4 SameValue
        CFI V5 SameValue
        CFI V6 SameValue
        CFI V7 SameValue
        CFI V8 SameValue
        CFI V9 SameValue
        CFI V10 SameValue
        CFI V11 SameValue
        CFI V12 SameValue
        CFI V13 SameValue
        CFI V14 SameValue
        CFI V15 SameValue
        CFI PSPH Undefined
        CFI PSPL Undefined
        CFI XSPH Undefined
        CFI XSPL Undefined
        CFI ?RET Concat
        CFI ?BRET_EXT SameValue
        CFI ?RET_HIGH Frame(CFA_SP, 2)
        CFI ?RET_LOW Frame(CFA_SP, 1)
        CFI EndCommon cfiCommon0
        
        
        CFI Common cfiCommon1 Using cfiNames0
        CFI CodeAlign 1
        CFI DataAlign -1
        CFI ReturnAddress ?RET CODE
        CFI CFA_DOVERLAY Used
        CFI CFA_IOVERLAY Used
        CFI CFA_SP SP+-3
        CFI CFA_PSP16 PSP16+0
        CFI CFA_XSP16 XSP16+0
        CFI `PSW.CY` SameValue
        CFI `B.BR0` SameValue
        CFI `B.BR1` SameValue
        CFI `B.BR2` SameValue
        CFI `B.BR3` SameValue
        CFI `B.BR4` SameValue
        CFI `B.BR5` SameValue
        CFI `B.BR6` SameValue
        CFI `B.BR7` SameValue
        CFI `VB.BR8` SameValue
        CFI `VB.BR9` SameValue
        CFI `VB.BR10` SameValue
        CFI `VB.BR11` SameValue
        CFI `VB.BR12` SameValue
        CFI `VB.BR13` SameValue
        CFI `VB.BR14` SameValue
        CFI `VB.BR15` SameValue
        CFI VB SameValue
        CFI B Undefined
        CFI A Undefined
        CFI PSW SameValue
        CFI DPL0 SameValue
        CFI DPH0 SameValue
        CFI R0 Undefined
        CFI R1 Undefined
        CFI R2 Undefined
        CFI R3 Undefined
        CFI R4 Undefined
        CFI R5 Undefined
        CFI R6 SameValue
        CFI R7 SameValue
        CFI V0 SameValue
        CFI V1 SameValue
        CFI V2 SameValue
        CFI V3 SameValue
        CFI V4 SameValue
        CFI V5 SameValue
        CFI V6 SameValue
        CFI V7 SameValue
        CFI V8 SameValue
        CFI V9 SameValue
        CFI V10 SameValue
        CFI V11 SameValue
        CFI V12 SameValue
        CFI V13 SameValue
        CFI V14 SameValue
        CFI V15 SameValue
        CFI PSPH Undefined
        CFI PSPL Undefined
        CFI XSPH Undefined
        CFI XSPL Undefined
        CFI ?RET Concat
        CFI ?BRET_EXT Frame(CFA_SP, 3)
        CFI ?RET_HIGH Frame(CFA_SP, 2)
        CFI ?RET_LOW Frame(CFA_SP, 1)
        CFI EndCommon cfiCommon1
        
osal_start_timerEx  SYMBOL "osal_start_timerEx"
myprintf            SYMBOL "myprintf"
afRegister          SYMBOL "afRegister"
RegisterForKeys     SYMBOL "RegisterForKeys"
osal_memcpy         SYMBOL "osal_memcpy"
aps_AddGroup        SYMBOL "aps_AddGroup"
MT_UartInit         SYMBOL "MT_UartInit"
MT_UartRegisterTaskID SYMBOL "MT_UartRegisterTaskID"
osal_msg_receive    SYMBOL "osal_msg_receive"
osal_msg_deallocate SYMBOL "osal_msg_deallocate"
mySendByteBuf       SYMBOL "mySendByteBuf"
HalLedBlink         SYMBOL "HalLedBlink"
AF_DataRequest      SYMBOL "AF_DataRequest"
decAllListEPLeftSec SYMBOL "decAllListEPLeftSec"
NLME_GetShortAddr   SYMBOL "NLME_GetShortAddr"
NLME_GetExtAddr     SYMBOL "NLME_GetExtAddr"
HalLcdWriteString   SYMBOL "HalLcdWriteString"
??AF_DataRequest?relay SYMBOL "?relay", AF_DataRequest
??HalLcdWriteString?relay SYMBOL "?relay", HalLcdWriteString
??HalLedBlink?relay SYMBOL "?relay", HalLedBlink
??MT_UartInit?relay SYMBOL "?relay", MT_UartInit
??MT_UartRegisterTaskID?relay SYMBOL "?relay", MT_UartRegisterTaskID
??NLME_GetExtAddr?relay SYMBOL "?relay", NLME_GetExtAddr
??NLME_GetShortAddr?relay SYMBOL "?relay", NLME_GetShortAddr
??RegisterForKeys?relay SYMBOL "?relay", RegisterForKeys
??afRegister?relay  SYMBOL "?relay", afRegister
??aps_AddGroup?relay SYMBOL "?relay", aps_AddGroup
??decAllListEPLeftSec?relay SYMBOL "?relay", decAllListEPLeftSec
??mySendByteBuf?relay SYMBOL "?relay", mySendByteBuf
??myprintf?relay    SYMBOL "?relay", myprintf
??osal_memcpy?relay SYMBOL "?relay", osal_memcpy
??osal_msg_deallocate?relay SYMBOL "?relay", osal_msg_deallocate
??osal_msg_receive?relay SYMBOL "?relay", osal_msg_receive
??osal_start_timerEx?relay SYMBOL "?relay", osal_start_timerEx
AfReplyGetCoinCmd   SYMBOL "AfReplyGetCoinCmd"
??AfReplyGetCoinCmd?relay SYMBOL "?relay", AfReplyGetCoinCmd
AfSendAddrInfo      SYMBOL "AfSendAddrInfo"
??AfSendAddrInfo?relay SYMBOL "?relay", AfSendAddrInfo
SampleApp_HandleKeys SYMBOL "SampleApp_HandleKeys"
??SampleApp_HandleKeys?relay SYMBOL "?relay", SampleApp_HandleKeys
SampleApp_Init      SYMBOL "SampleApp_Init"
??SampleApp_Init?relay SYMBOL "?relay", SampleApp_Init
SampleApp_MessageMSGCB SYMBOL "SampleApp_MessageMSGCB"
??SampleApp_MessageMSGCB?relay SYMBOL "?relay", SampleApp_MessageMSGCB
SampleApp_ProcessEvent SYMBOL "SampleApp_ProcessEvent"
??SampleApp_ProcessEvent?relay SYMBOL "?relay", SampleApp_ProcessEvent
SampleApp_SendHeartBeatMessageCoor SYMBOL "SampleApp_SendHeartBeatMessageCoor"
??SampleApp_SendHeartBeatMessageCoor?relay SYMBOL "?relay", SampleApp_SendHeartBeatMessageCoor
SampleApp_SendHeartBeatMessageEnd SYMBOL "SampleApp_SendHeartBeatMessageEnd"
??SampleApp_SendHeartBeatMessageEnd?relay SYMBOL "?relay", SampleApp_SendHeartBeatMessageEnd
SampleApp_SendPeriodicMessage SYMBOL "SampleApp_SendPeriodicMessage"
??SampleApp_SendPeriodicMessage?relay SYMBOL "?relay", SampleApp_SendPeriodicMessage
checkGameIsOverReward SYMBOL "checkGameIsOverReward"
??checkGameIsOverReward?relay SYMBOL "?relay", checkGameIsOverReward
convertHexToStr     SYMBOL "convertHexToStr"
??convertHexToStr?relay SYMBOL "?relay", convertHexToStr
port0Isr            SYMBOL "port0Isr"
`??port0Isr??INTVEC 107` SYMBOL "??INTVEC 107", port0Isr
printAddrInfoHex    SYMBOL "printAddrInfoHex"
??printAddrInfoHex?relay SYMBOL "?relay", printAddrInfoHex

        EXTERN osal_start_timerEx
        FUNCTION osal_start_timerEx,0202H
        ARGFRAME ISTACK, 0, STACK
        ARGFRAME PSTACK, 0, STACK
        ARGFRAME XSTACK, 15, STACK
        ARGFRAME IOVERLAY, 0, STATIC
        ARGFRAME DOVERLAY, 0, STATIC
        EXTERN myprintf
        FUNCTION myprintf,0202H
        ARGFRAME ISTACK, 2, STACK
        ARGFRAME PSTACK, 0, STACK
        ARGFRAME XSTACK, 25, STACK
        ARGFRAME IOVERLAY, 0, STATIC
        ARGFRAME DOVERLAY, 0, STATIC
        EXTERN afRegister
        FUNCTION afRegister,0202H
        ARGFRAME ISTACK, 0, STACK
        ARGFRAME PSTACK, 0, STACK
        ARGFRAME XSTACK, 11, STACK
        ARGFRAME IOVERLAY, 0, STATIC
        ARGFRAME DOVERLAY, 0, STATIC
        EXTERN RegisterForKeys
        FUNCTION RegisterForKeys,0202H
        ARGFRAME ISTACK, 0, STACK
        ARGFRAME PSTACK, 0, STACK
        ARGFRAME XSTACK, 11, STACK
        ARGFRAME IOVERLAY, 0, STATIC
        ARGFRAME DOVERLAY, 0, STATIC
        EXTERN osal_memcpy
        FUNCTION osal_memcpy,0202H
        ARGFRAME ISTACK, 0, STACK
        ARGFRAME PSTACK, 0, STACK
        ARGFRAME XSTACK, 27, STACK
        ARGFRAME IOVERLAY, 0, STATIC
        ARGFRAME DOVERLAY, 0, STATIC
        EXTERN aps_AddGroup
        FUNCTION aps_AddGroup,0202H
        ARGFRAME ISTACK, 0, STACK
        ARGFRAME PSTACK, 0, STACK
        ARGFRAME XSTACK, 11, STACK
        ARGFRAME IOVERLAY, 0, STATIC
        ARGFRAME DOVERLAY, 0, STATIC
        EXTERN MT_UartInit
        FUNCTION MT_UartInit,0202H
        ARGFRAME ISTACK, 0, STACK
        ARGFRAME PSTACK, 0, STACK
        ARGFRAME XSTACK, 11, STACK
        ARGFRAME IOVERLAY, 0, STATIC
        ARGFRAME DOVERLAY, 0, STATIC
        EXTERN MT_UartRegisterTaskID
        FUNCTION MT_UartRegisterTaskID,0202H
        ARGFRAME ISTACK, 0, STACK
        ARGFRAME PSTACK, 0, STACK
        ARGFRAME XSTACK, 11, STACK
        ARGFRAME IOVERLAY, 0, STATIC
        ARGFRAME DOVERLAY, 0, STATIC
        EXTERN osal_msg_receive
        FUNCTION osal_msg_receive,0202H
        ARGFRAME ISTACK, 0, STACK
        ARGFRAME PSTACK, 0, STACK
        ARGFRAME XSTACK, 15, STACK
        ARGFRAME IOVERLAY, 0, STATIC
        ARGFRAME DOVERLAY, 0, STATIC
        EXTERN osal_msg_deallocate
        FUNCTION osal_msg_deallocate,0202H
        ARGFRAME ISTACK, 0, STACK
        ARGFRAME PSTACK, 0, STACK
        ARGFRAME XSTACK, 15, STACK
        ARGFRAME IOVERLAY, 0, STATIC
        ARGFRAME DOVERLAY, 0, STATIC
        EXTERN mySendByteBuf
        FUNCTION mySendByteBuf,0202H
        ARGFRAME ISTACK, 2, STACK
        ARGFRAME PSTACK, 0, STACK
        ARGFRAME XSTACK, 15, STACK
        ARGFRAME IOVERLAY, 0, STATIC
        ARGFRAME DOVERLAY, 0, STATIC
        EXTERN HalLedBlink
        FUNCTION HalLedBlink,0202H
        ARGFRAME ISTACK, 2, STACK
        ARGFRAME PSTACK, 0, STACK
        ARGFRAME XSTACK, 24, STACK
        ARGFRAME IOVERLAY, 0, STATIC
        ARGFRAME DOVERLAY, 0, STATIC
        EXTERN AF_DataRequest
        FUNCTION AF_DataRequest,0202H
        ARGFRAME ISTACK, 0, STACK
        ARGFRAME PSTACK, 0, STACK
        ARGFRAME XSTACK, 33, STACK
        ARGFRAME IOVERLAY, 0, STATIC
        ARGFRAME DOVERLAY, 0, STATIC
        EXTERN decAllListEPLeftSec
        FUNCTION decAllListEPLeftSec,0202H
        ARGFRAME ISTACK, 2, STACK
        ARGFRAME PSTACK, 0, STACK
        ARGFRAME XSTACK, 3, STACK
        ARGFRAME IOVERLAY, 0, STATIC
        ARGFRAME DOVERLAY, 0, STATIC
        EXTERN NLME_GetShortAddr
        FUNCTION NLME_GetShortAddr,0202H
        ARGFRAME ISTACK, 0, STACK
        ARGFRAME PSTACK, 0, STACK
        ARGFRAME XSTACK, 24, STACK
        ARGFRAME IOVERLAY, 0, STATIC
        ARGFRAME DOVERLAY, 0, STATIC
        EXTERN NLME_GetExtAddr
        FUNCTION NLME_GetExtAddr,0202H
        ARGFRAME ISTACK, 0, STACK
        ARGFRAME PSTACK, 0, STACK
        ARGFRAME XSTACK, 24, STACK
        ARGFRAME IOVERLAY, 0, STATIC
        ARGFRAME DOVERLAY, 0, STATIC
        EXTERN HalLcdWriteString
        FUNCTION HalLcdWriteString,0202H
        ARGFRAME ISTACK, 0, STACK
        ARGFRAME PSTACK, 0, STACK
        ARGFRAME XSTACK, 18, STACK
        ARGFRAME IOVERLAY, 0, STATIC
        ARGFRAME DOVERLAY, 0, STATIC
        EXTERN ??AF_DataRequest?relay
        FUNCTION ??AF_DataRequest?relay,00H
        EXTERN ??HalLcdWriteString?relay
        FUNCTION ??HalLcdWriteString?relay,00H
        EXTERN ??HalLedBlink?relay
        FUNCTION ??HalLedBlink?relay,00H
        EXTERN ??MT_UartInit?relay
        FUNCTION ??MT_UartInit?relay,00H
        EXTERN ??MT_UartRegisterTaskID?relay
        FUNCTION ??MT_UartRegisterTaskID?relay,00H
        EXTERN ??NLME_GetExtAddr?relay
        FUNCTION ??NLME_GetExtAddr?relay,00H
        EXTERN ??NLME_GetShortAddr?relay
        FUNCTION ??NLME_GetShortAddr?relay,00H
        EXTERN ??RegisterForKeys?relay
        FUNCTION ??RegisterForKeys?relay,00H
        EXTERN ??afRegister?relay
        FUNCTION ??afRegister?relay,00H
        EXTERN ??aps_AddGroup?relay
        FUNCTION ??aps_AddGroup?relay,00H
        EXTERN ??decAllListEPLeftSec?relay
        FUNCTION ??decAllListEPLeftSec?relay,00H
        EXTERN ??mySendByteBuf?relay
        FUNCTION ??mySendByteBuf?relay,00H
        EXTERN ??myprintf?relay
        FUNCTION ??myprintf?relay,00H
        EXTERN ??osal_memcpy?relay
        FUNCTION ??osal_memcpy?relay,00H
        EXTERN ??osal_msg_deallocate?relay
        FUNCTION ??osal_msg_deallocate?relay,00H
        EXTERN ??osal_msg_receive?relay
        FUNCTION ??osal_msg_receive?relay,00H
        EXTERN ??osal_start_timerEx?relay
        FUNCTION ??osal_start_timerEx?relay,00H

// E:\Github_Repository\zigbee-net-tech\ZStack-2.5.1a\Projects\zstack\Samples\SampleApp\Source\SampleApp.c
//    1 /**************************************************************************************************
//    2 Filename:       SampleApp.c
//    3 Revised:        $Date: 2009-03-18 15:56:27 -0700 (Wed, 18 Mar 2009) $
//    4 Revision:       $Revision: 19453 $
//    5 
//    6 Description:    Sample Application (no Profile).
//    7 **************************************************************************************************/
//    8 
//    9 /*********************************************************************
//   10 需要修改的文件包含功能如下：
//   11 ZMain/ZMain.c是主函数
//   12 HAL/hal_drivers.c进行外部中断的初始化
//   13 MT/MT_UART.c中进行串口消息的接收
//   14 SampleApp.c中定义中断响应函数，以及事件消息处理函数等
//   15 SingleLinkedList.c中定义了单链表的实现
//   16 *********************************************************************/
//   17 
//   18 /*********************************************************************
//   19 * INCLUDES
//   20 */
//   21 #include "OSAL.h"
//   22 #include "ZGlobals.h"
//   23 #include "AF.h"
//   24 #include "aps_groups.h"
//   25 #include "ZDObject.h"
//   26 #include "ZDProfile.h"
//   27 #include "ZDApp.h"
//   28 
//   29 #include "SampleApp.h"
//   30 #include "SampleAppHw.h"
//   31 #include "SinglyLinkedList.h"
//   32 
//   33 #include "OnBoard.h"

        ASEGN SFR_AN:DATA:NOROOT,089H
// unsigned char volatile __sfr P0IFG
P0IFG:
        DATA8
        DS 1

        ASEGN SFR_AN:DATA:NOROOT,090H
// union <unnamed> volatile __sfr _A_P1
_A_P1:
        DATA8
        DS 1

        ASEGN SFR_AN:DATA:NOROOT,0c0H
// union <unnamed> volatile __sfr _A_IRCON
_A_IRCON:
        DATA8
        DS 1

        ASEGN SFR_AN:DATA:NOROOT,0f4H
// unsigned char volatile __sfr P1SEL
P1SEL:
        DATA8
        DS 1

        ASEGN SFR_AN:DATA:NOROOT,0feH
// unsigned char volatile __sfr P1DIR
P1DIR:
        DATA8
        DS 1
//   34 
//   35 /* HAL */
//   36 #include "hal_lcd.h"
//   37 #include "hal_led.h"
//   38 #include "hal_key.h"
//   39 
//   40 #include "MT_UART.h"
//   41 #include "MT_APP.h"
//   42 #include "MT.h"
//   43 
//   44 /*******
//   45   一些测试用的宏开关
//   46 */
//   47 // #define NEED_TEST_DIStANCE
//   48 
//   49 /*********************************************************************
//   50 * MACROS
//   51 */
//   52 #define COIN_RECV_PIN      P0_4      //中断输入下降沿触发，定义P0.7口为中断方式接收投币器信号引脚40ms
//   53 #define REWARD_OUTPUT_PIN  P0_6      //中断输入下降沿触发，彩票奖励输出个数信号引脚，输出一个彩票奖励则产生一个40ms的低电平
//   54 
//   55 #define COIN_SIMULATE_PIN  P1_2      //输出，定义P1.2口为替换投币器模拟信号发生引脚
//   56 #define REWARD_RECV_PIN    P1_3      //输入，定义彩票机动作触发引脚，初始高电平，变成低电平表示游戏结束进行出彩票动作
//   57 #define REWARD_CTL_PIN     P1_4      //输出，代替彩票机的动作控制引脚，输出低电平开始出彩票
//   58 #define REWARD_BACK_PIN    P1_5      //输出，向游戏机反馈彩票纸的出票个数，模拟产生一个40ms的低电平脉冲
//   59 
//   60 #define UART0        0x00
//   61 #define COIN_SIGNAL_HALF_TIME 40 // Ms
//   62 #define REWARD_SIGNAL_HALF_TIME 40
//   63 
//   64 // This list should be filled with Application specific Cluster IDs.

        RSEG XDATA_ROM_C:CONST:REORDER:NOROOT(0)
        DATA8
//   65 const cId_t SampleApp_ClusterList[SAMPLEAPP_MAX_CLUSTERS] =
SampleApp_ClusterList:
        DATA16
        DW 1
        DW 2
        DW 0
        DW 0
//   66 {
//   67   SAMPLEAPP_PERIODIC_CLUSTERID,
//   68   SAMPLEAPP_FLASH_CLUSTERID
//   69 };
//   70 

        RSEG XDATA_ROM_C:CONST:REORDER:NOROOT(0)
        DATA8
//   71 const SimpleDescriptionFormat_t SampleApp_SimpleDesc =
SampleApp_SimpleDesc:
        DB 20
        DATA16
        DW 3848
        DW 1
        DATA8
        DB 0
        DB 4
        DATA16
        DW SampleApp_ClusterList
        DATA8
        DB 4
        DATA16
        DW SampleApp_ClusterList
//   72 {
//   73   SAMPLEAPP_ENDPOINT,              //  int Endpoint;
//   74   SAMPLEAPP_PROFID,                //  uint16 AppProfId[2];
//   75   SAMPLEAPP_DEVICEID,              //  uint16 AppDeviceId[2];
//   76   SAMPLEAPP_DEVICE_VERSION,        //  int   AppDevVer:4;
//   77   SAMPLEAPP_FLAGS,                 //  int   AppFlags:4;
//   78   SAMPLEAPP_MAX_CLUSTERS,          //  uint8  AppNumInClusters;
//   79   (cId_t *)SampleApp_ClusterList,  //  uint8 *pAppInClusterList;
//   80   SAMPLEAPP_MAX_CLUSTERS,          //  uint8  AppNumInClusters;
//   81   (cId_t *)SampleApp_ClusterList   //  uint8 *pAppInClusterList;
//   82 };
//   83 
//   84 // This is the Endpoint/Interface description.  It is defined here, but
//   85 // filled-in in SampleApp_Init().  Another way to go would be to fill
//   86 // in the structure here and make it a "const" (in code space).  The
//   87 // way it's defined in this sample app it is define in RAM.

        RSEG XDATA_Z:XDATA:NOROOT(0)
        DATA8
//   88 endPointDesc_t SampleApp_epDesc;
SampleApp_epDesc:
        DS 6
        REQUIRE __INIT_XDATA_Z

        RSEG XDATA_Z:XDATA:NOROOT(0)
        DATA8
//   89 afAddrType_t GenericApp_DstAddr;
GenericApp_DstAddr:
        DS 12
        REQUIRE __INIT_XDATA_Z

        RSEG XDATA_Z:XDATA:NOROOT(0)
        DATA8
//   90 afAddrType_t EndPoint_DstAddr;
EndPoint_DstAddr:
        DS 12
        REQUIRE __INIT_XDATA_Z
//   91 
//   92 /*********************************************************************
//   93 * LOCAL VARIABLES
//   94 */

        RSEG XDATA_Z:XDATA:NOROOT(0)
        DATA8
//   95 uint8 SampleApp_TaskID;   // Task ID for internal task/event processing
SampleApp_TaskID:
        DS 1
        REQUIRE __INIT_XDATA_Z
//   96 // This variable will be received when
//   97 // SampleApp_Init() is called.

        RSEG XDATA_Z:XDATA:NOROOT(0)
        DATA8
//   98 devStates_t SampleApp_NwkState;
SampleApp_NwkState:
        DS 1
        REQUIRE __INIT_XDATA_Z
//   99 

        RSEG XDATA_Z:XDATA:NOROOT(0)
        DATA8
//  100 uint8 SampleApp_TransID;  // This is the unique message ID (counter)
SampleApp_TransID:
        DS 1
        REQUIRE __INIT_XDATA_Z
//  101 

        RSEG XDATA_Z:XDATA:NOROOT(0)
        DATA8
//  102 afAddrType_t SampleApp_Periodic_DstAddr; // 用于协调器广播消息
SampleApp_Periodic_DstAddr:
        DS 12
        REQUIRE __INIT_XDATA_Z

        RSEG XDATA_Z:XDATA:NOROOT(0)
        DATA8
//  103 afAddrType_t SampleApp_TxAddr; // 用于终端设备向协调器报告短地址信息
SampleApp_TxAddr:
        DS 12
        REQUIRE __INIT_XDATA_Z
//  104 

        RSEG XDATA_Z:XDATA:NOROOT(0)
        DATA8
//  105 aps_Group_t SampleApp_Group;
SampleApp_Group:
        DS 18
        REQUIRE __INIT_XDATA_Z

        RSEG XDATA_Z:XDATA:NOROOT(0)
        DATA8
//  106 uint8 SampleAppPeriodicCounter = 0;
SampleAppPeriodicCounter:
        DS 1
        REQUIRE __INIT_XDATA_Z

        RSEG XDATA_Z:XDATA:NOROOT(0)
        DATA8
//  107 uint8 SampleAppFlashCounter = 0;
SampleAppFlashCounter:
        DS 1
        REQUIRE __INIT_XDATA_Z
//  108 

        RSEG XDATA_Z:XDATA:NOROOT(0)
        DATA16
//  109 LinkList LL; // 定义线性链表存储终端地址以及心跳信息
LL:
        DS 2
        REQUIRE __INIT_XDATA_Z
//  110 
//  111 /*********************************************************************
//  112 * LOCAL FUNCTIONS
//  113 */
//  114 void AfSendAddrInfo(uint8 cmd);
//  115 void AfReplyGetCoinCmd(void);
//  116 void SampleApp_HandleKeys( uint8 shift, uint8 keys );
//  117 void SampleApp_MessageMSGCB( afIncomingMSGPacket_t *pckt );
//  118 void SampleApp_SendPeriodicMessage( int8 whichKey );
//  119 void SampleApp_SendHeartBeatMessageCoor(void);
//  120 void SampleApp_SendHeartBeatMessageEnd(void);
//  121 void printAddrInfoHex(uint8* buf, uint8 dataLen);
//  122 void convertHexToStr(uint16 addr, uint8 lcdLineNum);
//  123 void checkGameIsOverReward(void);
//  124 

        RSEG XDATA_Z:XDATA:NOROOT(0)
        DATA8
//  125 int8 NeedCoinDelivered = 0; // 定义终端需要处理的投币个数
NeedCoinDelivered:
        DS 1
        REQUIRE __INIT_XDATA_Z

        RSEG XDATA_Z:XDATA:NOROOT(0)
        DATA8
//  126 int8 NeedCoinTransport = 0; // 需要转发的投币器信号数量
NeedCoinTransport:
        DS 1
        REQUIRE __INIT_XDATA_Z

        RSEG XDATA_Z:XDATA:NOROOT(0)
        DATA8
//  127 uint8 gameWillOver = 0; // 是否游戏结束开始出彩票
gameWillOver:
        DS 1
        REQUIRE __INIT_XDATA_Z

        RSEG XDATA_Z:XDATA:NOROOT(0)
        DATA8
//  128 uint8 rewardCount = 0;  // 一次游戏出彩票个数统计
rewardCount:
        DS 1
        REQUIRE __INIT_XDATA_Z
//  129 
//  130 /**
//  131   终端设备P1端口中断处理函数，用来接收投币器的信号
//  132 */
//  133 #ifdef END_DEVICE

        RSEG NEAR_CODE:CODE:NOROOT(0)
//  134 HAL_ISR_FUNCTION( port0Isr, P0INT_VECTOR ) // P0_5配置为投币器电平变化中断引脚，在HAL/Common/hal_drivers.c中进行的引脚初始化
port0Isr:
        CFI Block cfiBlock0 Using cfiCommon0
        CFI Function port0Isr
        CODE
//  135 { 
        FUNCALL port0Isr, osal_start_timerEx
        LOCFRAME ISTACK, 0, STACK
        LOCFRAME PSTACK, 0, STACK
        LOCFRAME XSTACK, 14, STACK
        LOCFRAME IOVERLAY, 0, STATIC
        LOCFRAME DOVERLAY, 0, STATIC
        ARGFRAME ISTACK, 0, STACK
        ARGFRAME PSTACK, 0, STACK
        ARGFRAME XSTACK, 14, STACK
        ARGFRAME IOVERLAY, 0, STATIC
        ARGFRAME DOVERLAY, 0, STATIC
        FUNCALL port0Isr, myprintf
        LOCFRAME ISTACK, 0, STACK
        LOCFRAME PSTACK, 0, STACK
        LOCFRAME XSTACK, 14, STACK
        LOCFRAME IOVERLAY, 0, STATIC
        LOCFRAME DOVERLAY, 0, STATIC
        ARGFRAME ISTACK, 0, STACK
        ARGFRAME PSTACK, 0, STACK
        ARGFRAME XSTACK, 14, STACK
        ARGFRAME IOVERLAY, 0, STATIC
        ARGFRAME DOVERLAY, 0, STATIC
        FUNCALL port0Isr, osal_start_timerEx
        LOCFRAME ISTACK, 0, STACK
        LOCFRAME PSTACK, 0, STACK
        LOCFRAME XSTACK, 14, STACK
        LOCFRAME IOVERLAY, 0, STATIC
        LOCFRAME DOVERLAY, 0, STATIC
        ARGFRAME ISTACK, 0, STACK
        ARGFRAME PSTACK, 0, STACK
        ARGFRAME XSTACK, 14, STACK
        ARGFRAME IOVERLAY, 0, STATIC
        ARGFRAME DOVERLAY, 0, STATIC
        FUNCALL port0Isr, myprintf
        LOCFRAME ISTACK, 0, STACK
        LOCFRAME PSTACK, 0, STACK
        LOCFRAME XSTACK, 14, STACK
        LOCFRAME IOVERLAY, 0, STATIC
        LOCFRAME DOVERLAY, 0, STATIC
        ARGFRAME ISTACK, 0, STACK
        ARGFRAME PSTACK, 0, STACK
        ARGFRAME XSTACK, 14, STACK
        ARGFRAME IOVERLAY, 0, STATIC
        ARGFRAME DOVERLAY, 0, STATIC
        PUSH    A
        CFI A Frame(CFA_SP, 3)
        CFI CFA_SP SP+-3
        MOV     A,#-0xe
        LCALL   ?INTERRUPT_ENTER_XSP
        CFI B load(1, XDATA, add(CFA_XSP16, literal(-1)))
        CFI VB load(1, XDATA, add(CFA_XSP16, literal(-2)))
        CFI PSW load(1, XDATA, add(CFA_XSP16, literal(-3)))
        CFI DPL0 load(1, XDATA, add(CFA_XSP16, literal(-4)))
        CFI DPH0 load(1, XDATA, add(CFA_XSP16, literal(-5)))
        CFI R7 load(1, XDATA, add(CFA_XSP16, literal(-6)))
        CFI R6 load(1, XDATA, add(CFA_XSP16, literal(-7)))
        CFI R5 load(1, XDATA, add(CFA_XSP16, literal(-8)))
        CFI R4 load(1, XDATA, add(CFA_XSP16, literal(-9)))
        CFI V0 load(1, XDATA, add(CFA_XSP16, literal(-10)))
        CFI R3 load(1, XDATA, add(CFA_XSP16, literal(-11)))
        CFI R2 load(1, XDATA, add(CFA_XSP16, literal(-12)))
        CFI R1 load(1, XDATA, add(CFA_XSP16, literal(-13)))
        CFI R0 load(1, XDATA, add(CFA_XSP16, literal(-14)))
        CFI CFA_XSP16 add(XSP16, 14)
        ; Saved register size: 14
        ; Auto size: 0
//  136   if((P0IFG >> 4) & 0x1 == 1) { // 中断p0_4引脚产生中断，投币信号
        MOV     A,0x89
        MOV     C,0xE0 /* A   */.4
        JNC     ??port0Isr_0
//  137     P0IFG &= ~(0x1 << 4);       //端口0中断状态标志
        ANL     0x89,#0xef
//  138     NeedCoinTransport = 1;
        MOV     DPTR,#NeedCoinTransport
        MOV     A,#0x1
        MOVX    @DPTR,A
//  139     osal_start_timerEx( SampleApp_TaskID, SAMPLEAPP_TRANSPORT_COIN_MSG_EVT, COIN_SIGNAL_HALF_TIME); // 产生一个定时器事件
        ; Setup parameters for call to function osal_start_timerEx
        MOV     R4,#0x28
        MOV     R5,#0x0
        MOV     R2,#0x4
        MOV     R3,#0x0
        MOV     DPTR,#SampleApp_TaskID
        MOVX    A,@DPTR
        MOV     R1,A
        LCALL   ??osal_start_timerEx?relay
//  140     myprintf("get p0_4 coin input interrupt\n");
        ; Setup parameters for call to function myprintf
        MOV     R2,#`?<Constant "get p0_4 coin input i...">` & 0xff
        MOV     R3,#(`?<Constant "get p0_4 coin input i...">` >> 8) & 0xff
        LCALL   ??myprintf?relay
//  141   } 
//  142   if((P0IFG >> 6) & 0x1 == 1) { // P0_6引脚，彩票机出一个彩票中断信号，转发到游戏机并上传服务器
??port0Isr_0:
        MOV     A,0x89
        MOV     C,0xE0 /* A   */.6
        JNC     ??port0Isr_1
//  143     P0IFG &= ~(0x1 << 6);    
        ANL     0x89,#0xbf
//  144     osal_start_timerEx( SampleApp_TaskID, SAMPLEAPP_TRANSPORT_REWARD_MSG_EVT, REWARD_SIGNAL_HALF_TIME); // 产生一个定时器事件
        ; Setup parameters for call to function osal_start_timerEx
        MOV     R4,#0x28
        MOV     R5,#0x0
        MOV     R2,#0x8
        MOV     R3,#0x0
        MOV     DPTR,#SampleApp_TaskID
        MOVX    A,@DPTR
        MOV     R1,A
        LCALL   ??osal_start_timerEx?relay
//  145     myprintf("Get p0_6 one reward interrupt\n");
        ; Setup parameters for call to function myprintf
        MOV     R2,#`?<Constant "Get p0_6 one reward i...">` & 0xff
        MOV     R3,#(`?<Constant "Get p0_6 one reward i...">` >> 8) & 0xff
        LCALL   ??myprintf?relay
//  146   }
//  147   
//  148   P0IF = 0;        //端口0中断标志，0表示无中断未决，1表示有中断未决，需要每次触发之后置0，不然会一直触发中断 
??port0Isr_1:
        CLR     0xc0.5
//  149 }
        MOV     R7,#0x1
        LJMP    ?INTERRUPT_LEAVE_XSP
        CFI EndBlock cfiBlock0
        REQUIRE P0IFG
        REQUIRE _A_IRCON
//  150 #endif
//  151 
//  152 /**
//  153 * 自定义任务初始化函数
//  154 */

        RSEG BANKED_CODE:CODE:NOROOT(0)
//  155 void SampleApp_Init( uint8 task_id )
SampleApp_Init:
        CFI Block cfiBlock1 Using cfiCommon1
        CFI Function SampleApp_Init
        CODE
//  156 {
        FUNCALL SampleApp_Init, afRegister
        LOCFRAME ISTACK, 0, STACK
        LOCFRAME PSTACK, 0, STACK
        LOCFRAME XSTACK, 11, STACK
        LOCFRAME IOVERLAY, 0, STATIC
        LOCFRAME DOVERLAY, 0, STATIC
        ARGFRAME ISTACK, 0, STACK
        ARGFRAME PSTACK, 0, STACK
        ARGFRAME XSTACK, 11, STACK
        ARGFRAME IOVERLAY, 0, STATIC
        ARGFRAME DOVERLAY, 0, STATIC
        FUNCALL SampleApp_Init, RegisterForKeys
        LOCFRAME ISTACK, 0, STACK
        LOCFRAME PSTACK, 0, STACK
        LOCFRAME XSTACK, 11, STACK
        LOCFRAME IOVERLAY, 0, STATIC
        LOCFRAME DOVERLAY, 0, STATIC
        ARGFRAME ISTACK, 0, STACK
        ARGFRAME PSTACK, 0, STACK
        ARGFRAME XSTACK, 11, STACK
        ARGFRAME IOVERLAY, 0, STATIC
        ARGFRAME DOVERLAY, 0, STATIC
        FUNCALL SampleApp_Init, osal_memcpy
        LOCFRAME ISTACK, 0, STACK
        LOCFRAME PSTACK, 0, STACK
        LOCFRAME XSTACK, 14, STACK
        LOCFRAME IOVERLAY, 0, STATIC
        LOCFRAME DOVERLAY, 0, STATIC
        ARGFRAME ISTACK, 0, STACK
        ARGFRAME PSTACK, 0, STACK
        ARGFRAME XSTACK, 14, STACK
        ARGFRAME IOVERLAY, 0, STATIC
        ARGFRAME DOVERLAY, 0, STATIC
        FUNCALL SampleApp_Init, aps_AddGroup
        LOCFRAME ISTACK, 0, STACK
        LOCFRAME PSTACK, 0, STACK
        LOCFRAME XSTACK, 11, STACK
        LOCFRAME IOVERLAY, 0, STATIC
        LOCFRAME DOVERLAY, 0, STATIC
        ARGFRAME ISTACK, 0, STACK
        ARGFRAME PSTACK, 0, STACK
        ARGFRAME XSTACK, 11, STACK
        ARGFRAME IOVERLAY, 0, STATIC
        ARGFRAME DOVERLAY, 0, STATIC
        FUNCALL SampleApp_Init, MT_UartInit
        LOCFRAME ISTACK, 0, STACK
        LOCFRAME PSTACK, 0, STACK
        LOCFRAME XSTACK, 11, STACK
        LOCFRAME IOVERLAY, 0, STATIC
        LOCFRAME DOVERLAY, 0, STATIC
        ARGFRAME ISTACK, 0, STACK
        ARGFRAME PSTACK, 0, STACK
        ARGFRAME XSTACK, 11, STACK
        ARGFRAME IOVERLAY, 0, STATIC
        ARGFRAME DOVERLAY, 0, STATIC
        FUNCALL SampleApp_Init, MT_UartRegisterTaskID
        LOCFRAME ISTACK, 0, STACK
        LOCFRAME PSTACK, 0, STACK
        LOCFRAME XSTACK, 11, STACK
        LOCFRAME IOVERLAY, 0, STATIC
        LOCFRAME DOVERLAY, 0, STATIC
        ARGFRAME ISTACK, 0, STACK
        ARGFRAME PSTACK, 0, STACK
        ARGFRAME XSTACK, 11, STACK
        ARGFRAME IOVERLAY, 0, STATIC
        ARGFRAME DOVERLAY, 0, STATIC
        FUNCALL SampleApp_Init, myprintf
        LOCFRAME ISTACK, 0, STACK
        LOCFRAME PSTACK, 0, STACK
        LOCFRAME XSTACK, 11, STACK
        LOCFRAME IOVERLAY, 0, STATIC
        LOCFRAME DOVERLAY, 0, STATIC
        ARGFRAME ISTACK, 0, STACK
        ARGFRAME PSTACK, 0, STACK
        ARGFRAME XSTACK, 11, STACK
        ARGFRAME IOVERLAY, 0, STATIC
        ARGFRAME DOVERLAY, 0, STATIC
        MOV     A,#-0xb
        LCALL   ?BANKED_ENTER_XDATA
        CFI DPH0 load(1, XDATA, add(CFA_XSP16, literal(-1)))
        CFI DPL0 load(1, XDATA, add(CFA_XSP16, literal(-2)))
        CFI ?BRET_EXT load(1, XDATA, add(CFA_XSP16, literal(-3)))
        CFI ?RET_HIGH load(1, XDATA, add(CFA_XSP16, literal(-4)))
        CFI ?RET_LOW load(1, XDATA, add(CFA_XSP16, literal(-5)))
        CFI R7 load(1, XDATA, add(CFA_XSP16, literal(-6)))
        CFI V2 load(1, XDATA, add(CFA_XSP16, literal(-7)))
        CFI V1 load(1, XDATA, add(CFA_XSP16, literal(-8)))
        CFI V0 load(1, XDATA, add(CFA_XSP16, literal(-9)))
        CFI VB load(1, XDATA, add(CFA_XSP16, literal(-10)))
        CFI R6 load(1, XDATA, add(CFA_XSP16, literal(-11)))
        CFI CFA_SP SP+0
        CFI CFA_XSP16 add(XSP16, 11)
        ; Saved register size: 11
        ; Auto size: 0
        MOV     A,R1
        MOV     R6,A
//  157   halUARTCfg_t uartConfig;
//  158   
//  159   SampleApp_TaskID = task_id;
        MOV     DPTR,#SampleApp_TaskID
        MOVX    @DPTR,A
//  160   SampleApp_NwkState = DEV_INIT;
        MOV     DPTR,#SampleApp_NwkState
        MOV     A,#0x1
        MOVX    @DPTR,A
//  161   SampleApp_TransID = 0;
        MOV     DPTR,#SampleApp_TransID
        CLR     A
        MOVX    @DPTR,A
//  162   
//  163 #ifdef END_DEVICE
//  164   //P1_2输出，投币器模拟信号产生引脚
//  165   P1SEL &= ~(0x01 << 2);         //设置P1.2口为普通IO
        ANL     0xf4,#0xfb
//  166   P1DIR |= (0x01 << 2);          //设置P1.2口为输出
        ORL     0xfe,#0x4
//  167   COIN_SIMULATE_PIN = 1;       // 投币器信号模拟输出引脚
        SETB    0x90.2
//  168   
//  169   //P1_3输入，彩票机动作触发引脚，检测到变成低电平开始出彩票，在主函数中需要不停的读取P1.3引脚状态
//  170   P1SEL &= ~(0x01 << 3);
        ANL     0xf4,#0xf7
//  171   P1DIR &= ~(0x01 << 3);
        ANL     0xfe,#0xf7
//  172 
//  173   // P1_4输出，代替彩票机的动作控制引脚
//  174   P1SEL &= ~(0x01 << 4);
        ANL     0xf4,#0xef
//  175   P1DIR |= (0x01 << 4);
        ORL     0xfe,#0x10
//  176   REWARD_CTL_PIN = 1; // 初始高电平，低电平彩票机开始动作
        SETB    0x90.4
//  177   
//  178   // P1_5输出，向游戏机模拟反馈出了一个彩票信号，低电平40Ms
//  179   P1SEL &= ~(0x01 << 5);
        ANL     0xf4,#0xdf
//  180   P1DIR |= (0x01 << 5);
        ORL     0xfe,#0x20
//  181   REWARD_BACK_PIN = 1;  
        SETB    0x90.5
//  182 #endif
//  183   
//  184 #if defined ( BUILD_ALL_DEVICES )
//  185   // The "Demo" target is setup to have BUILD_ALL_DEVICES and HOLD_AUTO_START
//  186   // We are looking at a jumper (defined in SampleAppHw.c) to be jumpered
//  187   // together - if they are - we will start up a coordinator. Otherwise,
//  188   // the device will start as a router.
//  189   if ( readCoordinatorJumper() )
//  190     zgDeviceLogicalType = ZG_DEVICETYPE_COORDINATOR;
//  191   else
//  192     zgDeviceLogicalType = ZG_DEVICETYPE_ROUTER;
//  193 #endif // BUILD_ALL_DEVICES
//  194   
//  195 #if defined ( HOLD_AUTO_START )
//  196   // HOLD_AUTO_START is a compile option that will surpress ZDApp
//  197   //  from starting the device and wait for the application to
//  198   //  start the device.
//  199   ZDOInitDevice(0);
//  200 #endif
//  201   
//  202   GenericApp_DstAddr.addrMode = (afAddrMode_t)AddrNotPresent;
        MOV     DPTR,#GenericApp_DstAddr + 8
        MOVX    @DPTR,A
//  203   GenericApp_DstAddr.endPoint = 0;
        INC     DPTR
        MOVX    @DPTR,A
//  204   GenericApp_DstAddr.addr.shortAddr = 0;
        MOV     DPTR,#GenericApp_DstAddr
        MOVX    @DPTR,A
        INC     DPTR
        MOVX    @DPTR,A
//  205   
//  206   // Setup for the periodic message's destination address
//  207   // Broadcast to everyone
//  208   // 协调器广播发送数据到终端
//  209   SampleApp_Periodic_DstAddr.addrMode = (afAddrMode_t)AddrBroadcast;
        MOV     DPTR,#SampleApp_Periodic_DstAddr + 8
        MOV     A,#0xf
        MOVX    @DPTR,A
//  210   SampleApp_Periodic_DstAddr.endPoint = SAMPLEAPP_ENDPOINT;
        INC     DPTR
        MOV     A,#0x14
        MOVX    @DPTR,A
//  211   SampleApp_Periodic_DstAddr.addr.shortAddr = 0xFFFF; // 广播地址
        MOV     DPTR,#SampleApp_Periodic_DstAddr
        MOV     A,#-0x1
        MOVX    @DPTR,A
        INC     DPTR
        MOVX    @DPTR,A
//  212   
//  213   // 终端单播发送数据到协调器
//  214   SampleApp_TxAddr.addrMode = (afAddrMode_t)Addr16Bit;
        MOV     DPTR,#SampleApp_TxAddr + 8
        MOV     A,#0x2
        MOVX    @DPTR,A
//  215   SampleApp_TxAddr.endPoint = SAMPLEAPP_ENDPOINT;
        INC     DPTR
        MOV     A,#0x14
        MOVX    @DPTR,A
//  216   SampleApp_TxAddr.addr.shortAddr = 0x00; // 单播协调器地址
        MOV     DPTR,#SampleApp_TxAddr
        CLR     A
        MOVX    @DPTR,A
        INC     DPTR
        MOVX    @DPTR,A
//  217   
//  218   // 协调器单播发送到指定地址的终端上  
//  219   EndPoint_DstAddr.addrMode = (afAddrMode_t)Addr16Bit;
        MOV     DPTR,#EndPoint_DstAddr + 8
        MOV     A,#0x2
        MOVX    @DPTR,A
//  220   EndPoint_DstAddr.endPoint = SAMPLEAPP_ENDPOINT;
        INC     DPTR
        MOV     A,#0x14
        MOVX    @DPTR,A
//  221   EndPoint_DstAddr.addr.shortAddr = 0x00; // 在发送的时候动态修改终端地址
        MOV     DPTR,#EndPoint_DstAddr
        CLR     A
        MOVX    @DPTR,A
        INC     DPTR
        MOVX    @DPTR,A
//  222   
//  223   // Fill out the endpoint description.
//  224   SampleApp_epDesc.endPoint = SAMPLEAPP_ENDPOINT; // 端点号
        MOV     DPTR,#SampleApp_epDesc
        MOV     A,#0x14
        MOVX    @DPTR,A
//  225   SampleApp_epDesc.task_id = &SampleApp_TaskID; // 端点对应的任务
        INC     DPTR
        MOV     A,#SampleApp_TaskID & 0xff
        MOVX    @DPTR,A
        INC     DPTR
        MOV     A,#(SampleApp_TaskID >> 8) & 0xff
        MOVX    @DPTR,A
//  226   SampleApp_epDesc.simpleDesc = (SimpleDescriptionFormat_t *)&SampleApp_SimpleDesc; // 简单描述符
        INC     DPTR
        MOV     A,#SampleApp_SimpleDesc & 0xff
        MOVX    @DPTR,A
        INC     DPTR
        MOV     A,#(SampleApp_SimpleDesc >> 8) & 0xff
        MOVX    @DPTR,A
//  227   SampleApp_epDesc.latencyReq = noLatencyReqs;  
        INC     DPTR
        CLR     A
        MOVX    @DPTR,A
//  228   afRegister( &SampleApp_epDesc ); // 注册一个应用的端点描述符，注册一个新的端点到任务，这样当有新的消息到来时直接发送到指定的任务中
        ; Setup parameters for call to function afRegister
        MOV     R2,#SampleApp_epDesc & 0xff
        MOV     R3,#(SampleApp_epDesc >> 8) & 0xff
        LCALL   ??afRegister?relay
//  229   
//  230   // 绑定按键事件到任务ID
//  231   RegisterForKeys( SampleApp_TaskID );
        ; Setup parameters for call to function RegisterForKeys
        MOV     DPTR,#SampleApp_TaskID
        MOVX    A,@DPTR
        MOV     R1,A
        LCALL   ??RegisterForKeys?relay
//  232   
//  233   // By default, all devices start out in Group 1
//  234   SampleApp_Group.ID = 0x0001;
        MOV     DPTR,#SampleApp_Group
        MOV     A,#0x1
        MOVX    @DPTR,A
        INC     DPTR
        CLR     A
        MOVX    @DPTR,A
//  235   osal_memcpy( SampleApp_Group.name, "Group 1", 7 );
        ; Setup parameters for call to function osal_memcpy
        MOV     ?V0 + 0,#`?<Constant "Group 1">` & 0xff
        MOV     ?V0 + 1,#(`?<Constant "Group 1">` >> 8) & 0xff
        MOV     ?V0 + 2,A
        MOV     R0,#?V0 + 0
        LCALL   ?PUSH_XSTACK_I_THREE
        CFI CFA_XSP16 add(XSP16, 14)
        MOV     R4,#0x7
        MOV     R5,#0x0
        MOV     R2,#(SampleApp_Group + 2) & 0xff
        MOV     R3,#((SampleApp_Group + 2) >> 8) & 0xff
        LCALL   ??Subroutine20_0 & 0xFFFF
??CrossCallReturnLabel_42:
        LCALL   ?DEALLOC_XSTACK8
        CFI CFA_XSP16 add(XSP16, 11)
//  236   aps_AddGroup( SAMPLEAPP_ENDPOINT, &SampleApp_Group );
        ; Setup parameters for call to function aps_AddGroup
        MOV     R2,#SampleApp_Group & 0xff
        MOV     R3,#(SampleApp_Group >> 8) & 0xff
        MOV     R1,#0x14
        LCALL   ??aps_AddGroup?relay
//  237   
//  238   // 初始化串口
//  239   MT_UartInit();                    //串口初始化
        ; Setup parameters for call to function MT_UartInit
        LCALL   ??MT_UartInit?relay
//  240   MT_UartRegisterTaskID(task_id);   //注册串口任务
        ; Setup parameters for call to function MT_UartRegisterTaskID
        MOV     A,R6
        MOV     R1,A
        LCALL   ??MT_UartRegisterTaskID?relay
//  241   myprintf("UartInit OK\n");
        ; Setup parameters for call to function myprintf
        MOV     R2,#`?<Constant "UartInit OK\\n">` & 0xff
        MOV     R3,#(`?<Constant "UartInit OK\\n">` >> 8) & 0xff
        LCALL   ??myprintf?relay
//  242 
//  243 #ifdef ZDO_COORDINATOR   
//  244   int ret = InitList_L(&LL); // 单链表初始化
//  245   if(ret == OVERFLOW) {
//  246     myprintf("InitList_L OVERFLOW\n");
//  247   }
//  248 #endif  
//  249 }
        LJMP    ??Subroutine21_0 & 0xFFFF
        CFI EndBlock cfiBlock1
        REQUIRE P1SEL
        REQUIRE P1DIR
        REQUIRE _A_P1
//  250 
//  251 /*********************************************************************
//  252 * @fn      SampleApp_ProcessEvent
//  253 *
//  254 * @brief   Generic Application Task event processor.  This function
//  255 *          is called to process all events for the task.  Events
//  256 *          include timers, messages and any other user defined events.
//  257 *          系统各种事件的处理函数
//  258 *
//  259 * @param   task_id  - The OSAL assigned task ID.
//  260 * @param   events - events to process.  This is a bit map and can
//  261 *                   contain more than one event.
//  262 *
//  263 * @return  none
//  264 */

        RSEG BANKED_CODE:CODE:NOROOT(0)
//  265 uint16 SampleApp_ProcessEvent( uint8 task_id, uint16 events )
SampleApp_ProcessEvent:
        CFI Block cfiBlock2 Using cfiCommon1
        CFI Function SampleApp_ProcessEvent
        CODE
//  266 {
        FUNCALL SampleApp_ProcessEvent, osal_msg_receive
        LOCFRAME ISTACK, 0, STACK
        LOCFRAME PSTACK, 0, STACK
        LOCFRAME XSTACK, 15, STACK
        LOCFRAME IOVERLAY, 0, STATIC
        LOCFRAME DOVERLAY, 0, STATIC
        ARGFRAME ISTACK, 0, STACK
        ARGFRAME PSTACK, 0, STACK
        ARGFRAME XSTACK, 15, STACK
        ARGFRAME IOVERLAY, 0, STATIC
        ARGFRAME DOVERLAY, 0, STATIC
        FUNCALL SampleApp_ProcessEvent, myprintf
        LOCFRAME ISTACK, 0, STACK
        LOCFRAME PSTACK, 0, STACK
        LOCFRAME XSTACK, 17, STACK
        LOCFRAME IOVERLAY, 0, STATIC
        LOCFRAME DOVERLAY, 0, STATIC
        ARGFRAME ISTACK, 0, STACK
        ARGFRAME PSTACK, 0, STACK
        ARGFRAME XSTACK, 17, STACK
        ARGFRAME IOVERLAY, 0, STATIC
        ARGFRAME DOVERLAY, 0, STATIC
        FUNCALL SampleApp_ProcessEvent, osal_msg_deallocate
        LOCFRAME ISTACK, 0, STACK
        LOCFRAME PSTACK, 0, STACK
        LOCFRAME XSTACK, 15, STACK
        LOCFRAME IOVERLAY, 0, STATIC
        LOCFRAME DOVERLAY, 0, STATIC
        ARGFRAME ISTACK, 0, STACK
        ARGFRAME PSTACK, 0, STACK
        ARGFRAME XSTACK, 15, STACK
        ARGFRAME IOVERLAY, 0, STATIC
        ARGFRAME DOVERLAY, 0, STATIC
        FUNCALL SampleApp_ProcessEvent, osal_msg_receive
        LOCFRAME ISTACK, 0, STACK
        LOCFRAME PSTACK, 0, STACK
        LOCFRAME XSTACK, 15, STACK
        LOCFRAME IOVERLAY, 0, STATIC
        LOCFRAME DOVERLAY, 0, STATIC
        ARGFRAME ISTACK, 0, STACK
        ARGFRAME PSTACK, 0, STACK
        ARGFRAME XSTACK, 15, STACK
        ARGFRAME IOVERLAY, 0, STATIC
        ARGFRAME DOVERLAY, 0, STATIC
        FUNCALL SampleApp_ProcessEvent, myprintf
        LOCFRAME ISTACK, 0, STACK
        LOCFRAME PSTACK, 0, STACK
        LOCFRAME XSTACK, 15, STACK
        LOCFRAME IOVERLAY, 0, STATIC
        LOCFRAME DOVERLAY, 0, STATIC
        ARGFRAME ISTACK, 0, STACK
        ARGFRAME PSTACK, 0, STACK
        ARGFRAME XSTACK, 15, STACK
        ARGFRAME IOVERLAY, 0, STATIC
        ARGFRAME DOVERLAY, 0, STATIC
        FUNCALL SampleApp_ProcessEvent, SampleApp_HandleKeys
        LOCFRAME ISTACK, 0, STACK
        LOCFRAME PSTACK, 0, STACK
        LOCFRAME XSTACK, 15, STACK
        LOCFRAME IOVERLAY, 0, STATIC
        LOCFRAME DOVERLAY, 0, STATIC
        ARGFRAME ISTACK, 0, STACK
        ARGFRAME PSTACK, 0, STACK
        ARGFRAME XSTACK, 15, STACK
        ARGFRAME IOVERLAY, 0, STATIC
        ARGFRAME DOVERLAY, 0, STATIC
        FUNCALL SampleApp_ProcessEvent, SampleApp_MessageMSGCB
        LOCFRAME ISTACK, 0, STACK
        LOCFRAME PSTACK, 0, STACK
        LOCFRAME XSTACK, 15, STACK
        LOCFRAME IOVERLAY, 0, STATIC
        LOCFRAME DOVERLAY, 0, STATIC
        ARGFRAME ISTACK, 0, STACK
        ARGFRAME PSTACK, 0, STACK
        ARGFRAME XSTACK, 15, STACK
        ARGFRAME IOVERLAY, 0, STATIC
        ARGFRAME DOVERLAY, 0, STATIC
        FUNCALL SampleApp_ProcessEvent, mySendByteBuf
        LOCFRAME ISTACK, 0, STACK
        LOCFRAME PSTACK, 0, STACK
        LOCFRAME XSTACK, 15, STACK
        LOCFRAME IOVERLAY, 0, STATIC
        LOCFRAME DOVERLAY, 0, STATIC
        ARGFRAME ISTACK, 0, STACK
        ARGFRAME PSTACK, 0, STACK
        ARGFRAME XSTACK, 15, STACK
        ARGFRAME IOVERLAY, 0, STATIC
        ARGFRAME DOVERLAY, 0, STATIC
        FUNCALL SampleApp_ProcessEvent, osal_start_timerEx
        LOCFRAME ISTACK, 0, STACK
        LOCFRAME PSTACK, 0, STACK
        LOCFRAME XSTACK, 15, STACK
        LOCFRAME IOVERLAY, 0, STATIC
        LOCFRAME DOVERLAY, 0, STATIC
        ARGFRAME ISTACK, 0, STACK
        ARGFRAME PSTACK, 0, STACK
        ARGFRAME XSTACK, 15, STACK
        ARGFRAME IOVERLAY, 0, STATIC
        ARGFRAME DOVERLAY, 0, STATIC
        FUNCALL SampleApp_ProcessEvent, HalLedBlink
        LOCFRAME ISTACK, 0, STACK
        LOCFRAME PSTACK, 0, STACK
        LOCFRAME XSTACK, 15, STACK
        LOCFRAME IOVERLAY, 0, STATIC
        LOCFRAME DOVERLAY, 0, STATIC
        ARGFRAME ISTACK, 0, STACK
        ARGFRAME PSTACK, 0, STACK
        ARGFRAME XSTACK, 15, STACK
        ARGFRAME IOVERLAY, 0, STATIC
        ARGFRAME DOVERLAY, 0, STATIC
        FUNCALL SampleApp_ProcessEvent, HalLedBlink
        LOCFRAME ISTACK, 0, STACK
        LOCFRAME PSTACK, 0, STACK
        LOCFRAME XSTACK, 15, STACK
        LOCFRAME IOVERLAY, 0, STATIC
        LOCFRAME DOVERLAY, 0, STATIC
        ARGFRAME ISTACK, 0, STACK
        ARGFRAME PSTACK, 0, STACK
        ARGFRAME XSTACK, 15, STACK
        ARGFRAME IOVERLAY, 0, STATIC
        ARGFRAME DOVERLAY, 0, STATIC
        FUNCALL SampleApp_ProcessEvent, AfSendAddrInfo
        LOCFRAME ISTACK, 0, STACK
        LOCFRAME PSTACK, 0, STACK
        LOCFRAME XSTACK, 15, STACK
        LOCFRAME IOVERLAY, 0, STATIC
        LOCFRAME DOVERLAY, 0, STATIC
        ARGFRAME ISTACK, 0, STACK
        ARGFRAME PSTACK, 0, STACK
        ARGFRAME XSTACK, 15, STACK
        ARGFRAME IOVERLAY, 0, STATIC
        ARGFRAME DOVERLAY, 0, STATIC
        FUNCALL SampleApp_ProcessEvent, HalLedBlink
        LOCFRAME ISTACK, 0, STACK
        LOCFRAME PSTACK, 0, STACK
        LOCFRAME XSTACK, 15, STACK
        LOCFRAME IOVERLAY, 0, STATIC
        LOCFRAME DOVERLAY, 0, STATIC
        ARGFRAME ISTACK, 0, STACK
        ARGFRAME PSTACK, 0, STACK
        ARGFRAME XSTACK, 15, STACK
        ARGFRAME IOVERLAY, 0, STATIC
        ARGFRAME DOVERLAY, 0, STATIC
        FUNCALL SampleApp_ProcessEvent, osal_start_timerEx
        LOCFRAME ISTACK, 0, STACK
        LOCFRAME PSTACK, 0, STACK
        LOCFRAME XSTACK, 15, STACK
        LOCFRAME IOVERLAY, 0, STATIC
        LOCFRAME DOVERLAY, 0, STATIC
        ARGFRAME ISTACK, 0, STACK
        ARGFRAME PSTACK, 0, STACK
        ARGFRAME XSTACK, 15, STACK
        ARGFRAME IOVERLAY, 0, STATIC
        ARGFRAME DOVERLAY, 0, STATIC
        FUNCALL SampleApp_ProcessEvent, SampleApp_SendHeartBeatMessageEnd
        LOCFRAME ISTACK, 0, STACK
        LOCFRAME PSTACK, 0, STACK
        LOCFRAME XSTACK, 15, STACK
        LOCFRAME IOVERLAY, 0, STATIC
        LOCFRAME DOVERLAY, 0, STATIC
        ARGFRAME ISTACK, 0, STACK
        ARGFRAME PSTACK, 0, STACK
        ARGFRAME XSTACK, 15, STACK
        ARGFRAME IOVERLAY, 0, STATIC
        ARGFRAME DOVERLAY, 0, STATIC
        FUNCALL SampleApp_ProcessEvent, osal_start_timerEx
        LOCFRAME ISTACK, 0, STACK
        LOCFRAME PSTACK, 0, STACK
        LOCFRAME XSTACK, 15, STACK
        LOCFRAME IOVERLAY, 0, STATIC
        LOCFRAME DOVERLAY, 0, STATIC
        ARGFRAME ISTACK, 0, STACK
        ARGFRAME PSTACK, 0, STACK
        ARGFRAME XSTACK, 15, STACK
        ARGFRAME IOVERLAY, 0, STATIC
        ARGFRAME DOVERLAY, 0, STATIC
        FUNCALL SampleApp_ProcessEvent, myprintf
        LOCFRAME ISTACK, 0, STACK
        LOCFRAME PSTACK, 0, STACK
        LOCFRAME XSTACK, 19, STACK
        LOCFRAME IOVERLAY, 0, STATIC
        LOCFRAME DOVERLAY, 0, STATIC
        ARGFRAME ISTACK, 0, STACK
        ARGFRAME PSTACK, 0, STACK
        ARGFRAME XSTACK, 19, STACK
        ARGFRAME IOVERLAY, 0, STATIC
        ARGFRAME DOVERLAY, 0, STATIC
        FUNCALL SampleApp_ProcessEvent, osal_start_timerEx
        LOCFRAME ISTACK, 0, STACK
        LOCFRAME PSTACK, 0, STACK
        LOCFRAME XSTACK, 15, STACK
        LOCFRAME IOVERLAY, 0, STATIC
        LOCFRAME DOVERLAY, 0, STATIC
        ARGFRAME ISTACK, 0, STACK
        ARGFRAME PSTACK, 0, STACK
        ARGFRAME XSTACK, 15, STACK
        ARGFRAME IOVERLAY, 0, STATIC
        ARGFRAME DOVERLAY, 0, STATIC
        FUNCALL SampleApp_ProcessEvent, myprintf
        LOCFRAME ISTACK, 0, STACK
        LOCFRAME PSTACK, 0, STACK
        LOCFRAME XSTACK, 17, STACK
        LOCFRAME IOVERLAY, 0, STATIC
        LOCFRAME DOVERLAY, 0, STATIC
        ARGFRAME ISTACK, 0, STACK
        ARGFRAME PSTACK, 0, STACK
        ARGFRAME XSTACK, 17, STACK
        ARGFRAME IOVERLAY, 0, STATIC
        ARGFRAME DOVERLAY, 0, STATIC
        FUNCALL SampleApp_ProcessEvent, osal_start_timerEx
        LOCFRAME ISTACK, 0, STACK
        LOCFRAME PSTACK, 0, STACK
        LOCFRAME XSTACK, 15, STACK
        LOCFRAME IOVERLAY, 0, STATIC
        LOCFRAME DOVERLAY, 0, STATIC
        ARGFRAME ISTACK, 0, STACK
        ARGFRAME PSTACK, 0, STACK
        ARGFRAME XSTACK, 15, STACK
        ARGFRAME IOVERLAY, 0, STATIC
        ARGFRAME DOVERLAY, 0, STATIC
        FUNCALL SampleApp_ProcessEvent, myprintf
        LOCFRAME ISTACK, 0, STACK
        LOCFRAME PSTACK, 0, STACK
        LOCFRAME XSTACK, 17, STACK
        LOCFRAME IOVERLAY, 0, STATIC
        LOCFRAME DOVERLAY, 0, STATIC
        ARGFRAME ISTACK, 0, STACK
        ARGFRAME PSTACK, 0, STACK
        ARGFRAME XSTACK, 17, STACK
        ARGFRAME IOVERLAY, 0, STATIC
        ARGFRAME DOVERLAY, 0, STATIC
        FUNCALL SampleApp_ProcessEvent, osal_start_timerEx
        LOCFRAME ISTACK, 0, STACK
        LOCFRAME PSTACK, 0, STACK
        LOCFRAME XSTACK, 15, STACK
        LOCFRAME IOVERLAY, 0, STATIC
        LOCFRAME DOVERLAY, 0, STATIC
        ARGFRAME ISTACK, 0, STACK
        ARGFRAME PSTACK, 0, STACK
        ARGFRAME XSTACK, 15, STACK
        ARGFRAME IOVERLAY, 0, STATIC
        ARGFRAME DOVERLAY, 0, STATIC
        MOV     A,#-0xc
        LCALL   ?BANKED_ENTER_XDATA
        CFI DPH0 load(1, XDATA, add(CFA_XSP16, literal(-1)))
        CFI DPL0 load(1, XDATA, add(CFA_XSP16, literal(-2)))
        CFI ?BRET_EXT load(1, XDATA, add(CFA_XSP16, literal(-3)))
        CFI ?RET_HIGH load(1, XDATA, add(CFA_XSP16, literal(-4)))
        CFI ?RET_LOW load(1, XDATA, add(CFA_XSP16, literal(-5)))
        CFI R7 load(1, XDATA, add(CFA_XSP16, literal(-6)))
        CFI V3 load(1, XDATA, add(CFA_XSP16, literal(-7)))
        CFI V2 load(1, XDATA, add(CFA_XSP16, literal(-8)))
        CFI V1 load(1, XDATA, add(CFA_XSP16, literal(-9)))
        CFI V0 load(1, XDATA, add(CFA_XSP16, literal(-10)))
        CFI VB load(1, XDATA, add(CFA_XSP16, literal(-11)))
        CFI R6 load(1, XDATA, add(CFA_XSP16, literal(-12)))
        CFI CFA_SP SP+0
        CFI CFA_XSP16 add(XSP16, 12)
        ; Saved register size: 12
        ; Auto size: 3
        MOV     A,#-0x3
        LCALL   ?ALLOC_XSTACK8
        CFI CFA_XSP16 add(XSP16, 15)
        MOV     ?V0 + 0,R2
        MOV     ?V0 + 1,R3
//  267   afIncomingMSGPacket_t *MSGpkt;
//  268   afDataConfirm_t *afDataConfirm;
//  269   ZStatus_t sentStatus;
//  270   (void)task_id;  // Intentionally unreferenced parameter
//  271   
//  272   if ( events & SYS_EVENT_MSG )
        MOV     A,R3
        ANL     A,#0x80
        JNZ     $+5
        LJMP    ??SampleApp_ProcessEvent_0 & 0xFFFF
//  273   {
//  274     MSGpkt = (afIncomingMSGPacket_t *)osal_msg_receive( SampleApp_TaskID );
        ; Setup parameters for call to function osal_msg_receive
        LCALL   ?Subroutine5 & 0xFFFF
//  275     uint8 coodStarted[3] = {'#', 0x45, '@'};
??CrossCallReturnLabel_3:
        MOV     DPTR,#`?<Constant {35, 69, 64}>`
        PUSH    DPL
        CFI CFA_SP SP+-1
        MOV     DPL,?XSP + 0
        MOV     DPH,?XSP + 1
        MOV     R4,DPL
        MOV     R5,DPH
        MOV     DPH,#(`?<Constant {35, 69, 64}>` >> 8) & 0xff
        POP     DPL
        CFI CFA_SP SP+0
        MOV     A,#0x3
        LCALL   ?MOVE_LONG8_XDATA_XDATA
        SJMP    ??CrossCallReturnLabel_4
//  276     while ( MSGpkt )
//  277     {      
//  278       switch ( MSGpkt->hdr.event )
//  279       {
//  280         // 系统任务事件里面的接收数据确认消息
//  281         case AF_DATA_CONFIRM_CMD:          
//  282           afDataConfirm = (afDataConfirm_t *)MSGpkt;
//  283           sentStatus = afDataConfirm->hdr.status;
//  284           // Action taken when confirmation is received.
//  285           if ( sentStatus != ZSuccess )
//  286           {
//  287             myprintf("ERROR:AF_DATA_CONFIRM_CMD failed\n");
//  288           }
//  289           break;
//  290         
//  291           // 接收到一个按键事件
//  292         case KEY_CHANGE:
//  293           SampleApp_HandleKeys( ((keyChange_t *)MSGpkt)->state, ((keyChange_t *)MSGpkt)->keys );
//  294           break;
//  295           
//  296           // 无线网络收到数据
//  297         case AF_INCOMING_MSG_CMD:
//  298           SampleApp_MessageMSGCB( MSGpkt );
//  299           break;
//  300           
//  301           // 设备组网或者入网成功，可以发送一个消息，并开启一个心跳事件的定时器
//  302         case ZDO_STATE_CHANGE:
//  303           SampleApp_NwkState = (devStates_t)(MSGpkt->hdr.status); // 另外MSGpkt->srcAddr.addr.shortAddr;可用于获取终端节点的网络短地址          
//  304           
//  305           // 判断不同的设备类型
//  306           if(SampleApp_NwkState == DEV_ZB_COORD) { // 协调器组建好网络            
//  307             mySendByteBuf(coodStarted, 3); // 向上位机发送已经启动消息            
//  308             osal_start_timerEx( SampleApp_TaskID, SAMPLEAPP_SEND_PERIODIC_MSG_EVT, SAMPLEAPP_SEND_PERIODIC_MSG_TIMEOUT ); // 开启定时器
//  309             HalLedBlink(HAL_LED_2, 3, 50, 250);
//  310           } else if(SampleApp_NwkState == DEV_ROUTER) { // 路由器加入网络
//  311             HalLedBlink(HAL_LED_2, 3, 50, 250);
//  312           } else if(SampleApp_NwkState == DEV_END_DEVICE) { // 终端加入网络
//  313             AfSendAddrInfo(0x71); // 向协调器发送入网消息
//  314             HalLedBlink(HAL_LED_2, 3, 50, 250);
//  315             osal_start_timerEx( SampleApp_TaskID, SAMPLEAPP_SEND_PERIODIC_MSG_EVT, SAMPLEAPP_SEND_PERIODIC_MSG_TIMEOUT ); // 开启定时器
//  316           }
//  317           break;
//  318           
//  319         default:        
//  320           myprintf("unknown pkg-event = 0x%x\n", MSGpkt->hdr.event);      
??SampleApp_ProcessEvent_1:
        ; Setup parameters for call to function myprintf
        LCALL   ?Subroutine10 & 0xFFFF
??CrossCallReturnLabel_14:
        LCALL   ?PUSH_XSTACK_I_TWO
        CFI CFA_XSP16 add(XSP16, 17)
        MOV     R2,#`?<Constant "unknown pkg-event = 0...">` & 0xff
        MOV     R3,#(`?<Constant "unknown pkg-event = 0...">` >> 8) & 0xff
        LCALL   ?Subroutine11 & 0xFFFF
??CrossCallReturnLabel_16:
        LCALL   ?DEALLOC_XSTACK8
        CFI CFA_XSP16 add(XSP16, 15)
//  321           break;
//  322       }      
//  323       
//  324       osal_msg_deallocate( (uint8 *)MSGpkt );// Release the memory
??SampleApp_ProcessEvent_2:
        ; Setup parameters for call to function osal_msg_deallocate
        MOV     A,R6
        MOV     R2,A
        MOV     A,R7
        MOV     R3,A
        LCALL   ??osal_msg_deallocate?relay
//  325       MSGpkt = (afIncomingMSGPacket_t *)osal_msg_receive( SampleApp_TaskID );// Next - if one is available
        ; Setup parameters for call to function osal_msg_receive
        LCALL   ?Subroutine5 & 0xFFFF
??CrossCallReturnLabel_4:
        MOV     A,R6
        ORL     A,R7
        JNZ     $+5
        LJMP    ??SampleApp_ProcessEvent_3 & 0xFFFF
        MOV     DPL,R6
        MOV     DPH,R7
        MOVX    A,@DPTR
        ADD     A,#-0x1a
        JZ      ??SampleApp_ProcessEvent_4
        ADD     A,#0x5a
        JZ      ??SampleApp_ProcessEvent_5
        ADD     A,#-0x11
        JZ      ??SampleApp_ProcessEvent_6
        ADD     A,#-0x2c
        JNZ     ??SampleApp_ProcessEvent_1
        INC     DPTR
        MOVX    A,@DPTR
        JZ      ??SampleApp_ProcessEvent_2
        ; Setup parameters for call to function myprintf
        MOV     R2,#`?<Constant "ERROR:AF_DATA_CONFIRM...">` & 0xff
        MOV     R3,#(`?<Constant "ERROR:AF_DATA_CONFIRM...">` >> 8) & 0xff
        LCALL   ??myprintf?relay
        SJMP    ??SampleApp_ProcessEvent_2
??SampleApp_ProcessEvent_5:
        ; Setup parameters for call to function SampleApp_HandleKeys
        INC     DPTR
        INC     DPTR
        INC     DPTR
        MOVX    A,@DPTR
        MOV     R2,A
        MOV     DPL,R6
        MOV     DPH,R7
        INC     DPTR
        INC     DPTR
        MOVX    A,@DPTR
        MOV     R1,A
        LCALL   ??SampleApp_HandleKeys?relay
        SJMP    ??SampleApp_ProcessEvent_2
??SampleApp_ProcessEvent_4:
        ; Setup parameters for call to function SampleApp_MessageMSGCB
        MOV     A,R6
        MOV     R2,A
        MOV     A,R7
        MOV     R3,A
        LCALL   ??SampleApp_MessageMSGCB?relay
        SJMP    ??SampleApp_ProcessEvent_2
??SampleApp_ProcessEvent_6:
        INC     DPTR
        MOVX    A,@DPTR
        MOV     DPTR,#SampleApp_NwkState
        MOVX    @DPTR,A
        XRL     A,#0x9
        JNZ     ??SampleApp_ProcessEvent_7
        ; Setup parameters for call to function mySendByteBuf
        MOV     R4,#0x3
        MOV     R5,#0x0
        MOV     DPL,?XSP + 0
        MOV     DPH,?XSP + 1
        MOV     R2,DPL
        MOV     R3,DPH
        LCALL   ??mySendByteBuf?relay
        ; Setup parameters for call to function osal_start_timerEx
        LCALL   ?Subroutine4 & 0xFFFF
        ; Setup parameters for call to function HalLedBlink
??CrossCallReturnLabel_28:
        MOV     R4,#-0x6
        MOV     R5,#0x0
        MOV     R3,#0x32
        MOV     R2,#0x3
        MOV     R1,#0x2
        LCALL   ??HalLedBlink?relay
        SJMP    ??SampleApp_ProcessEvent_2
??SampleApp_ProcessEvent_7:
        MOVX    A,@DPTR
        XRL     A,#0x7
        JZ      ??CrossCallReturnLabel_28
        ; Setup parameters for call to function HalLedBlink
        MOVX    A,@DPTR
        XRL     A,#0x6
        JZ      $+5
        LJMP    ??SampleApp_ProcessEvent_2 & 0xFFFF
        ; Setup parameters for call to function AfSendAddrInfo
        MOV     R1,#0x71
        LCALL   ??AfSendAddrInfo?relay
        ; Setup parameters for call to function HalLedBlink
        MOV     R4,#-0x6
        MOV     R5,#0x0
        MOV     R3,#0x32
        MOV     R2,#0x3
        MOV     R1,#0x2
        LCALL   ??HalLedBlink?relay
        ; Setup parameters for call to function osal_start_timerEx
        LCALL   ?Subroutine4 & 0xFFFF
//  326     }
??CrossCallReturnLabel_29:
        LJMP    ??SampleApp_ProcessEvent_2 & 0xFFFF
//  327     
//  328     // return unprocessed events
//  329     return (events ^ SYS_EVENT_MSG);
??SampleApp_ProcessEvent_3:
        MOV     R2,?V0 + 0
        MOV     A,?V0 + 1
        XRL     A,#0x80
        MOV     R3,A
        LJMP    ??SampleApp_ProcessEvent_8 & 0xFFFF
//  330   }
//  331   
//  332   //myprintf("events = 0x%x\n", events);
//  333   // 接收到一个定时器事件
//  334   if ( events & SAMPLEAPP_SEND_PERIODIC_MSG_EVT )
??SampleApp_ProcessEvent_0:
        MOV     A,R2
        MOV     C,0xE0 /* A   */.0
        JNC     ??SampleApp_ProcessEvent_9
//  335   {
//  336 #ifdef ZDO_COORDINATOR // 协调器
//  337     SampleApp_SendHeartBeatMessageCoor(); // 协调器心跳功能函数，同时检测掉线的终端，将掉线信息发送到服务器
//  338     osal_start_timerEx( SampleApp_TaskID, SAMPLEAPP_SEND_PERIODIC_MSG_EVT, SAMPLEAPP_SEND_PERIODIC_MSG_TIMEOUT); // 1000ms再次开启定时器
//  339 #endif
//  340     
//  341 #ifdef END_DEVICE // 终端设备
//  342     SampleApp_SendHeartBeatMessageEnd(); // 终端心跳功能函数
        ; Setup parameters for call to function SampleApp_SendHeartBeatMessageEnd
        LCALL   ??SampleApp_SendHeartBeatMessageEnd?relay
//  343     osal_start_timerEx( SampleApp_TaskID, SAMPLEAPP_SEND_PERIODIC_MSG_EVT, SAMPLEAPP_SEND_PERIODIC_MSG_TIMEOUT*2); // 2000ms再次开启定时器
        ; Setup parameters for call to function osal_start_timerEx
        MOV     R4,#-0x30
        MOV     R5,#0x7
        LCALL   ??Subroutine17_0 & 0xFFFF
//  344 #endif
//  345     
//  346     return (events ^ SAMPLEAPP_SEND_PERIODIC_MSG_EVT); // 清除此已经处理事件标志位
??CrossCallReturnLabel_30:
        MOV     A,?V0 + 0
        XRL     A,#0x1
??SampleApp_ProcessEvent_10:
        MOV     R2,A
        MOV     R3,?V0 + 1
        LJMP    ??SampleApp_ProcessEvent_8 & 0xFFFF
//  347   }  
//  348 
//  349 #ifdef END_DEVICE  // 接收到线上金币的开启信号，模拟电平变化的定时器事件
//  350   else if(events & SAMPLEAPP_SIMULATE_COIN_MSG_EVT) {
??SampleApp_ProcessEvent_9:
        ANL     A,#0x2
        JZ      ??SampleApp_ProcessEvent_11
//  351     myprintf("Get COIN_MSG_EVT, NeedCoinDelivered = %d, events = 0x%x\n", NeedCoinDelivered, events);    
        ; Setup parameters for call to function myprintf
        MOV     R0,#?V0 + 0
        LCALL   ?PUSH_XSTACK_I_TWO
        CFI CFA_XSP16 add(XSP16, 17)
        MOV     DPTR,#NeedCoinDelivered
        LCALL   ?Subroutine7 & 0xFFFF
??CrossCallReturnLabel_7:
        LCALL   ?PUSH_XSTACK_I_TWO
        CFI CFA_XSP16 add(XSP16, 19)
        MOV     R2,#`?<Constant "Get COIN_MSG_EVT, Nee...">` & 0xff
        MOV     R3,#(`?<Constant "Get COIN_MSG_EVT, Nee...">` >> 8) & 0xff
        LCALL   ??myprintf?relay
        MOV     A,#0x4
        LCALL   ?DEALLOC_XSTACK8
        CFI CFA_XSP16 add(XSP16, 15)
//  352     if(COIN_SIMULATE_PIN == 1) {
        MOV     C,0x90.2
        JNC     ??SampleApp_ProcessEvent_12
//  353       COIN_SIMULATE_PIN = 0; // 产生一个下降沿
        CLR     0x90.2
        SJMP    ??SampleApp_ProcessEvent_13
//  354     } else if(COIN_SIMULATE_PIN == 0) {
??SampleApp_ProcessEvent_12:
        MOV     C,0x90.2
        JC      ??SampleApp_ProcessEvent_13
//  355       COIN_SIMULATE_PIN = 1; // 完整产生了一个脉冲
        SETB    0x90.2
//  356       NeedCoinDelivered--;
        MOV     DPTR,#NeedCoinDelivered
        MOVX    A,@DPTR
        DEC     A
        MOVX    @DPTR,A
//  357     }
//  358     if(NeedCoinDelivered > 0) { // 还需要开启定时器
??SampleApp_ProcessEvent_13:
        MOV     DPTR,#NeedCoinDelivered
        LCALL   ?Subroutine9 & 0xFFFF
??CrossCallReturnLabel_12:
        JC      ??CrossCallReturnLabel_31
//  359       osal_start_timerEx( SampleApp_TaskID, SAMPLEAPP_SIMULATE_COIN_MSG_EVT, COIN_SIGNAL_HALF_TIME); // 低电平和高电平至少保持50ms
        ; Setup parameters for call to function osal_start_timerEx
        MOV     R4,#0x28
        MOV     R5,#0x0
        MOV     R2,#0x2
        LCALL   ??Subroutine18_0 & 0xFFFF
//  360     } 
//  361     
//  362     return (events ^ SAMPLEAPP_SIMULATE_COIN_MSG_EVT);
??CrossCallReturnLabel_31:
        MOV     A,?V0 + 0
        XRL     A,#0x2
        SJMP    ??SampleApp_ProcessEvent_10
//  363   } 
//  364   else if(events & SAMPLEAPP_TRANSPORT_COIN_MSG_EVT) { // 需要转发投币器的投币信号
??SampleApp_ProcessEvent_11:
        MOV     A,R2
        ANL     A,#0x4
        JZ      ??SampleApp_ProcessEvent_14
//  365     myprintf("Get transport coin EVT, NeedCoinTransport = %d\n", NeedCoinTransport);
        ; Setup parameters for call to function myprintf
        MOV     DPTR,#NeedCoinTransport
        LCALL   ?Subroutine7 & 0xFFFF
??CrossCallReturnLabel_8:
        LCALL   ?PUSH_XSTACK_I_TWO
        CFI CFA_XSP16 add(XSP16, 17)
        MOV     R2,#`?<Constant "Get transport coin EV...">` & 0xff
        MOV     R3,#(`?<Constant "Get transport coin EV...">` >> 8) & 0xff
        LCALL   ?Subroutine11 & 0xFFFF
??CrossCallReturnLabel_17:
        LCALL   ?DEALLOC_XSTACK8
        CFI CFA_XSP16 add(XSP16, 15)
//  366     
//  367     if(COIN_SIMULATE_PIN == 1) {
        MOV     C,0x90.2
        JNC     ??SampleApp_ProcessEvent_15
//  368       COIN_SIMULATE_PIN = 0; // 产生一个下降沿
        CLR     0x90.2
        SJMP    ??SampleApp_ProcessEvent_16
//  369     } else if(COIN_SIMULATE_PIN == 0) {
??SampleApp_ProcessEvent_15:
        MOV     C,0x90.2
        JC      ??SampleApp_ProcessEvent_16
//  370       COIN_SIMULATE_PIN = 1; // 完整产生了一个脉冲
        SETB    0x90.2
//  371       NeedCoinTransport--;
        MOV     DPTR,#NeedCoinTransport
        MOVX    A,@DPTR
        DEC     A
        MOVX    @DPTR,A
//  372     }
//  373     if(NeedCoinTransport > 0) { // 还需要开启定时器
??SampleApp_ProcessEvent_16:
        MOV     DPTR,#NeedCoinTransport
        LCALL   ?Subroutine9 & 0xFFFF
??CrossCallReturnLabel_13:
        JC      ??CrossCallReturnLabel_32
//  374       osal_start_timerEx( SampleApp_TaskID, SAMPLEAPP_TRANSPORT_COIN_MSG_EVT, COIN_SIGNAL_HALF_TIME); // 低电平和高电平至少保持50ms
        ; Setup parameters for call to function osal_start_timerEx
        MOV     R4,#0x28
        MOV     R5,#0x0
        MOV     R2,#0x4
        LCALL   ??Subroutine18_0 & 0xFFFF
//  375     }
//  376     return (events ^ SAMPLEAPP_TRANSPORT_COIN_MSG_EVT);
??CrossCallReturnLabel_32:
        MOV     A,?V0 + 0
        XRL     A,#0x4
        LJMP    ??SampleApp_ProcessEvent_10 & 0xFFFF
//  377   } 
//  378   else if(events & SAMPLEAPP_TRANSPORT_REWARD_MSG_EVT) { // 需要向游戏机转发产生的出了一个彩票信息
??SampleApp_ProcessEvent_14:
        MOV     A,R2
        ANL     A,#0x8
        JZ      ??SampleApp_ProcessEvent_17
//  379     myprintf("get trans reward msg event, REWARD_BACK_PIN = %d\n", REWARD_BACK_PIN);
        ; Setup parameters for call to function myprintf
        MOV     C,0x90.5
        CLR     A
        RLC     A
        MOV     ?V0 + 2,A
        MOV     ?V0 + 3,#0x0
        MOV     R0,#?V0 + 2
        LCALL   ?PUSH_XSTACK_I_TWO
        CFI CFA_XSP16 add(XSP16, 17)
        MOV     R2,#`?<Constant "get trans reward msg ...">` & 0xff
        MOV     R3,#(`?<Constant "get trans reward msg ...">` >> 8) & 0xff
        LCALL   ?Subroutine11 & 0xFFFF
??CrossCallReturnLabel_18:
        LCALL   ?DEALLOC_XSTACK8
        CFI CFA_XSP16 add(XSP16, 15)
//  380     if(REWARD_BACK_PIN == 1) {
        MOV     C,0x90.5
        JNC     ??SampleApp_ProcessEvent_18
//  381       REWARD_BACK_PIN = 0; // 只产生一个下降沿
        CLR     0x90.5
//  382       osal_start_timerEx( SampleApp_TaskID, SAMPLEAPP_TRANSPORT_REWARD_MSG_EVT, REWARD_SIGNAL_HALF_TIME);
        ; Setup parameters for call to function osal_start_timerEx
        MOV     R4,#0x28
        MOV     R5,#0x0
        MOV     R2,#0x8
        LCALL   ??Subroutine18_0 & 0xFFFF
//  383     } else if(REWARD_BACK_PIN == 0) {
??CrossCallReturnLabel_33:
        SJMP    ??SampleApp_ProcessEvent_19
??SampleApp_ProcessEvent_18:
        MOV     C,0x90.5
        JC      ??SampleApp_ProcessEvent_19
//  384       REWARD_BACK_PIN = 1;
        SETB    0x90.5
//  385       rewardCount++; // 累计本次游戏出彩票个数，在出彩票结束之后再上传个数
        MOV     DPTR,#rewardCount
        MOVX    A,@DPTR
        INC     A
        MOVX    @DPTR,A
//  386     }
//  387     return (events ^ SAMPLEAPP_TRANSPORT_REWARD_MSG_EVT);
??SampleApp_ProcessEvent_19:
        MOV     A,?V0 + 0
        XRL     A,#0x8
        LJMP    ??SampleApp_ProcessEvent_10 & 0xFFFF
//  388   }
//  389 #endif  
//  390 
//  391   return 0;
??SampleApp_ProcessEvent_17:
        MOV     R2,#0x0
        MOV     R3,#0x0
??SampleApp_ProcessEvent_8:
        MOV     A,#0x3
        LCALL   ?DEALLOC_XSTACK8
        CFI CFA_XSP16 add(XSP16, 12)
        MOV     R7,#0x4
        LJMP    ?BANKED_LEAVE_XDATA
        CFI EndBlock cfiBlock2
        REQUIRE _A_P1
//  392 }

        RSEG BANKED_CODE:CODE:NOROOT(0)
?Subroutine9:
        CFI Block cfiCond3 Using cfiCommon1
        CFI NoFunction
        CFI Conditional ??CrossCallReturnLabel_12
        CFI R6 load(1, XDATA, add(CFA_XSP16, literal(-12)))
        CFI VB load(1, XDATA, add(CFA_XSP16, literal(-11)))
        CFI V0 load(1, XDATA, add(CFA_XSP16, literal(-10)))
        CFI V1 load(1, XDATA, add(CFA_XSP16, literal(-9)))
        CFI V2 load(1, XDATA, add(CFA_XSP16, literal(-8)))
        CFI V3 load(1, XDATA, add(CFA_XSP16, literal(-7)))
        CFI R7 load(1, XDATA, add(CFA_XSP16, literal(-6)))
        CFI ?RET_LOW load(1, XDATA, add(CFA_XSP16, literal(-5)))
        CFI ?RET_HIGH load(1, XDATA, add(CFA_XSP16, literal(-4)))
        CFI ?BRET_EXT load(1, XDATA, add(CFA_XSP16, literal(-3)))
        CFI DPL0 load(1, XDATA, add(CFA_XSP16, literal(-2)))
        CFI DPH0 load(1, XDATA, add(CFA_XSP16, literal(-1)))
        CFI CFA_SP SP+0
        CFI CFA_XSP16 add(XSP16, 15)
        CFI Block cfiCond4 Using cfiCommon1
        CFI (cfiCond4) NoFunction
        CFI (cfiCond4) Conditional ??CrossCallReturnLabel_13
        CFI (cfiCond4) R6 load(1, XDATA, add(CFA_XSP16, literal(-12)))
        CFI (cfiCond4) VB load(1, XDATA, add(CFA_XSP16, literal(-11)))
        CFI (cfiCond4) V0 load(1, XDATA, add(CFA_XSP16, literal(-10)))
        CFI (cfiCond4) V1 load(1, XDATA, add(CFA_XSP16, literal(-9)))
        CFI (cfiCond4) V2 load(1, XDATA, add(CFA_XSP16, literal(-8)))
        CFI (cfiCond4) V3 load(1, XDATA, add(CFA_XSP16, literal(-7)))
        CFI (cfiCond4) R7 load(1, XDATA, add(CFA_XSP16, literal(-6)))
        CFI (cfiCond4) ?RET_LOW load(1, XDATA, add(CFA_XSP16, literal(-5)))
        CFI (cfiCond4) ?RET_HIGH load(1, XDATA, add(CFA_XSP16, literal(-4)))
        CFI (cfiCond4) ?BRET_EXT load(1, XDATA, add(CFA_XSP16, literal(-3)))
        CFI (cfiCond4) DPL0 load(1, XDATA, add(CFA_XSP16, literal(-2)))
        CFI (cfiCond4) DPH0 load(1, XDATA, add(CFA_XSP16, literal(-1)))
        CFI (cfiCond4) CFA_SP SP+0
        CFI (cfiCond4) CFA_XSP16 add(XSP16, 15)
        CFI Block cfiPicker5 Using cfiCommon0
        CFI (cfiPicker5) NoFunction
        CFI (cfiPicker5) Picker
        MOVX    A,@DPTR
        CLR     C
        SUBB    A,#0x1
        MOV     C,0xD0 /* PSW */.2
        XRL     A,PSW
        RLC     A
        RET
        CFI EndBlock cfiCond3
        CFI EndBlock cfiCond4
        CFI EndBlock cfiPicker5

        RSEG BANKED_CODE:CODE:NOROOT(0)
?Subroutine7:
        CFI Block cfiCond6 Using cfiCommon1
        CFI NoFunction
        CFI Conditional ??CrossCallReturnLabel_7
        CFI R6 load(1, XDATA, add(CFA_XSP16, literal(-12)))
        CFI VB load(1, XDATA, add(CFA_XSP16, literal(-11)))
        CFI V0 load(1, XDATA, add(CFA_XSP16, literal(-10)))
        CFI V1 load(1, XDATA, add(CFA_XSP16, literal(-9)))
        CFI V2 load(1, XDATA, add(CFA_XSP16, literal(-8)))
        CFI V3 load(1, XDATA, add(CFA_XSP16, literal(-7)))
        CFI R7 load(1, XDATA, add(CFA_XSP16, literal(-6)))
        CFI ?RET_LOW load(1, XDATA, add(CFA_XSP16, literal(-5)))
        CFI ?RET_HIGH load(1, XDATA, add(CFA_XSP16, literal(-4)))
        CFI ?BRET_EXT load(1, XDATA, add(CFA_XSP16, literal(-3)))
        CFI DPL0 load(1, XDATA, add(CFA_XSP16, literal(-2)))
        CFI DPH0 load(1, XDATA, add(CFA_XSP16, literal(-1)))
        CFI CFA_SP SP+0
        CFI CFA_XSP16 add(XSP16, 17)
        CFI Block cfiCond7 Using cfiCommon1
        CFI (cfiCond7) NoFunction
        CFI (cfiCond7) Conditional ??CrossCallReturnLabel_8
        CFI (cfiCond7) R6 load(1, XDATA, add(CFA_XSP16, literal(-12)))
        CFI (cfiCond7) VB load(1, XDATA, add(CFA_XSP16, literal(-11)))
        CFI (cfiCond7) V0 load(1, XDATA, add(CFA_XSP16, literal(-10)))
        CFI (cfiCond7) V1 load(1, XDATA, add(CFA_XSP16, literal(-9)))
        CFI (cfiCond7) V2 load(1, XDATA, add(CFA_XSP16, literal(-8)))
        CFI (cfiCond7) V3 load(1, XDATA, add(CFA_XSP16, literal(-7)))
        CFI (cfiCond7) R7 load(1, XDATA, add(CFA_XSP16, literal(-6)))
        CFI (cfiCond7) ?RET_LOW load(1, XDATA, add(CFA_XSP16, literal(-5)))
        CFI (cfiCond7) ?RET_HIGH load(1, XDATA, add(CFA_XSP16, literal(-4)))
        CFI (cfiCond7) ?BRET_EXT load(1, XDATA, add(CFA_XSP16, literal(-3)))
        CFI (cfiCond7) DPL0 load(1, XDATA, add(CFA_XSP16, literal(-2)))
        CFI (cfiCond7) DPH0 load(1, XDATA, add(CFA_XSP16, literal(-1)))
        CFI (cfiCond7) CFA_SP SP+0
        CFI (cfiCond7) CFA_XSP16 add(XSP16, 15)
        CFI Block cfiPicker8 Using cfiCommon0
        CFI (cfiPicker8) NoFunction
        CFI (cfiPicker8) Picker
        MOVX    A,@DPTR
        MOV     ?V0 + 2,A
        RLC     A
        SUBB    A,0xE0 /* A   */
        MOV     ?V0 + 3,A
        MOV     R0,#?V0 + 2
        RET
        CFI EndBlock cfiCond6
        CFI EndBlock cfiCond7
        CFI EndBlock cfiPicker8

        RSEG BANKED_CODE:CODE:NOROOT(0)
?Subroutine5:
        CFI Block cfiCond9 Using cfiCommon1
        CFI NoFunction
        CFI Conditional ??CrossCallReturnLabel_3
        CFI R6 load(1, XDATA, add(CFA_XSP16, literal(-12)))
        CFI VB load(1, XDATA, add(CFA_XSP16, literal(-11)))
        CFI V0 load(1, XDATA, add(CFA_XSP16, literal(-10)))
        CFI V1 load(1, XDATA, add(CFA_XSP16, literal(-9)))
        CFI V2 load(1, XDATA, add(CFA_XSP16, literal(-8)))
        CFI V3 load(1, XDATA, add(CFA_XSP16, literal(-7)))
        CFI R7 load(1, XDATA, add(CFA_XSP16, literal(-6)))
        CFI ?RET_LOW load(1, XDATA, add(CFA_XSP16, literal(-5)))
        CFI ?RET_HIGH load(1, XDATA, add(CFA_XSP16, literal(-4)))
        CFI ?BRET_EXT load(1, XDATA, add(CFA_XSP16, literal(-3)))
        CFI DPL0 load(1, XDATA, add(CFA_XSP16, literal(-2)))
        CFI DPH0 load(1, XDATA, add(CFA_XSP16, literal(-1)))
        CFI CFA_SP SP+0
        CFI CFA_XSP16 add(XSP16, 15)
        CFI Block cfiCond10 Using cfiCommon1
        CFI (cfiCond10) NoFunction
        CFI (cfiCond10) Conditional ??CrossCallReturnLabel_4
        CFI (cfiCond10) R6 load(1, XDATA, add(CFA_XSP16, literal(-12)))
        CFI (cfiCond10) VB load(1, XDATA, add(CFA_XSP16, literal(-11)))
        CFI (cfiCond10) V0 load(1, XDATA, add(CFA_XSP16, literal(-10)))
        CFI (cfiCond10) V1 load(1, XDATA, add(CFA_XSP16, literal(-9)))
        CFI (cfiCond10) V2 load(1, XDATA, add(CFA_XSP16, literal(-8)))
        CFI (cfiCond10) V3 load(1, XDATA, add(CFA_XSP16, literal(-7)))
        CFI (cfiCond10) R7 load(1, XDATA, add(CFA_XSP16, literal(-6)))
        CFI (cfiCond10) ?RET_LOW load(1, XDATA, add(CFA_XSP16, literal(-5)))
        CFI (cfiCond10) ?RET_HIGH load(1, XDATA, add(CFA_XSP16, literal(-4)))
        CFI (cfiCond10) ?BRET_EXT load(1, XDATA, add(CFA_XSP16, literal(-3)))
        CFI (cfiCond10) DPL0 load(1, XDATA, add(CFA_XSP16, literal(-2)))
        CFI (cfiCond10) DPH0 load(1, XDATA, add(CFA_XSP16, literal(-1)))
        CFI (cfiCond10) CFA_SP SP+0
        CFI (cfiCond10) CFA_XSP16 add(XSP16, 15)
        CFI Block cfiPicker11 Using cfiCommon0
        CFI (cfiPicker11) NoFunction
        CFI (cfiPicker11) Picker
        MOV     DPTR,#SampleApp_TaskID
        MOVX    A,@DPTR
        MOV     R1,A
        LCALL   ??osal_msg_receive?relay
        MOV     ?V0 + 2,R2
        MOV     ?V0 + 3,R3
        MOV     R6,?V0 + 2
        MOV     R7,?V0 + 3
        RET
        CFI EndBlock cfiCond9
        CFI EndBlock cfiCond10
        CFI EndBlock cfiPicker11
//  393 
//  394 /*********************************************************************
//  395 * Event Generation Functions
//  396 */
//  397 /*********************************************************************
//  398 * @fn      SampleApp_HandleKeys
//  399 *
//  400 * @brief   按键事件处理函数
//  401 *
//  402 * @param   shift - true if in shift/alt.
//  403 * @param   keys - bit field for key events. Valid entries:
//  404 *                 HAL_KEY_SW_2
//  405 *                 HAL_KEY_SW_1
//  406 *
//  407 * @return  none
//  408 */

        RSEG BANKED_CODE:CODE:NOROOT(0)
//  409 void SampleApp_HandleKeys( uint8 shift, uint8 keys )
SampleApp_HandleKeys:
        CFI Block cfiBlock12 Using cfiCommon1
        CFI Function SampleApp_HandleKeys
        CODE
//  410 {
        FUNCALL SampleApp_HandleKeys, AfSendAddrInfo
        LOCFRAME ISTACK, 0, STACK
        LOCFRAME PSTACK, 0, STACK
        LOCFRAME XSTACK, 9, STACK
        LOCFRAME IOVERLAY, 0, STATIC
        LOCFRAME DOVERLAY, 0, STATIC
        ARGFRAME ISTACK, 0, STACK
        ARGFRAME PSTACK, 0, STACK
        ARGFRAME XSTACK, 9, STACK
        ARGFRAME IOVERLAY, 0, STATIC
        ARGFRAME DOVERLAY, 0, STATIC
        MOV     A,#-0x9
        LCALL   ?BANKED_ENTER_XDATA
        CFI DPH0 load(1, XDATA, add(CFA_XSP16, literal(-1)))
        CFI DPL0 load(1, XDATA, add(CFA_XSP16, literal(-2)))
        CFI ?BRET_EXT load(1, XDATA, add(CFA_XSP16, literal(-3)))
        CFI ?RET_HIGH load(1, XDATA, add(CFA_XSP16, literal(-4)))
        CFI ?RET_LOW load(1, XDATA, add(CFA_XSP16, literal(-5)))
        CFI R7 load(1, XDATA, add(CFA_XSP16, literal(-6)))
        CFI V0 load(1, XDATA, add(CFA_XSP16, literal(-7)))
        CFI VB load(1, XDATA, add(CFA_XSP16, literal(-8)))
        CFI R6 load(1, XDATA, add(CFA_XSP16, literal(-9)))
        CFI CFA_SP SP+0
        CFI CFA_XSP16 add(XSP16, 9)
        ; Saved register size: 9
        ; Auto size: 0
        MOV     A,R2
//  411   (void)shift;  // Intentionally unreferenced parameter
//  412 #ifdef ZDO_COORDINATOR       //按协调器S1才发数据  
//  413   if ( keys & HAL_KEY_SW_6 ){ // 按键S1,以广播方式发数据    
//  414     SampleApp_SendPeriodicMessage(1);
//  415   } else if(keys & HAL_KEY_SW_1) { // 按键S2
//  416     SampleApp_SendPeriodicMessage(2);
//  417   }
//  418 #endif
//  419 
//  420 #ifdef END_DEVICE
//  421   if ( keys & HAL_KEY_SW_6 ){
        MOV     C,0xE0 /* A   */.5
        JNC     ??SampleApp_HandleKeys_0
//  422     AfSendAddrInfo(0x51); // 只用在路由和终端设备上，向协调器上传自身地址，协调器收到此消息后打印出地址
        ; Setup parameters for call to function AfSendAddrInfo
        MOV     R1,#0x51
        LCALL   ??AfSendAddrInfo?relay
//  423   }
//  424 #endif
//  425 }
??SampleApp_HandleKeys_0:
        MOV     R7,#0x1
        LJMP    ?BANKED_LEAVE_XDATA
        CFI EndBlock cfiBlock12
//  426 
//  427 /*********************************************************************
//  428 * LOCAL FUNCTIONS
//  429 */
//  430 
//  431 /*********************************************************************
//  432 * @fn      SampleApp_MessageMSGCB
//  433 *
//  434 * @brief   Data message processor callback.  This function processes
//  435 *          any incoming data - probably from other devices.  So, based
//  436 *          on cluster ID, perform the intended action.
//  437 *
//  438 * @param   none
//  439 *
//  440 * @return  none
//  441 */
//  442 #define INIT_LEFT_SEC 5
//  443 #ifdef NEED_TEST_DIStANCE
//  444 uint16 recvTestMsgCount = 0;
//  445 #endif

        RSEG BANKED_CODE:CODE:NOROOT(0)
//  446 void SampleApp_MessageMSGCB( afIncomingMSGPacket_t *pkt )
SampleApp_MessageMSGCB:
        CFI Block cfiBlock13 Using cfiCommon1
        CFI Function SampleApp_MessageMSGCB
        CODE
//  447 {
        FUNCALL SampleApp_MessageMSGCB, osal_start_timerEx
        LOCFRAME ISTACK, 0, STACK
        LOCFRAME PSTACK, 0, STACK
        LOCFRAME XSTACK, 10, STACK
        LOCFRAME IOVERLAY, 0, STATIC
        LOCFRAME DOVERLAY, 0, STATIC
        ARGFRAME ISTACK, 0, STACK
        ARGFRAME PSTACK, 0, STACK
        ARGFRAME XSTACK, 10, STACK
        ARGFRAME IOVERLAY, 0, STATIC
        ARGFRAME DOVERLAY, 0, STATIC
        FUNCALL SampleApp_MessageMSGCB, AfReplyGetCoinCmd
        LOCFRAME ISTACK, 0, STACK
        LOCFRAME PSTACK, 0, STACK
        LOCFRAME XSTACK, 10, STACK
        LOCFRAME IOVERLAY, 0, STATIC
        LOCFRAME DOVERLAY, 0, STATIC
        ARGFRAME ISTACK, 0, STACK
        ARGFRAME PSTACK, 0, STACK
        ARGFRAME XSTACK, 10, STACK
        ARGFRAME IOVERLAY, 0, STATIC
        ARGFRAME DOVERLAY, 0, STATIC
        FUNCALL SampleApp_MessageMSGCB, myprintf
        LOCFRAME ISTACK, 0, STACK
        LOCFRAME PSTACK, 0, STACK
        LOCFRAME XSTACK, 12, STACK
        LOCFRAME IOVERLAY, 0, STATIC
        LOCFRAME DOVERLAY, 0, STATIC
        ARGFRAME ISTACK, 0, STACK
        ARGFRAME PSTACK, 0, STACK
        ARGFRAME XSTACK, 12, STACK
        ARGFRAME IOVERLAY, 0, STATIC
        ARGFRAME DOVERLAY, 0, STATIC
        FUNCALL SampleApp_MessageMSGCB, HalLedBlink
        LOCFRAME ISTACK, 0, STACK
        LOCFRAME PSTACK, 0, STACK
        LOCFRAME XSTACK, 10, STACK
        LOCFRAME IOVERLAY, 0, STATIC
        LOCFRAME DOVERLAY, 0, STATIC
        ARGFRAME ISTACK, 0, STACK
        ARGFRAME PSTACK, 0, STACK
        ARGFRAME XSTACK, 10, STACK
        ARGFRAME IOVERLAY, 0, STATIC
        ARGFRAME DOVERLAY, 0, STATIC
        MOV     A,#-0xa
        LCALL   ?BANKED_ENTER_XDATA
        CFI DPH0 load(1, XDATA, add(CFA_XSP16, literal(-1)))
        CFI DPL0 load(1, XDATA, add(CFA_XSP16, literal(-2)))
        CFI ?BRET_EXT load(1, XDATA, add(CFA_XSP16, literal(-3)))
        CFI ?RET_HIGH load(1, XDATA, add(CFA_XSP16, literal(-4)))
        CFI ?RET_LOW load(1, XDATA, add(CFA_XSP16, literal(-5)))
        CFI R7 load(1, XDATA, add(CFA_XSP16, literal(-6)))
        CFI V1 load(1, XDATA, add(CFA_XSP16, literal(-7)))
        CFI V0 load(1, XDATA, add(CFA_XSP16, literal(-8)))
        CFI VB load(1, XDATA, add(CFA_XSP16, literal(-9)))
        CFI R6 load(1, XDATA, add(CFA_XSP16, literal(-10)))
        CFI CFA_SP SP+0
        CFI CFA_XSP16 add(XSP16, 10)
        ; Saved register size: 10
        ; Auto size: 0
//  448 #ifndef ROUTER_EB  
//  449   uint8 data;
//  450   uint8 cmd;
//  451 #endif  
//  452 #ifdef ZDO_COORDINATOR  
//  453   int8 ret = 0;
//  454 #endif  
//  455   
//  456   switch ( pkt->clusterId )
        MOV     DPL,R2
        MOV     DPH,R3
        INC     DPTR
        INC     DPTR
        INC     DPTR
        INC     DPTR
        MOVX    A,@DPTR
        XRL     A,#0x1
        JNZ     ??SampleApp_MessageMSGCB_0
        INC     DPTR
        MOVX    A,@DPTR
??SampleApp_MessageMSGCB_0:
        JNZ     ??SampleApp_MessageMSGCB_1
//  457   {    
//  458   case SAMPLEAPP_PERIODIC_CLUSTERID: // 协调器在发送数据的时候指定的此消息对应的命令字，即表示哪种类型的控制命令
//  459 //协调器接收到终端的无线数据 
//  460 #ifdef ZDO_COORDINATOR
//  461     data = pkt->cmd.Data[0];
//  462     cmd = pkt->cmd.Data[1];
//  463     if(data == '#') {
//  464       if(cmd == 0x71 && pkt->cmd.Data[12] == '@') { // 接收到终端上传的短地址和IEEE地址
//  465         ret = checkEPInList(LL, pkt->cmd.Data + 4); // 使用IEEE地址检查终端是否已经在链表中
//  466         if(ret == -1) { // 如果当前终端没有在列表中        
//  467           ListInsert_L(LL, ListLength_L(LL)+1, pkt->cmd.Data[2], pkt->cmd.Data[3], &(pkt->cmd.Data[4]), INIT_LEFT_SEC); // 添加一个线性列表元素到链表尾部 
//  468           myprintf("Insert new EP in list\n");
//  469           printAddrInfoHex(pkt->cmd.Data+2, 10); // 打印中断的长短地址信息
//  470         } else { // 更新终端所在节点的在线时长，标记为在线状态
//  471           updateListEleStatus(LL, ret, INIT_LEFT_SEC);
//  472           myprintf("Already In List, update()\n");
//  473         }
//  474         // myprintf("length = %d\n", ListLength_L(LL));
//  475       } else if(cmd == 0x72 && pkt->cmd.Data[10] == '@') { // 收到终端回复的确认收到投币命令
//  476         mySendByteBuf(pkt->cmd.Data, 11); // 转发回复消息到上位机        
//  477       } else if(cmd == 0x51 && pkt->cmd.Data[12] == '@') { // 终端按键S1上传的长短地址信息
//  478         printAddrInfoHex(pkt->cmd.Data+2, 10);
//  479         mySendByteBuf(pkt->cmd.Data, 13);
//  480       }
//  481     }
//  482 #endif    
//  483 #ifdef END_DEVICE //终端接收数据处理
//  484     data = pkt->cmd.Data[0];
//  485     cmd = pkt->cmd.Data[1];
        LCALL   ?Subroutine14 & 0xFFFF
??CrossCallReturnLabel_24:
        MOVX    A,@DPTR
        MOV     R0,A
        INC     DPTR
        MOVX    A,@DPTR
        MOV     R1,A
        MOV     DPL,R0
        MOV     DPH,R1
        INC     DPTR
        MOVX    A,@DPTR
        MOV     R4,A
//  486     if(data == '#')
        MOV     DPL,R0
        MOV     DPH,R1
        MOVX    A,@DPTR
        XRL     A,#0x23
        JNZ     ??SampleApp_MessageMSGCB_1
//  487     {
//  488       if(cmd == 0x81 && pkt->cmd.Data[3] == '@') { // 收到投递指定币数的消息
        MOV     A,#-0x7f
        XRL     A,R4
        JNZ     ??SampleApp_MessageMSGCB_2
        LCALL   ?Subroutine6 & 0xFFFF
??CrossCallReturnLabel_5:
        JNZ     ??SampleApp_MessageMSGCB_1
//  489         NeedCoinDelivered = pkt->cmd.Data[2]; // 开始模拟投币信号
        LCALL   ?Subroutine14 & 0xFFFF
??CrossCallReturnLabel_25:
        INC     DPTR
        MOVX    A,@DPTR
        MOV     DPH,A
        MOV     DPL,R0
        INC     DPTR
        INC     DPTR
        MOVX    A,@DPTR
        MOV     DPTR,#NeedCoinDelivered
        MOVX    @DPTR,A
//  490         COIN_SIMULATE_PIN = 1; // 初始高电平
        SETB    0x90.2
//  491         osal_start_timerEx( SampleApp_TaskID, SAMPLEAPP_SIMULATE_COIN_MSG_EVT, COIN_SIGNAL_HALF_TIME); // 产生定时器事件                
        ; Setup parameters for call to function osal_start_timerEx
        MOV     R4,#0x28
        MOV     R5,#0x0
        MOV     R2,#0x2
        LCALL   ??Subroutine18_0 & 0xFFFF
//  492         AfReplyGetCoinCmd();  // 回复已经收到投币命令0x72
??CrossCallReturnLabel_34:
        ; Setup parameters for call to function AfReplyGetCoinCmd
        LCALL   ??AfReplyGetCoinCmd?relay
//  493         myprintf("NeedCoinDelivered = %d\n", NeedCoinDelivered);
        ; Setup parameters for call to function myprintf
        MOV     DPTR,#NeedCoinDelivered
        MOVX    A,@DPTR
        MOV     ?V0 + 0,A
        RLC     A
        SUBB    A,0xE0 /* A   */
        MOV     ?V0 + 1,A
        MOV     R0,#?V0 + 0
        LCALL   ?PUSH_XSTACK_I_TWO
        CFI CFA_XSP16 add(XSP16, 12)
        MOV     R2,#`?<Constant "NeedCoinDelivered = %d\\n">` & 0xff
        MOV     R3,#(`?<Constant "NeedCoinDelivered = %d\\n">` >> 8) & 0xff
        LCALL   ?Subroutine11 & 0xFFFF
//  494       } else if(cmd == 0x31 && pkt->cmd.Data[3] == '@') { // LED2闪灯测试命令
??CrossCallReturnLabel_19:
        LCALL   ?DEALLOC_XSTACK8
        CFI CFA_XSP16 add(XSP16, 10)
        SJMP    ??SampleApp_MessageMSGCB_1
??SampleApp_MessageMSGCB_2:
        MOV     A,#0x31
        XRL     A,R4
        JNZ     ??SampleApp_MessageMSGCB_1
        LCALL   ?Subroutine6 & 0xFFFF
??CrossCallReturnLabel_6:
        JNZ     ??SampleApp_MessageMSGCB_1
//  495         HalLedBlink(HAL_LED_1, 1, 50, 500);
        ; Setup parameters for call to function HalLedBlink
        MOV     R4,#-0xc
        MOV     R5,#0x1
        MOV     R3,#0x32
        MOV     R2,#0x1
        MOV     R1,#0x1
        LCALL   ??HalLedBlink?relay
        CFI EndBlock cfiBlock13
//  496 #ifdef NEED_TEST_DIStANCE
//  497         recvTestMsgCount++;
//  498         HalLcdWriteString("Recv:", HAL_LCD_LINE_5);
//  499         convertHexToStr(recvTestMsgCount, HAL_LCD_LINE_6);
//  500 #endif        
//  501       }
//  502     }        
//  503 #endif    
//  504     break;
//  505     
//  506   default:
//  507     break;
//  508   }
//  509 }
??SampleApp_MessageMSGCB_1:
        REQUIRE ?Subroutine1
        REQUIRE _A_P1
        ; // Fall through to label ?Subroutine1

        RSEG BANKED_CODE:CODE:NOROOT(0)
?Subroutine1:
        CFI Block cfiBlock14 Using cfiCommon1
        CFI NoFunction
        CFI CFA_SP SP+0
        CFI CFA_XSP16 add(XSP16, 10)
        CFI VB load(1, XDATA, add(CFA_XSP16, literal(-9)))
        CFI DPL0 load(1, XDATA, add(CFA_XSP16, literal(-2)))
        CFI DPH0 load(1, XDATA, add(CFA_XSP16, literal(-1)))
        CFI R6 load(1, XDATA, add(CFA_XSP16, literal(-10)))
        CFI R7 load(1, XDATA, add(CFA_XSP16, literal(-6)))
        CFI V0 load(1, XDATA, add(CFA_XSP16, literal(-8)))
        CFI V1 load(1, XDATA, add(CFA_XSP16, literal(-7)))
        CFI ?BRET_EXT load(1, XDATA, add(CFA_XSP16, literal(-3)))
        CFI ?RET_HIGH load(1, XDATA, add(CFA_XSP16, literal(-4)))
        CFI ?RET_LOW load(1, XDATA, add(CFA_XSP16, literal(-5)))
        MOV     R7,#0x2
        LJMP    ?BANKED_LEAVE_XDATA
        CFI EndBlock cfiBlock14

        RSEG BANKED_CODE:CODE:NOROOT(0)
?Subroutine14:
        CFI Block cfiCond15 Using cfiCommon1
        CFI NoFunction
        CFI Conditional ??CrossCallReturnLabel_24
        CFI R6 load(1, XDATA, add(CFA_XSP16, literal(-10)))
        CFI VB load(1, XDATA, add(CFA_XSP16, literal(-9)))
        CFI V0 load(1, XDATA, add(CFA_XSP16, literal(-8)))
        CFI V1 load(1, XDATA, add(CFA_XSP16, literal(-7)))
        CFI R7 load(1, XDATA, add(CFA_XSP16, literal(-6)))
        CFI ?RET_LOW load(1, XDATA, add(CFA_XSP16, literal(-5)))
        CFI ?RET_HIGH load(1, XDATA, add(CFA_XSP16, literal(-4)))
        CFI ?BRET_EXT load(1, XDATA, add(CFA_XSP16, literal(-3)))
        CFI DPL0 load(1, XDATA, add(CFA_XSP16, literal(-2)))
        CFI DPH0 load(1, XDATA, add(CFA_XSP16, literal(-1)))
        CFI CFA_SP SP+0
        CFI CFA_XSP16 add(XSP16, 10)
        CFI Block cfiCond16 Using cfiCommon1
        CFI (cfiCond16) NoFunction
        CFI (cfiCond16) Conditional ??CrossCallReturnLabel_25
        CFI (cfiCond16) R6 load(1, XDATA, add(CFA_XSP16, literal(-10)))
        CFI (cfiCond16) VB load(1, XDATA, add(CFA_XSP16, literal(-9)))
        CFI (cfiCond16) V0 load(1, XDATA, add(CFA_XSP16, literal(-8)))
        CFI (cfiCond16) V1 load(1, XDATA, add(CFA_XSP16, literal(-7)))
        CFI (cfiCond16) R7 load(1, XDATA, add(CFA_XSP16, literal(-6)))
        CFI (cfiCond16) ?RET_LOW load(1, XDATA, add(CFA_XSP16, literal(-5)))
        CFI (cfiCond16) ?RET_HIGH load(1, XDATA, add(CFA_XSP16, literal(-4)))
        CFI (cfiCond16) ?BRET_EXT load(1, XDATA, add(CFA_XSP16, literal(-3)))
        CFI (cfiCond16) DPL0 load(1, XDATA, add(CFA_XSP16, literal(-2)))
        CFI (cfiCond16) DPH0 load(1, XDATA, add(CFA_XSP16, literal(-1)))
        CFI (cfiCond16) CFA_SP SP+0
        CFI (cfiCond16) CFA_XSP16 add(XSP16, 10)
        CFI Block cfiPicker17 Using cfiCommon0
        CFI (cfiPicker17) NoFunction
        CFI (cfiPicker17) Picker
        LCALL   ?Subroutine16 & 0xFFFF
??CrossCallReturnLabel_27:
        RET
        CFI EndBlock cfiCond15
        CFI EndBlock cfiCond16
        CFI EndBlock cfiPicker17

        RSEG BANKED_CODE:CODE:NOROOT(0)
?Subroutine16:
        CFI Block cfiCond18 Using cfiCommon1
        CFI NoFunction
        CFI Conditional ??CrossCallReturnLabel_27, ??CrossCallReturnLabel_24
        CFI R6 load(1, XDATA, add(CFA_XSP16, literal(-10)))
        CFI VB load(1, XDATA, add(CFA_XSP16, literal(-9)))
        CFI V0 load(1, XDATA, add(CFA_XSP16, literal(-8)))
        CFI V1 load(1, XDATA, add(CFA_XSP16, literal(-7)))
        CFI R7 load(1, XDATA, add(CFA_XSP16, literal(-6)))
        CFI ?RET_LOW load(1, XDATA, add(CFA_XSP16, literal(-5)))
        CFI ?RET_HIGH load(1, XDATA, add(CFA_XSP16, literal(-4)))
        CFI ?BRET_EXT load(1, XDATA, add(CFA_XSP16, literal(-3)))
        CFI DPL0 load(1, XDATA, add(CFA_XSP16, literal(-2)))
        CFI DPH0 load(1, XDATA, add(CFA_XSP16, literal(-1)))
        CFI CFA_SP SP+0
        CFI CFA_XSP16 add(XSP16, 10)
        CFI Block cfiCond19 Using cfiCommon1
        CFI (cfiCond19) NoFunction
        CFI (cfiCond19) Conditional ??CrossCallReturnLabel_27, ??CrossCallReturnLabel_25
        CFI (cfiCond19) R6 load(1, XDATA, add(CFA_XSP16, literal(-10)))
        CFI (cfiCond19) VB load(1, XDATA, add(CFA_XSP16, literal(-9)))
        CFI (cfiCond19) V0 load(1, XDATA, add(CFA_XSP16, literal(-8)))
        CFI (cfiCond19) V1 load(1, XDATA, add(CFA_XSP16, literal(-7)))
        CFI (cfiCond19) R7 load(1, XDATA, add(CFA_XSP16, literal(-6)))
        CFI (cfiCond19) ?RET_LOW load(1, XDATA, add(CFA_XSP16, literal(-5)))
        CFI (cfiCond19) ?RET_HIGH load(1, XDATA, add(CFA_XSP16, literal(-4)))
        CFI (cfiCond19) ?BRET_EXT load(1, XDATA, add(CFA_XSP16, literal(-3)))
        CFI (cfiCond19) DPL0 load(1, XDATA, add(CFA_XSP16, literal(-2)))
        CFI (cfiCond19) DPH0 load(1, XDATA, add(CFA_XSP16, literal(-1)))
        CFI (cfiCond19) CFA_SP SP+0
        CFI (cfiCond19) CFA_XSP16 add(XSP16, 10)
        CFI Block cfiCond20 Using cfiCommon1
        CFI (cfiCond20) NoFunction
        CFI (cfiCond20) Conditional ??CrossCallReturnLabel_26, ??CrossCallReturnLabel_5
        CFI (cfiCond20) R6 load(1, XDATA, add(CFA_XSP16, literal(-10)))
        CFI (cfiCond20) VB load(1, XDATA, add(CFA_XSP16, literal(-9)))
        CFI (cfiCond20) V0 load(1, XDATA, add(CFA_XSP16, literal(-8)))
        CFI (cfiCond20) V1 load(1, XDATA, add(CFA_XSP16, literal(-7)))
        CFI (cfiCond20) R7 load(1, XDATA, add(CFA_XSP16, literal(-6)))
        CFI (cfiCond20) ?RET_LOW load(1, XDATA, add(CFA_XSP16, literal(-5)))
        CFI (cfiCond20) ?RET_HIGH load(1, XDATA, add(CFA_XSP16, literal(-4)))
        CFI (cfiCond20) ?BRET_EXT load(1, XDATA, add(CFA_XSP16, literal(-3)))
        CFI (cfiCond20) DPL0 load(1, XDATA, add(CFA_XSP16, literal(-2)))
        CFI (cfiCond20) DPH0 load(1, XDATA, add(CFA_XSP16, literal(-1)))
        CFI (cfiCond20) CFA_SP SP+0
        CFI (cfiCond20) CFA_XSP16 add(XSP16, 10)
        CFI Block cfiCond21 Using cfiCommon1
        CFI (cfiCond21) NoFunction
        CFI (cfiCond21) Conditional ??CrossCallReturnLabel_26, ??CrossCallReturnLabel_6
        CFI (cfiCond21) R6 load(1, XDATA, add(CFA_XSP16, literal(-10)))
        CFI (cfiCond21) VB load(1, XDATA, add(CFA_XSP16, literal(-9)))
        CFI (cfiCond21) V0 load(1, XDATA, add(CFA_XSP16, literal(-8)))
        CFI (cfiCond21) V1 load(1, XDATA, add(CFA_XSP16, literal(-7)))
        CFI (cfiCond21) R7 load(1, XDATA, add(CFA_XSP16, literal(-6)))
        CFI (cfiCond21) ?RET_LOW load(1, XDATA, add(CFA_XSP16, literal(-5)))
        CFI (cfiCond21) ?RET_HIGH load(1, XDATA, add(CFA_XSP16, literal(-4)))
        CFI (cfiCond21) ?BRET_EXT load(1, XDATA, add(CFA_XSP16, literal(-3)))
        CFI (cfiCond21) DPL0 load(1, XDATA, add(CFA_XSP16, literal(-2)))
        CFI (cfiCond21) DPH0 load(1, XDATA, add(CFA_XSP16, literal(-1)))
        CFI (cfiCond21) CFA_SP SP+0
        CFI (cfiCond21) CFA_XSP16 add(XSP16, 10)
        CFI Block cfiPicker22 Using cfiCommon0
        CFI (cfiPicker22) NoFunction
        CFI (cfiPicker22) Picker
        MOV     A,R2
        ADD     A,#0x22
        MOV     DPL,A
        MOV     A,R3
        ADDC    A,#0x0
        MOV     DPH,A
        RET
        CFI EndBlock cfiCond18
        CFI EndBlock cfiCond19
        CFI EndBlock cfiCond20
        CFI EndBlock cfiCond21
        CFI EndBlock cfiPicker22

        RSEG BANKED_CODE:CODE:NOROOT(0)
?Subroutine6:
        CFI Block cfiCond23 Using cfiCommon1
        CFI NoFunction
        CFI Conditional ??CrossCallReturnLabel_5
        CFI R6 load(1, XDATA, add(CFA_XSP16, literal(-10)))
        CFI VB load(1, XDATA, add(CFA_XSP16, literal(-9)))
        CFI V0 load(1, XDATA, add(CFA_XSP16, literal(-8)))
        CFI V1 load(1, XDATA, add(CFA_XSP16, literal(-7)))
        CFI R7 load(1, XDATA, add(CFA_XSP16, literal(-6)))
        CFI ?RET_LOW load(1, XDATA, add(CFA_XSP16, literal(-5)))
        CFI ?RET_HIGH load(1, XDATA, add(CFA_XSP16, literal(-4)))
        CFI ?BRET_EXT load(1, XDATA, add(CFA_XSP16, literal(-3)))
        CFI DPL0 load(1, XDATA, add(CFA_XSP16, literal(-2)))
        CFI DPH0 load(1, XDATA, add(CFA_XSP16, literal(-1)))
        CFI CFA_SP SP+0
        CFI CFA_XSP16 add(XSP16, 10)
        CFI Block cfiCond24 Using cfiCommon1
        CFI (cfiCond24) NoFunction
        CFI (cfiCond24) Conditional ??CrossCallReturnLabel_6
        CFI (cfiCond24) R6 load(1, XDATA, add(CFA_XSP16, literal(-10)))
        CFI (cfiCond24) VB load(1, XDATA, add(CFA_XSP16, literal(-9)))
        CFI (cfiCond24) V0 load(1, XDATA, add(CFA_XSP16, literal(-8)))
        CFI (cfiCond24) V1 load(1, XDATA, add(CFA_XSP16, literal(-7)))
        CFI (cfiCond24) R7 load(1, XDATA, add(CFA_XSP16, literal(-6)))
        CFI (cfiCond24) ?RET_LOW load(1, XDATA, add(CFA_XSP16, literal(-5)))
        CFI (cfiCond24) ?RET_HIGH load(1, XDATA, add(CFA_XSP16, literal(-4)))
        CFI (cfiCond24) ?BRET_EXT load(1, XDATA, add(CFA_XSP16, literal(-3)))
        CFI (cfiCond24) DPL0 load(1, XDATA, add(CFA_XSP16, literal(-2)))
        CFI (cfiCond24) DPH0 load(1, XDATA, add(CFA_XSP16, literal(-1)))
        CFI (cfiCond24) CFA_SP SP+0
        CFI (cfiCond24) CFA_XSP16 add(XSP16, 10)
        CFI Block cfiPicker25 Using cfiCommon0
        CFI (cfiPicker25) NoFunction
        CFI (cfiPicker25) Picker
        LCALL   ?Subroutine16 & 0xFFFF
??CrossCallReturnLabel_26:
        INC     DPTR
        MOVX    A,@DPTR
        MOV     DPH,A
        MOV     DPL,R0
        INC     DPTR
        INC     DPTR
        INC     DPTR
        MOVX    A,@DPTR
        XRL     A,#0x40
        RET
        CFI EndBlock cfiCond23
        CFI EndBlock cfiCond24
        CFI EndBlock cfiPicker25

        RSEG BANKED_CODE:CODE:NOROOT(0)
?Subroutine4:
        CFI Block cfiCond26 Using cfiCommon1
        CFI NoFunction
        CFI Conditional ??CrossCallReturnLabel_28
        CFI R6 load(1, XDATA, add(CFA_XSP16, literal(-12)))
        CFI VB load(1, XDATA, add(CFA_XSP16, literal(-11)))
        CFI V0 load(1, XDATA, add(CFA_XSP16, literal(-10)))
        CFI V1 load(1, XDATA, add(CFA_XSP16, literal(-9)))
        CFI V2 load(1, XDATA, add(CFA_XSP16, literal(-8)))
        CFI V3 load(1, XDATA, add(CFA_XSP16, literal(-7)))
        CFI R7 load(1, XDATA, add(CFA_XSP16, literal(-6)))
        CFI ?RET_LOW load(1, XDATA, add(CFA_XSP16, literal(-5)))
        CFI ?RET_HIGH load(1, XDATA, add(CFA_XSP16, literal(-4)))
        CFI ?BRET_EXT load(1, XDATA, add(CFA_XSP16, literal(-3)))
        CFI DPL0 load(1, XDATA, add(CFA_XSP16, literal(-2)))
        CFI DPH0 load(1, XDATA, add(CFA_XSP16, literal(-1)))
        CFI CFA_SP SP+0
        CFI CFA_XSP16 add(XSP16, 15)
        CFI Block cfiCond27 Using cfiCommon1
        CFI (cfiCond27) NoFunction
        CFI (cfiCond27) Conditional ??CrossCallReturnLabel_29
        CFI (cfiCond27) R6 load(1, XDATA, add(CFA_XSP16, literal(-12)))
        CFI (cfiCond27) VB load(1, XDATA, add(CFA_XSP16, literal(-11)))
        CFI (cfiCond27) V0 load(1, XDATA, add(CFA_XSP16, literal(-10)))
        CFI (cfiCond27) V1 load(1, XDATA, add(CFA_XSP16, literal(-9)))
        CFI (cfiCond27) V2 load(1, XDATA, add(CFA_XSP16, literal(-8)))
        CFI (cfiCond27) V3 load(1, XDATA, add(CFA_XSP16, literal(-7)))
        CFI (cfiCond27) R7 load(1, XDATA, add(CFA_XSP16, literal(-6)))
        CFI (cfiCond27) ?RET_LOW load(1, XDATA, add(CFA_XSP16, literal(-5)))
        CFI (cfiCond27) ?RET_HIGH load(1, XDATA, add(CFA_XSP16, literal(-4)))
        CFI (cfiCond27) ?BRET_EXT load(1, XDATA, add(CFA_XSP16, literal(-3)))
        CFI (cfiCond27) DPL0 load(1, XDATA, add(CFA_XSP16, literal(-2)))
        CFI (cfiCond27) DPH0 load(1, XDATA, add(CFA_XSP16, literal(-1)))
        CFI (cfiCond27) CFA_SP SP+0
        CFI (cfiCond27) CFA_XSP16 add(XSP16, 15)
        CFI Block cfiPicker28 Using cfiCommon0
        CFI (cfiPicker28) NoFunction
        CFI (cfiPicker28) Picker
        MOV     R4,#-0x18
        MOV     R5,#0x3
        CFI EndBlock cfiCond26
        CFI EndBlock cfiCond27
        CFI EndBlock cfiPicker28
        REQUIRE ??Subroutine17_0
        ; // Fall through to label ??Subroutine17_0

        RSEG BANKED_CODE:CODE:NOROOT(0)
??Subroutine17_0:
        CFI Block cfiCond29 Using cfiCommon1
        CFI NoFunction
        CFI Conditional ??CrossCallReturnLabel_30
        CFI R6 load(1, XDATA, add(CFA_XSP16, literal(-12)))
        CFI VB load(1, XDATA, add(CFA_XSP16, literal(-11)))
        CFI V0 load(1, XDATA, add(CFA_XSP16, literal(-10)))
        CFI V1 load(1, XDATA, add(CFA_XSP16, literal(-9)))
        CFI V2 load(1, XDATA, add(CFA_XSP16, literal(-8)))
        CFI V3 load(1, XDATA, add(CFA_XSP16, literal(-7)))
        CFI R7 load(1, XDATA, add(CFA_XSP16, literal(-6)))
        CFI ?RET_LOW load(1, XDATA, add(CFA_XSP16, literal(-5)))
        CFI ?RET_HIGH load(1, XDATA, add(CFA_XSP16, literal(-4)))
        CFI ?BRET_EXT load(1, XDATA, add(CFA_XSP16, literal(-3)))
        CFI DPL0 load(1, XDATA, add(CFA_XSP16, literal(-2)))
        CFI DPH0 load(1, XDATA, add(CFA_XSP16, literal(-1)))
        CFI CFA_SP SP+0
        CFI CFA_XSP16 add(XSP16, 15)
        CFI Block cfiCond30 Using cfiCommon1
        CFI (cfiCond30) NoFunction
        CFI (cfiCond30) Conditional ??CrossCallReturnLabel_28
        CFI (cfiCond30) R6 load(1, XDATA, add(CFA_XSP16, literal(-12)))
        CFI (cfiCond30) VB load(1, XDATA, add(CFA_XSP16, literal(-11)))
        CFI (cfiCond30) V0 load(1, XDATA, add(CFA_XSP16, literal(-10)))
        CFI (cfiCond30) V1 load(1, XDATA, add(CFA_XSP16, literal(-9)))
        CFI (cfiCond30) V2 load(1, XDATA, add(CFA_XSP16, literal(-8)))
        CFI (cfiCond30) V3 load(1, XDATA, add(CFA_XSP16, literal(-7)))
        CFI (cfiCond30) R7 load(1, XDATA, add(CFA_XSP16, literal(-6)))
        CFI (cfiCond30) ?RET_LOW load(1, XDATA, add(CFA_XSP16, literal(-5)))
        CFI (cfiCond30) ?RET_HIGH load(1, XDATA, add(CFA_XSP16, literal(-4)))
        CFI (cfiCond30) ?BRET_EXT load(1, XDATA, add(CFA_XSP16, literal(-3)))
        CFI (cfiCond30) DPL0 load(1, XDATA, add(CFA_XSP16, literal(-2)))
        CFI (cfiCond30) DPH0 load(1, XDATA, add(CFA_XSP16, literal(-1)))
        CFI (cfiCond30) CFA_SP SP+0
        CFI (cfiCond30) CFA_XSP16 add(XSP16, 15)
        CFI Block cfiCond31 Using cfiCommon1
        CFI (cfiCond31) NoFunction
        CFI (cfiCond31) Conditional ??CrossCallReturnLabel_29
        CFI (cfiCond31) R6 load(1, XDATA, add(CFA_XSP16, literal(-12)))
        CFI (cfiCond31) VB load(1, XDATA, add(CFA_XSP16, literal(-11)))
        CFI (cfiCond31) V0 load(1, XDATA, add(CFA_XSP16, literal(-10)))
        CFI (cfiCond31) V1 load(1, XDATA, add(CFA_XSP16, literal(-9)))
        CFI (cfiCond31) V2 load(1, XDATA, add(CFA_XSP16, literal(-8)))
        CFI (cfiCond31) V3 load(1, XDATA, add(CFA_XSP16, literal(-7)))
        CFI (cfiCond31) R7 load(1, XDATA, add(CFA_XSP16, literal(-6)))
        CFI (cfiCond31) ?RET_LOW load(1, XDATA, add(CFA_XSP16, literal(-5)))
        CFI (cfiCond31) ?RET_HIGH load(1, XDATA, add(CFA_XSP16, literal(-4)))
        CFI (cfiCond31) ?BRET_EXT load(1, XDATA, add(CFA_XSP16, literal(-3)))
        CFI (cfiCond31) DPL0 load(1, XDATA, add(CFA_XSP16, literal(-2)))
        CFI (cfiCond31) DPH0 load(1, XDATA, add(CFA_XSP16, literal(-1)))
        CFI (cfiCond31) CFA_SP SP+0
        CFI (cfiCond31) CFA_XSP16 add(XSP16, 15)
        CFI Block cfiPicker32 Using cfiCommon0
        CFI (cfiPicker32) NoFunction
        CFI (cfiPicker32) Picker
        MOV     R2,#0x1
        CFI EndBlock cfiCond29
        CFI EndBlock cfiCond30
        CFI EndBlock cfiCond31
        CFI EndBlock cfiPicker32
        REQUIRE ??Subroutine18_0
        ; // Fall through to label ??Subroutine18_0

        RSEG BANKED_CODE:CODE:NOROOT(0)
??Subroutine18_0:
        CFI Block cfiCond33 Using cfiCommon1
        CFI NoFunction
        CFI Conditional ??CrossCallReturnLabel_31
        CFI R6 load(1, XDATA, add(CFA_XSP16, literal(-12)))
        CFI VB load(1, XDATA, add(CFA_XSP16, literal(-11)))
        CFI V0 load(1, XDATA, add(CFA_XSP16, literal(-10)))
        CFI V1 load(1, XDATA, add(CFA_XSP16, literal(-9)))
        CFI V2 load(1, XDATA, add(CFA_XSP16, literal(-8)))
        CFI V3 load(1, XDATA, add(CFA_XSP16, literal(-7)))
        CFI R7 load(1, XDATA, add(CFA_XSP16, literal(-6)))
        CFI ?RET_LOW load(1, XDATA, add(CFA_XSP16, literal(-5)))
        CFI ?RET_HIGH load(1, XDATA, add(CFA_XSP16, literal(-4)))
        CFI ?BRET_EXT load(1, XDATA, add(CFA_XSP16, literal(-3)))
        CFI DPL0 load(1, XDATA, add(CFA_XSP16, literal(-2)))
        CFI DPH0 load(1, XDATA, add(CFA_XSP16, literal(-1)))
        CFI CFA_SP SP+0
        CFI CFA_XSP16 add(XSP16, 15)
        CFI Block cfiCond34 Using cfiCommon1
        CFI (cfiCond34) NoFunction
        CFI (cfiCond34) Conditional ??CrossCallReturnLabel_32
        CFI (cfiCond34) R6 load(1, XDATA, add(CFA_XSP16, literal(-12)))
        CFI (cfiCond34) VB load(1, XDATA, add(CFA_XSP16, literal(-11)))
        CFI (cfiCond34) V0 load(1, XDATA, add(CFA_XSP16, literal(-10)))
        CFI (cfiCond34) V1 load(1, XDATA, add(CFA_XSP16, literal(-9)))
        CFI (cfiCond34) V2 load(1, XDATA, add(CFA_XSP16, literal(-8)))
        CFI (cfiCond34) V3 load(1, XDATA, add(CFA_XSP16, literal(-7)))
        CFI (cfiCond34) R7 load(1, XDATA, add(CFA_XSP16, literal(-6)))
        CFI (cfiCond34) ?RET_LOW load(1, XDATA, add(CFA_XSP16, literal(-5)))
        CFI (cfiCond34) ?RET_HIGH load(1, XDATA, add(CFA_XSP16, literal(-4)))
        CFI (cfiCond34) ?BRET_EXT load(1, XDATA, add(CFA_XSP16, literal(-3)))
        CFI (cfiCond34) DPL0 load(1, XDATA, add(CFA_XSP16, literal(-2)))
        CFI (cfiCond34) DPH0 load(1, XDATA, add(CFA_XSP16, literal(-1)))
        CFI (cfiCond34) CFA_SP SP+0
        CFI (cfiCond34) CFA_XSP16 add(XSP16, 15)
        CFI Block cfiCond35 Using cfiCommon1
        CFI (cfiCond35) NoFunction
        CFI (cfiCond35) Conditional ??CrossCallReturnLabel_33
        CFI (cfiCond35) R6 load(1, XDATA, add(CFA_XSP16, literal(-12)))
        CFI (cfiCond35) VB load(1, XDATA, add(CFA_XSP16, literal(-11)))
        CFI (cfiCond35) V0 load(1, XDATA, add(CFA_XSP16, literal(-10)))
        CFI (cfiCond35) V1 load(1, XDATA, add(CFA_XSP16, literal(-9)))
        CFI (cfiCond35) V2 load(1, XDATA, add(CFA_XSP16, literal(-8)))
        CFI (cfiCond35) V3 load(1, XDATA, add(CFA_XSP16, literal(-7)))
        CFI (cfiCond35) R7 load(1, XDATA, add(CFA_XSP16, literal(-6)))
        CFI (cfiCond35) ?RET_LOW load(1, XDATA, add(CFA_XSP16, literal(-5)))
        CFI (cfiCond35) ?RET_HIGH load(1, XDATA, add(CFA_XSP16, literal(-4)))
        CFI (cfiCond35) ?BRET_EXT load(1, XDATA, add(CFA_XSP16, literal(-3)))
        CFI (cfiCond35) DPL0 load(1, XDATA, add(CFA_XSP16, literal(-2)))
        CFI (cfiCond35) DPH0 load(1, XDATA, add(CFA_XSP16, literal(-1)))
        CFI (cfiCond35) CFA_SP SP+0
        CFI (cfiCond35) CFA_XSP16 add(XSP16, 15)
        CFI Block cfiCond36 Using cfiCommon1
        CFI (cfiCond36) NoFunction
        CFI (cfiCond36) Conditional ??CrossCallReturnLabel_34
        CFI (cfiCond36) R6 load(1, XDATA, add(CFA_XSP16, literal(-10)))
        CFI (cfiCond36) VB load(1, XDATA, add(CFA_XSP16, literal(-9)))
        CFI (cfiCond36) V0 load(1, XDATA, add(CFA_XSP16, literal(-8)))
        CFI (cfiCond36) V1 load(1, XDATA, add(CFA_XSP16, literal(-7)))
        CFI (cfiCond36) R7 load(1, XDATA, add(CFA_XSP16, literal(-6)))
        CFI (cfiCond36) ?RET_LOW load(1, XDATA, add(CFA_XSP16, literal(-5)))
        CFI (cfiCond36) ?RET_HIGH load(1, XDATA, add(CFA_XSP16, literal(-4)))
        CFI (cfiCond36) ?BRET_EXT load(1, XDATA, add(CFA_XSP16, literal(-3)))
        CFI (cfiCond36) DPL0 load(1, XDATA, add(CFA_XSP16, literal(-2)))
        CFI (cfiCond36) DPH0 load(1, XDATA, add(CFA_XSP16, literal(-1)))
        CFI (cfiCond36) CFA_SP SP+0
        CFI (cfiCond36) CFA_XSP16 add(XSP16, 10)
        CFI Block cfiCond37 Using cfiCommon1
        CFI (cfiCond37) NoFunction
        CFI (cfiCond37) Conditional ??CrossCallReturnLabel_30
        CFI (cfiCond37) R6 load(1, XDATA, add(CFA_XSP16, literal(-12)))
        CFI (cfiCond37) VB load(1, XDATA, add(CFA_XSP16, literal(-11)))
        CFI (cfiCond37) V0 load(1, XDATA, add(CFA_XSP16, literal(-10)))
        CFI (cfiCond37) V1 load(1, XDATA, add(CFA_XSP16, literal(-9)))
        CFI (cfiCond37) V2 load(1, XDATA, add(CFA_XSP16, literal(-8)))
        CFI (cfiCond37) V3 load(1, XDATA, add(CFA_XSP16, literal(-7)))
        CFI (cfiCond37) R7 load(1, XDATA, add(CFA_XSP16, literal(-6)))
        CFI (cfiCond37) ?RET_LOW load(1, XDATA, add(CFA_XSP16, literal(-5)))
        CFI (cfiCond37) ?RET_HIGH load(1, XDATA, add(CFA_XSP16, literal(-4)))
        CFI (cfiCond37) ?BRET_EXT load(1, XDATA, add(CFA_XSP16, literal(-3)))
        CFI (cfiCond37) DPL0 load(1, XDATA, add(CFA_XSP16, literal(-2)))
        CFI (cfiCond37) DPH0 load(1, XDATA, add(CFA_XSP16, literal(-1)))
        CFI (cfiCond37) CFA_SP SP+0
        CFI (cfiCond37) CFA_XSP16 add(XSP16, 15)
        CFI Block cfiCond38 Using cfiCommon1
        CFI (cfiCond38) NoFunction
        CFI (cfiCond38) Conditional ??CrossCallReturnLabel_28
        CFI (cfiCond38) R6 load(1, XDATA, add(CFA_XSP16, literal(-12)))
        CFI (cfiCond38) VB load(1, XDATA, add(CFA_XSP16, literal(-11)))
        CFI (cfiCond38) V0 load(1, XDATA, add(CFA_XSP16, literal(-10)))
        CFI (cfiCond38) V1 load(1, XDATA, add(CFA_XSP16, literal(-9)))
        CFI (cfiCond38) V2 load(1, XDATA, add(CFA_XSP16, literal(-8)))
        CFI (cfiCond38) V3 load(1, XDATA, add(CFA_XSP16, literal(-7)))
        CFI (cfiCond38) R7 load(1, XDATA, add(CFA_XSP16, literal(-6)))
        CFI (cfiCond38) ?RET_LOW load(1, XDATA, add(CFA_XSP16, literal(-5)))
        CFI (cfiCond38) ?RET_HIGH load(1, XDATA, add(CFA_XSP16, literal(-4)))
        CFI (cfiCond38) ?BRET_EXT load(1, XDATA, add(CFA_XSP16, literal(-3)))
        CFI (cfiCond38) DPL0 load(1, XDATA, add(CFA_XSP16, literal(-2)))
        CFI (cfiCond38) DPH0 load(1, XDATA, add(CFA_XSP16, literal(-1)))
        CFI (cfiCond38) CFA_SP SP+0
        CFI (cfiCond38) CFA_XSP16 add(XSP16, 15)
        CFI Block cfiCond39 Using cfiCommon1
        CFI (cfiCond39) NoFunction
        CFI (cfiCond39) Conditional ??CrossCallReturnLabel_29
        CFI (cfiCond39) R6 load(1, XDATA, add(CFA_XSP16, literal(-12)))
        CFI (cfiCond39) VB load(1, XDATA, add(CFA_XSP16, literal(-11)))
        CFI (cfiCond39) V0 load(1, XDATA, add(CFA_XSP16, literal(-10)))
        CFI (cfiCond39) V1 load(1, XDATA, add(CFA_XSP16, literal(-9)))
        CFI (cfiCond39) V2 load(1, XDATA, add(CFA_XSP16, literal(-8)))
        CFI (cfiCond39) V3 load(1, XDATA, add(CFA_XSP16, literal(-7)))
        CFI (cfiCond39) R7 load(1, XDATA, add(CFA_XSP16, literal(-6)))
        CFI (cfiCond39) ?RET_LOW load(1, XDATA, add(CFA_XSP16, literal(-5)))
        CFI (cfiCond39) ?RET_HIGH load(1, XDATA, add(CFA_XSP16, literal(-4)))
        CFI (cfiCond39) ?BRET_EXT load(1, XDATA, add(CFA_XSP16, literal(-3)))
        CFI (cfiCond39) DPL0 load(1, XDATA, add(CFA_XSP16, literal(-2)))
        CFI (cfiCond39) DPH0 load(1, XDATA, add(CFA_XSP16, literal(-1)))
        CFI (cfiCond39) CFA_SP SP+0
        CFI (cfiCond39) CFA_XSP16 add(XSP16, 15)
        CFI Block cfiPicker40 Using cfiCommon0
        CFI (cfiPicker40) NoFunction
        CFI (cfiPicker40) Picker
        MOV     R3,#0x0
        MOV     DPTR,#SampleApp_TaskID
        MOVX    A,@DPTR
        MOV     R1,A
        LCALL   ??osal_start_timerEx?relay
        RET
        CFI EndBlock cfiCond33
        CFI EndBlock cfiCond34
        CFI EndBlock cfiCond35
        CFI EndBlock cfiCond36
        CFI EndBlock cfiCond37
        CFI EndBlock cfiCond38
        CFI EndBlock cfiCond39
        CFI EndBlock cfiPicker40
//  510 
//  511 /**
//  512 * 协调器向终端发送广播类型消息
//  513 */

        RSEG BANKED_CODE:CODE:NOROOT(0)
//  514 void SampleApp_SendPeriodicMessage( int8 key )
SampleApp_SendPeriodicMessage:
        CFI Block cfiBlock41 Using cfiCommon1
        CFI Function SampleApp_SendPeriodicMessage
        CODE
//  515 {
        FUNCALL SampleApp_SendPeriodicMessage, AF_DataRequest
        LOCFRAME ISTACK, 0, STACK
        LOCFRAME PSTACK, 0, STACK
        LOCFRAME XSTACK, 23, STACK
        LOCFRAME IOVERLAY, 0, STATIC
        LOCFRAME DOVERLAY, 0, STATIC
        ARGFRAME ISTACK, 0, STACK
        ARGFRAME PSTACK, 0, STACK
        ARGFRAME XSTACK, 23, STACK
        ARGFRAME IOVERLAY, 0, STATIC
        ARGFRAME DOVERLAY, 0, STATIC
        FUNCALL SampleApp_SendPeriodicMessage, HalLedBlink
        LOCFRAME ISTACK, 0, STACK
        LOCFRAME PSTACK, 0, STACK
        LOCFRAME XSTACK, 14, STACK
        LOCFRAME IOVERLAY, 0, STATIC
        LOCFRAME DOVERLAY, 0, STATIC
        ARGFRAME ISTACK, 0, STACK
        ARGFRAME PSTACK, 0, STACK
        ARGFRAME XSTACK, 14, STACK
        ARGFRAME IOVERLAY, 0, STATIC
        ARGFRAME DOVERLAY, 0, STATIC
        MOV     A,#-0xa
        LCALL   ?BANKED_ENTER_XDATA
        CFI DPH0 load(1, XDATA, add(CFA_XSP16, literal(-1)))
        CFI DPL0 load(1, XDATA, add(CFA_XSP16, literal(-2)))
        CFI ?BRET_EXT load(1, XDATA, add(CFA_XSP16, literal(-3)))
        CFI ?RET_HIGH load(1, XDATA, add(CFA_XSP16, literal(-4)))
        CFI ?RET_LOW load(1, XDATA, add(CFA_XSP16, literal(-5)))
        CFI R7 load(1, XDATA, add(CFA_XSP16, literal(-6)))
        CFI V1 load(1, XDATA, add(CFA_XSP16, literal(-7)))
        CFI V0 load(1, XDATA, add(CFA_XSP16, literal(-8)))
        CFI VB load(1, XDATA, add(CFA_XSP16, literal(-9)))
        CFI R6 load(1, XDATA, add(CFA_XSP16, literal(-10)))
        CFI CFA_SP SP+0
        CFI CFA_XSP16 add(XSP16, 10)
        ; Saved register size: 10
        ; Auto size: 4
        MOV     A,#-0x4
        LCALL   ?ALLOC_XSTACK8
        CFI CFA_XSP16 add(XSP16, 14)
        MOV     A,R1
        MOV     R6,A
//  516   if(key == 1) { // 按键S1
        MOV     A,#0x1
        XRL     A,R6
        JNZ     ??SampleApp_SendPeriodicMessage_0
//  517     uint8 sendKeyS1Buf[4] = {'#', 0x31, 0, '@'};
        MOV     DPL,?XSP + 0
        MOV     DPH,?XSP + 1
        MOV     R4,DPL
        MOV     R5,DPH
        MOV     DPH,#(`?<Constant {35, 49, 0, 64}>` >> 8) & 0xff
        MOV     DPL,#`?<Constant {35, 49, 0, 64}>` & 0xff
        MOV     A,#0x4
        LCALL   ?MOVE_LONG8_XDATA_XDATA
//  518     
//  519     if ( AF_DataRequest( &SampleApp_Periodic_DstAddr, &SampleApp_epDesc,
//  520                         SAMPLEAPP_PERIODIC_CLUSTERID,
//  521                         4,
//  522                         sendKeyS1Buf,
//  523                         &SampleApp_TransID,
//  524                         AF_DISCV_ROUTE,
//  525                         AF_DEFAULT_RADIUS ) == afStatus_SUCCESS )
        ; Setup parameters for call to function AF_DataRequest
        MOV     ?V0 + 0,#0x1e
        MOV     R0,#?V0 + 0
        LCALL   ?PUSH_XSTACK_I_ONE
        CFI CFA_XSP16 add(XSP16, 15)
        MOV     ?V0 + 0,#SampleApp_TransID & 0xff
        MOV     ?V0 + 1,#(SampleApp_TransID >> 8) & 0xff
        MOV     R0,#?V0 + 0
        LCALL   ?PUSH_XSTACK_I_TWO
        CFI CFA_XSP16 add(XSP16, 17)
        MOV     A,#0x3
        LCALL   ?XSTACK_DISP0_8
        MOV     ?V0 + 0,DPL
        MOV     ?V0 + 1,DPH
        MOV     R0,#?V0 + 0
        LCALL   ?PUSH_XSTACK_I_TWO
        CFI CFA_XSP16 add(XSP16, 19)
        MOV     ?V0 + 0,#0x4
        MOV     ?V0 + 1,#0x0
        MOV     R0,#?V0 + 0
        LCALL   ?PUSH_XSTACK_I_TWO
        CFI CFA_XSP16 add(XSP16, 21)
        MOV     ?V0 + 0,#0x1
        MOV     R0,#?V0 + 0
        LCALL   ?PUSH_XSTACK_I_TWO
        CFI CFA_XSP16 add(XSP16, 23)
        MOV     R1,#0x20
        MOV     R4,#SampleApp_epDesc & 0xff
        MOV     R5,#(SampleApp_epDesc >> 8) & 0xff
        MOV     R2,#SampleApp_Periodic_DstAddr & 0xff
        MOV     R3,#(SampleApp_Periodic_DstAddr >> 8) & 0xff
        LCALL   ??Subroutine19_0 & 0xFFFF
??CrossCallReturnLabel_38:
        LCALL   ?DEALLOC_XSTACK8
        CFI CFA_XSP16 add(XSP16, 14)
        MOV     A,R1
        JNZ     ??SampleApp_SendPeriodicMessage_0
//  526     {
//  527       HalLedBlink(HAL_LED_1, 1, 50, 250);
        ; Setup parameters for call to function HalLedBlink
        MOV     R4,#-0x6
        MOV     R5,#0x0
        MOV     R3,#0x32
        MOV     R2,#0x1
        MOV     R1,#0x1
        LCALL   ??HalLedBlink?relay
//  528     }
//  529   } else if(key == 2) { // 按键S2
//  530     // myprintf("press key S2\n");
//  531   }
//  532 }
??SampleApp_SendPeriodicMessage_0:
        MOV     A,#0x4
        LCALL   ?DEALLOC_XSTACK8
        CFI CFA_XSP16 add(XSP16, 10)
        LJMP    ?Subroutine1 & 0xFFFF
        CFI EndBlock cfiBlock41
//  533 
//  534 /**
//  535   协调器心跳功能函数，使用串口向树莓派发送心跳信息
//  536 */
//  537 #ifdef NEED_TEST_DIStANCE
//  538   uint16 totalSendTestCount = 0;
//  539   uint16 sendTestCount = 0;
//  540 #endif  

        RSEG BANKED_CODE:CODE:NOROOT(0)
//  541 void SampleApp_SendHeartBeatMessageCoor(void) {
SampleApp_SendHeartBeatMessageCoor:
        CFI Block cfiBlock42 Using cfiCommon1
        CFI Function SampleApp_SendHeartBeatMessageCoor
        CODE
        FUNCALL SampleApp_SendHeartBeatMessageCoor, mySendByteBuf
        LOCFRAME ISTACK, 2, STACK
        LOCFRAME PSTACK, 0, STACK
        LOCFRAME XSTACK, 3, STACK
        LOCFRAME IOVERLAY, 0, STATIC
        LOCFRAME DOVERLAY, 0, STATIC
        ARGFRAME ISTACK, 2, STACK
        ARGFRAME PSTACK, 0, STACK
        ARGFRAME XSTACK, 3, STACK
        ARGFRAME IOVERLAY, 0, STATIC
        ARGFRAME DOVERLAY, 0, STATIC
        FUNCALL SampleApp_SendHeartBeatMessageCoor, decAllListEPLeftSec
        LOCFRAME ISTACK, 2, STACK
        LOCFRAME PSTACK, 0, STACK
        LOCFRAME XSTACK, 3, STACK
        LOCFRAME IOVERLAY, 0, STATIC
        LOCFRAME DOVERLAY, 0, STATIC
        ARGFRAME ISTACK, 2, STACK
        ARGFRAME PSTACK, 0, STACK
        ARGFRAME XSTACK, 3, STACK
        ARGFRAME IOVERLAY, 0, STATIC
        ARGFRAME DOVERLAY, 0, STATIC
        FUNCALL SampleApp_SendHeartBeatMessageCoor, HalLedBlink
        LOCFRAME ISTACK, 2, STACK
        LOCFRAME PSTACK, 0, STACK
        LOCFRAME XSTACK, 3, STACK
        LOCFRAME IOVERLAY, 0, STATIC
        LOCFRAME DOVERLAY, 0, STATIC
        ARGFRAME ISTACK, 2, STACK
        ARGFRAME PSTACK, 0, STACK
        ARGFRAME XSTACK, 3, STACK
        ARGFRAME IOVERLAY, 0, STATIC
        ARGFRAME DOVERLAY, 0, STATIC
        PUSH    DPL
        CFI DPL0 Frame(CFA_SP, 4)
        CFI CFA_SP SP+-4
        PUSH    DPH
        CFI DPH0 Frame(CFA_SP, 5)
        CFI CFA_SP SP+-5
        ; Saved register size: 2
        ; Auto size: 3
        MOV     A,#-0x3
        LCALL   ?ALLOC_XSTACK8
        CFI CFA_XSP16 add(XSP16, 3)
//  542   // 遍历终端列表，将所有节点剩余时间-1，如果小于0，则置0
//  543   uint8 heartBeatBuf[3] = {'#', 0x46, '@'};
        MOV     DPL,?XSP + 0
        MOV     DPH,?XSP + 1
        MOV     R4,DPL
        MOV     R5,DPH
        MOV     DPH,#(`?<Constant {35, 70, 64}>` >> 8) & 0xff
        MOV     DPL,#`?<Constant {35, 70, 64}>` & 0xff
        MOV     A,#0x3
        LCALL   ?MOVE_LONG8_XDATA_XDATA
//  544   mySendByteBuf(heartBeatBuf, 3);
        ; Setup parameters for call to function mySendByteBuf
        MOV     R4,#0x3
        MOV     R5,A
        MOV     DPL,?XSP + 0
        MOV     DPH,?XSP + 1
        MOV     R2,DPL
        MOV     R3,DPH
        LCALL   ??mySendByteBuf?relay
//  545   
//  546   // 将终端列表中元素在线时长-1，如果检测到超时则将IEEE发送到上位机
//  547   decAllListEPLeftSec(LL); 
        ; Setup parameters for call to function decAllListEPLeftSec
        MOV     DPTR,#LL
        MOVX    A,@DPTR
        MOV     R2,A
        INC     DPTR
        MOVX    A,@DPTR
        MOV     R3,A
        LCALL   ??decAllListEPLeftSec?relay
//  548   HalLedBlink(HAL_LED_2, 1, 50, 500);
        ; Setup parameters for call to function HalLedBlink
        MOV     R4,#-0xc
        MOV     R5,#0x1
        MOV     R3,#0x32
        MOV     R2,#0x1
        MOV     R1,#0x2
        LCALL   ??HalLedBlink?relay
//  549 #ifdef NEED_TEST_DIStANCE  
//  550   // 发送稳定性测试数据到终端设备
//  551   totalSendTestCount++;
//  552   if(totalSendTestCount % 3 == 0) {
//  553     SampleApp_SendPeriodicMessage(1);
//  554     myprintf("sendTestCount = %d\n", totalSendTestCount); // 串口打印发送的次数
//  555   }
//  556 #endif  
//  557 }
        MOV     A,#0x3
        LCALL   ?DEALLOC_XSTACK8
        CFI EndBlock cfiBlock42
        REQUIRE ?Subroutine2
        ; // Fall through to label ?Subroutine2

        RSEG BANKED_CODE:CODE:NOROOT(0)
?Subroutine2:
        CFI Block cfiBlock43 Using cfiCommon1
        CFI NoFunction
        CFI CFA_SP SP+-5
        CFI DPL0 Frame(CFA_SP, 4)
        CFI DPH0 Frame(CFA_SP, 5)
        POP     DPH
        CFI CFA_SP SP+-4
        CFI DPH0 SameValue
        POP     DPL
        CFI CFA_SP SP+-3
        CFI DPL0 SameValue
        LJMP    ?BRET
        CFI EndBlock cfiBlock43
//  558 
//  559 /**
//  560   终端心跳函数，用于定时向协调器发送本机地址信息
//  561 */

        RSEG BANKED_CODE:CODE:NOROOT(0)
//  562 void SampleApp_SendHeartBeatMessageEnd(void) { 
SampleApp_SendHeartBeatMessageEnd:
        CFI Block cfiBlock44 Using cfiCommon1
        CFI Function SampleApp_SendHeartBeatMessageEnd
        CODE
        FUNCALL SampleApp_SendHeartBeatMessageEnd, AfSendAddrInfo
        LOCFRAME ISTACK, 2, STACK
        LOCFRAME PSTACK, 0, STACK
        LOCFRAME XSTACK, 0, STACK
        LOCFRAME IOVERLAY, 0, STATIC
        LOCFRAME DOVERLAY, 0, STATIC
        ARGFRAME ISTACK, 2, STACK
        ARGFRAME PSTACK, 0, STACK
        ARGFRAME XSTACK, 0, STACK
        ARGFRAME IOVERLAY, 0, STATIC
        ARGFRAME DOVERLAY, 0, STATIC
        FUNCALL SampleApp_SendHeartBeatMessageEnd, myprintf
        LOCFRAME ISTACK, 2, STACK
        LOCFRAME PSTACK, 0, STACK
        LOCFRAME XSTACK, 0, STACK
        LOCFRAME IOVERLAY, 0, STATIC
        LOCFRAME DOVERLAY, 0, STATIC
        ARGFRAME ISTACK, 2, STACK
        ARGFRAME PSTACK, 0, STACK
        ARGFRAME XSTACK, 0, STACK
        ARGFRAME IOVERLAY, 0, STATIC
        ARGFRAME DOVERLAY, 0, STATIC
        PUSH    DPL
        CFI DPL0 Frame(CFA_SP, 4)
        CFI CFA_SP SP+-4
        PUSH    DPH
        CFI DPH0 Frame(CFA_SP, 5)
        CFI CFA_SP SP+-5
        ; Saved register size: 2
        ; Auto size: 0
//  563   AfSendAddrInfo(0x71);  
        ; Setup parameters for call to function AfSendAddrInfo
        MOV     R1,#0x71
        LCALL   ??AfSendAddrInfo?relay
//  564   myprintf("send heart_beat\n");
        ; Setup parameters for call to function myprintf
        MOV     R2,#`?<Constant "send heart_beat\\n">` & 0xff
        MOV     R3,#(`?<Constant "send heart_beat\\n">` >> 8) & 0xff
        LCALL   ??myprintf?relay
//  565 }
        SJMP    ?Subroutine2
        CFI EndBlock cfiBlock44
//  566 
//  567 /**
//  568   发送终端地址信息到协调器
//  569 */

        RSEG BANKED_CODE:CODE:NOROOT(0)
//  570 void AfSendAddrInfo(uint8 cmd) {
AfSendAddrInfo:
        CFI Block cfiBlock45 Using cfiCommon1
        CFI Function AfSendAddrInfo
        CODE
        FUNCALL AfSendAddrInfo, NLME_GetShortAddr
        LOCFRAME ISTACK, 0, STACK
        LOCFRAME PSTACK, 0, STACK
        LOCFRAME XSTACK, 24, STACK
        LOCFRAME IOVERLAY, 0, STATIC
        LOCFRAME DOVERLAY, 0, STATIC
        ARGFRAME ISTACK, 0, STACK
        ARGFRAME PSTACK, 0, STACK
        ARGFRAME XSTACK, 24, STACK
        ARGFRAME IOVERLAY, 0, STATIC
        ARGFRAME DOVERLAY, 0, STATIC
        FUNCALL AfSendAddrInfo, NLME_GetExtAddr
        LOCFRAME ISTACK, 0, STACK
        LOCFRAME PSTACK, 0, STACK
        LOCFRAME XSTACK, 24, STACK
        LOCFRAME IOVERLAY, 0, STATIC
        LOCFRAME DOVERLAY, 0, STATIC
        ARGFRAME ISTACK, 0, STACK
        ARGFRAME PSTACK, 0, STACK
        ARGFRAME XSTACK, 24, STACK
        ARGFRAME IOVERLAY, 0, STATIC
        ARGFRAME DOVERLAY, 0, STATIC
        FUNCALL AfSendAddrInfo, osal_memcpy
        LOCFRAME ISTACK, 0, STACK
        LOCFRAME PSTACK, 0, STACK
        LOCFRAME XSTACK, 27, STACK
        LOCFRAME IOVERLAY, 0, STATIC
        LOCFRAME DOVERLAY, 0, STATIC
        ARGFRAME ISTACK, 0, STACK
        ARGFRAME PSTACK, 0, STACK
        ARGFRAME XSTACK, 27, STACK
        ARGFRAME IOVERLAY, 0, STATIC
        ARGFRAME DOVERLAY, 0, STATIC
        FUNCALL AfSendAddrInfo, AF_DataRequest
        LOCFRAME ISTACK, 0, STACK
        LOCFRAME PSTACK, 0, STACK
        LOCFRAME XSTACK, 33, STACK
        LOCFRAME IOVERLAY, 0, STATIC
        LOCFRAME DOVERLAY, 0, STATIC
        ARGFRAME ISTACK, 0, STACK
        ARGFRAME PSTACK, 0, STACK
        ARGFRAME XSTACK, 33, STACK
        ARGFRAME IOVERLAY, 0, STATIC
        ARGFRAME DOVERLAY, 0, STATIC
        FUNCALL AfSendAddrInfo, HalLedBlink
        LOCFRAME ISTACK, 0, STACK
        LOCFRAME PSTACK, 0, STACK
        LOCFRAME XSTACK, 24, STACK
        LOCFRAME IOVERLAY, 0, STATIC
        LOCFRAME DOVERLAY, 0, STATIC
        ARGFRAME ISTACK, 0, STACK
        ARGFRAME PSTACK, 0, STACK
        ARGFRAME XSTACK, 24, STACK
        ARGFRAME IOVERLAY, 0, STATIC
        ARGFRAME DOVERLAY, 0, STATIC
        FUNCALL AfSendAddrInfo, HalLedBlink
        LOCFRAME ISTACK, 0, STACK
        LOCFRAME PSTACK, 0, STACK
        LOCFRAME XSTACK, 24, STACK
        LOCFRAME IOVERLAY, 0, STATIC
        LOCFRAME DOVERLAY, 0, STATIC
        ARGFRAME ISTACK, 0, STACK
        ARGFRAME PSTACK, 0, STACK
        ARGFRAME XSTACK, 24, STACK
        ARGFRAME IOVERLAY, 0, STATIC
        ARGFRAME DOVERLAY, 0, STATIC
        MOV     A,#-0xb
        LCALL   ?BANKED_ENTER_XDATA
        CFI DPH0 load(1, XDATA, add(CFA_XSP16, literal(-1)))
        CFI DPL0 load(1, XDATA, add(CFA_XSP16, literal(-2)))
        CFI ?BRET_EXT load(1, XDATA, add(CFA_XSP16, literal(-3)))
        CFI ?RET_HIGH load(1, XDATA, add(CFA_XSP16, literal(-4)))
        CFI ?RET_LOW load(1, XDATA, add(CFA_XSP16, literal(-5)))
        CFI R7 load(1, XDATA, add(CFA_XSP16, literal(-6)))
        CFI V2 load(1, XDATA, add(CFA_XSP16, literal(-7)))
        CFI V1 load(1, XDATA, add(CFA_XSP16, literal(-8)))
        CFI V0 load(1, XDATA, add(CFA_XSP16, literal(-9)))
        CFI VB load(1, XDATA, add(CFA_XSP16, literal(-10)))
        CFI R6 load(1, XDATA, add(CFA_XSP16, literal(-11)))
        CFI CFA_SP SP+0
        CFI CFA_XSP16 add(XSP16, 11)
        ; Saved register size: 11
        ; Auto size: 13
        MOV     A,#-0xd
        LCALL   ?ALLOC_XSTACK8
        CFI CFA_XSP16 add(XSP16, 24)
        MOV     A,R1
        MOV     R6,A
//  571   uint16 shortAddr;
//  572   uint8 strBuf[13] = {0};
        MOV     DPL,?XSP + 0
        MOV     DPH,?XSP + 1
        MOV     R4,DPL
        MOV     R5,DPH
        MOV     DPH,#(`?<Constant {0}>` >> 8) & 0xff
        MOV     DPL,#`?<Constant {0}>` & 0xff
        MOV     A,#0xd
        LCALL   ?MOVE_LONG8_XDATA_XDATA
//  573   
//  574   shortAddr = NLME_GetShortAddr(); // 获取自身网络设备地址，获取父设备网络地址：uint16 NLME_GetCoordShortAddr( void );
        ; Setup parameters for call to function NLME_GetShortAddr
        LCALL   ??NLME_GetShortAddr?relay
//  575   strBuf[0] = '#';  // 发送数据的标识，便于协调器解析
        MOV     DPL,?XSP + 0
        MOV     DPH,?XSP + 1
        MOV     A,#0x23
        MOVX    @DPTR,A
//  576   strBuf[1] = cmd; // 消息类型标识
        MOV     A,#0x1
        LCALL   ?XSTACK_DISP0_8
        MOV     A,R6
        MOVX    @DPTR,A
//  577   strBuf[2] = HI_UINT16(shortAddr); // 存放地址的高8位
        MOV     A,#0x2
        LCALL   ?XSTACK_DISP0_8
        MOV     A,R3
        MOVX    @DPTR,A
//  578   strBuf[3] = LO_UINT16(shortAddr); // 存放低8位
        MOV     A,#0x3
        LCALL   ?XSTACK_DISP0_8
        MOV     A,R2
        LCALL   ?Subroutine3 & 0xFFFF
//  579   osal_memcpy(&strBuf[4], NLME_GetExtAddr(), 8); // 复制IEEE地址
??CrossCallReturnLabel_0:
        LCALL   ?PUSH_XSTACK_I_THREE
        CFI CFA_XSP16 add(XSP16, 27)
        MOV     R4,#0x8
        MOV     R5,#0x0
        MOV     A,#0x7
        LCALL   ?XSTACK_DISP0_8
        LCALL   ?Subroutine13 & 0xFFFF
??CrossCallReturnLabel_39:
        LCALL   ?DEALLOC_XSTACK8
        CFI CFA_XSP16 add(XSP16, 24)
//  580   strBuf[12] = '@'; // 尾部字节
        MOV     A,#0xc
        LCALL   ?XSTACK_DISP0_8
        LCALL   ?Subroutine8 & 0xFFFF
//  581   if ( AF_DataRequest( &SampleApp_TxAddr,                  // 发送的目的地址+端点地址+传送模式
//  582                       (endPointDesc_t *)&SampleApp_epDesc, // 源终端的描述
//  583                       SAMPLEAPP_PERIODIC_CLUSTERID,        // 被profile指定的有效的集群号
//  584                       13,                                  // 发送数据长度
//  585                       strBuf,                              // 发送数据缓冲区
//  586                       &SampleApp_TransID,                  // 消息发送ID
//  587                       AF_DISCV_ROUTE,                      // 有效位掩码的发送选项
//  588                       AF_DEFAULT_RADIUS ) != afStatus_SUCCESS ) // 传送跳数，通常设置为AF_DEFAULT_RADIUS
??CrossCallReturnLabel_9:
        LCALL   ?PUSH_XSTACK_I_ONE
        CFI CFA_XSP16 add(XSP16, 25)
        MOV     ?V0 + 0,#SampleApp_TransID & 0xff
        MOV     ?V0 + 1,#(SampleApp_TransID >> 8) & 0xff
        MOV     R0,#?V0 + 0
        LCALL   ?PUSH_XSTACK_I_TWO
        CFI CFA_XSP16 add(XSP16, 27)
        MOV     A,#0x3
        LCALL   ?XSTACK_DISP0_8
        MOV     ?V0 + 0,DPL
        MOV     ?V0 + 1,DPH
        MOV     R0,#?V0 + 0
        LCALL   ?PUSH_XSTACK_I_TWO
        CFI CFA_XSP16 add(XSP16, 29)
        MOV     ?V0 + 0,#0xd
        MOV     ?V0 + 1,#0x0
        MOV     R0,#?V0 + 0
        LCALL   ?PUSH_XSTACK_I_TWO
        CFI CFA_XSP16 add(XSP16, 31)
        MOV     ?V0 + 0,#0x1
        MOV     R0,#?V0 + 0
        LCALL   ?PUSH_XSTACK_I_TWO
        CFI CFA_XSP16 add(XSP16, 33)
        LCALL   ?Subroutine15 & 0xFFFF
??CrossCallReturnLabel_35:
        LCALL   ?DEALLOC_XSTACK8
        CFI CFA_XSP16 add(XSP16, 24)
        MOV     A,R1
        JZ      ??AfSendAddrInfo_0
//  589   {
//  590     HalLedBlink(HAL_LED_1, 2, 50, 250); // 发送失败快速闪烁两次
        ; Setup parameters for call to function HalLedBlink
        MOV     R4,#-0x6
        MOV     R5,#0x0
        MOV     R3,#0x32
        MOV     R2,#0x2
        SJMP    ??AfSendAddrInfo_1
//  591   } else {
//  592     HalLedBlink(HAL_LED_1, 1, 50, 500); // 发送成功正常闪烁一次
??AfSendAddrInfo_0:
        ; Setup parameters for call to function HalLedBlink
        MOV     R4,#-0xc
        MOV     R5,#0x1
        MOV     R3,#0x32
        MOV     R2,#0x1
??AfSendAddrInfo_1:
        MOV     R1,#0x1
        LCALL   ??HalLedBlink?relay
//  593   }
//  594 }
        MOV     A,#0xd
        LJMP    ?Subroutine0 & 0xFFFF
        CFI EndBlock cfiBlock45
//  595 
//  596 /**
//  597   终端发送已经收到投币开始游戏命令
//  598 */

        RSEG BANKED_CODE:CODE:NOROOT(0)
//  599 void AfReplyGetCoinCmd(void) {
AfReplyGetCoinCmd:
        CFI Block cfiBlock46 Using cfiCommon1
        CFI Function AfReplyGetCoinCmd
        CODE
        FUNCALL AfReplyGetCoinCmd, NLME_GetExtAddr
        LOCFRAME ISTACK, 0, STACK
        LOCFRAME PSTACK, 0, STACK
        LOCFRAME XSTACK, 22, STACK
        LOCFRAME IOVERLAY, 0, STATIC
        LOCFRAME DOVERLAY, 0, STATIC
        ARGFRAME ISTACK, 0, STACK
        ARGFRAME PSTACK, 0, STACK
        ARGFRAME XSTACK, 22, STACK
        ARGFRAME IOVERLAY, 0, STATIC
        ARGFRAME DOVERLAY, 0, STATIC
        FUNCALL AfReplyGetCoinCmd, osal_memcpy
        LOCFRAME ISTACK, 0, STACK
        LOCFRAME PSTACK, 0, STACK
        LOCFRAME XSTACK, 25, STACK
        LOCFRAME IOVERLAY, 0, STATIC
        LOCFRAME DOVERLAY, 0, STATIC
        ARGFRAME ISTACK, 0, STACK
        ARGFRAME PSTACK, 0, STACK
        ARGFRAME XSTACK, 25, STACK
        ARGFRAME IOVERLAY, 0, STATIC
        ARGFRAME DOVERLAY, 0, STATIC
        FUNCALL AfReplyGetCoinCmd, AF_DataRequest
        LOCFRAME ISTACK, 0, STACK
        LOCFRAME PSTACK, 0, STACK
        LOCFRAME XSTACK, 31, STACK
        LOCFRAME IOVERLAY, 0, STATIC
        LOCFRAME DOVERLAY, 0, STATIC
        ARGFRAME ISTACK, 0, STACK
        ARGFRAME PSTACK, 0, STACK
        ARGFRAME XSTACK, 31, STACK
        ARGFRAME IOVERLAY, 0, STATIC
        ARGFRAME DOVERLAY, 0, STATIC
        FUNCALL AfReplyGetCoinCmd, HalLedBlink
        LOCFRAME ISTACK, 0, STACK
        LOCFRAME PSTACK, 0, STACK
        LOCFRAME XSTACK, 22, STACK
        LOCFRAME IOVERLAY, 0, STATIC
        LOCFRAME DOVERLAY, 0, STATIC
        ARGFRAME ISTACK, 0, STACK
        ARGFRAME PSTACK, 0, STACK
        ARGFRAME XSTACK, 22, STACK
        ARGFRAME IOVERLAY, 0, STATIC
        ARGFRAME DOVERLAY, 0, STATIC
        FUNCALL AfReplyGetCoinCmd, HalLedBlink
        LOCFRAME ISTACK, 0, STACK
        LOCFRAME PSTACK, 0, STACK
        LOCFRAME XSTACK, 22, STACK
        LOCFRAME IOVERLAY, 0, STATIC
        LOCFRAME DOVERLAY, 0, STATIC
        ARGFRAME ISTACK, 0, STACK
        ARGFRAME PSTACK, 0, STACK
        ARGFRAME XSTACK, 22, STACK
        ARGFRAME IOVERLAY, 0, STATIC
        ARGFRAME DOVERLAY, 0, STATIC
        MOV     A,#-0xb
        LCALL   ?BANKED_ENTER_XDATA
        CFI DPH0 load(1, XDATA, add(CFA_XSP16, literal(-1)))
        CFI DPL0 load(1, XDATA, add(CFA_XSP16, literal(-2)))
        CFI ?BRET_EXT load(1, XDATA, add(CFA_XSP16, literal(-3)))
        CFI ?RET_HIGH load(1, XDATA, add(CFA_XSP16, literal(-4)))
        CFI ?RET_LOW load(1, XDATA, add(CFA_XSP16, literal(-5)))
        CFI R7 load(1, XDATA, add(CFA_XSP16, literal(-6)))
        CFI V2 load(1, XDATA, add(CFA_XSP16, literal(-7)))
        CFI V1 load(1, XDATA, add(CFA_XSP16, literal(-8)))
        CFI V0 load(1, XDATA, add(CFA_XSP16, literal(-9)))
        CFI VB load(1, XDATA, add(CFA_XSP16, literal(-10)))
        CFI R6 load(1, XDATA, add(CFA_XSP16, literal(-11)))
        CFI CFA_SP SP+0
        CFI CFA_XSP16 add(XSP16, 11)
        ; Saved register size: 11
        ; Auto size: 11
        MOV     A,#-0xb
        LCALL   ?ALLOC_XSTACK8
        CFI CFA_XSP16 add(XSP16, 22)
//  600   uint8 strBuf[11] = {0};  
        MOV     DPL,?XSP + 0
        MOV     DPH,?XSP + 1
        MOV     R4,DPL
        MOV     R5,DPH
        MOV     DPH,#(`?<Constant {0}>_1` >> 8) & 0xff
        MOV     DPL,#`?<Constant {0}>_1` & 0xff
        MOV     A,#0xb
        LCALL   ?MOVE_LONG8_XDATA_XDATA
//  601   
//  602   strBuf[0] = '#';  // 发送数据的标识，便于协调器解析
        MOV     DPL,?XSP + 0
        MOV     DPH,?XSP + 1
        MOV     A,#0x23
        MOVX    @DPTR,A
//  603   strBuf[1] = 0x72; // 消息类型标识
        MOV     A,#0x1
        LCALL   ?XSTACK_DISP0_8
        MOV     A,#0x72
        LCALL   ?Subroutine3 & 0xFFFF
//  604   osal_memcpy(&strBuf[2], NLME_GetExtAddr(), 8); // 复制IEEE地址
??CrossCallReturnLabel_1:
        LCALL   ?PUSH_XSTACK_I_THREE
        CFI CFA_XSP16 add(XSP16, 25)
        MOV     R4,#0x8
        MOV     R5,#0x0
        MOV     A,#0x5
        LCALL   ?XSTACK_DISP0_8
        LCALL   ?Subroutine13 & 0xFFFF
??CrossCallReturnLabel_40:
        LCALL   ?DEALLOC_XSTACK8
        CFI CFA_XSP16 add(XSP16, 22)
//  605   strBuf[10] = '@'; // 尾部字节
        MOV     A,#0xa
        LCALL   ?XSTACK_DISP0_8
        LCALL   ?Subroutine8 & 0xFFFF
//  606   if ( AF_DataRequest( &SampleApp_TxAddr,                  // 发送的目的地址+端点地址+传送模式
//  607                       (endPointDesc_t *)&SampleApp_epDesc, // 源终端的描述
//  608                       SAMPLEAPP_PERIODIC_CLUSTERID,        // 被profile指定的有效的集群号
//  609                       11,                                  // 发送数据长度
//  610                       strBuf,                              // 发送数据缓冲区
//  611                       &SampleApp_TransID,                  // 消息发送ID
//  612                       AF_DISCV_ROUTE,                      // 有效位掩码的发送选项
//  613                       AF_DEFAULT_RADIUS ) != afStatus_SUCCESS ) // 传送跳数，通常设置为AF_DEFAULT_RADIUS
??CrossCallReturnLabel_10:
        LCALL   ?PUSH_XSTACK_I_ONE
        CFI CFA_XSP16 add(XSP16, 23)
        MOV     ?V0 + 0,#SampleApp_TransID & 0xff
        MOV     ?V0 + 1,#(SampleApp_TransID >> 8) & 0xff
        MOV     R0,#?V0 + 0
        LCALL   ?PUSH_XSTACK_I_TWO
        CFI CFA_XSP16 add(XSP16, 25)
        MOV     A,#0x3
        LCALL   ?XSTACK_DISP0_8
        MOV     ?V0 + 0,DPL
        MOV     ?V0 + 1,DPH
        MOV     R0,#?V0 + 0
        LCALL   ?PUSH_XSTACK_I_TWO
        CFI CFA_XSP16 add(XSP16, 27)
        MOV     ?V0 + 0,#0xb
        MOV     ?V0 + 1,#0x0
        MOV     R0,#?V0 + 0
        LCALL   ?PUSH_XSTACK_I_TWO
        CFI CFA_XSP16 add(XSP16, 29)
        MOV     ?V0 + 0,#0x1
        MOV     R0,#?V0 + 0
        LCALL   ?PUSH_XSTACK_I_TWO
        CFI CFA_XSP16 add(XSP16, 31)
        LCALL   ?Subroutine15 & 0xFFFF
??CrossCallReturnLabel_36:
        LCALL   ?DEALLOC_XSTACK8
        CFI CFA_XSP16 add(XSP16, 22)
        MOV     A,R1
        JZ      ??AfReplyGetCoinCmd_0
//  614   {
//  615     HalLedBlink(HAL_LED_1, 4, 50, 250); // 发送失败快速闪烁两次
        ; Setup parameters for call to function HalLedBlink
        MOV     R4,#-0x6
        MOV     R5,#0x0
        MOV     R3,#0x32
        MOV     R2,#0x4
        MOV     R1,#0x1
        SJMP    ??AfReplyGetCoinCmd_1
//  616   } else {
//  617     HalLedBlink(HAL_LED_2, 2, 50, 200); // 发送成功正常闪烁2次
??AfReplyGetCoinCmd_0:
        ; Setup parameters for call to function HalLedBlink
        MOV     R4,#-0x38
        MOV     R5,#0x0
        MOV     R3,#0x32
        MOV     R2,#0x2
        MOV     R1,#0x2
??AfReplyGetCoinCmd_1:
        LCALL   ??HalLedBlink?relay
//  618   }
//  619 }
        MOV     A,#0xb
        LJMP    ?Subroutine0 & 0xFFFF
        CFI EndBlock cfiBlock46

        RSEG BANKED_CODE:CODE:NOROOT(0)
?Subroutine15:
        CFI Block cfiCond47 Using cfiCommon1
        CFI NoFunction
        CFI Conditional ??CrossCallReturnLabel_35
        CFI R6 load(1, XDATA, add(CFA_XSP16, literal(-11)))
        CFI VB load(1, XDATA, add(CFA_XSP16, literal(-10)))
        CFI V0 load(1, XDATA, add(CFA_XSP16, literal(-9)))
        CFI V1 load(1, XDATA, add(CFA_XSP16, literal(-8)))
        CFI V2 load(1, XDATA, add(CFA_XSP16, literal(-7)))
        CFI R7 load(1, XDATA, add(CFA_XSP16, literal(-6)))
        CFI ?RET_LOW load(1, XDATA, add(CFA_XSP16, literal(-5)))
        CFI ?RET_HIGH load(1, XDATA, add(CFA_XSP16, literal(-4)))
        CFI ?BRET_EXT load(1, XDATA, add(CFA_XSP16, literal(-3)))
        CFI DPL0 load(1, XDATA, add(CFA_XSP16, literal(-2)))
        CFI DPH0 load(1, XDATA, add(CFA_XSP16, literal(-1)))
        CFI CFA_SP SP+0
        CFI CFA_XSP16 add(XSP16, 33)
        CFI Block cfiCond48 Using cfiCommon1
        CFI (cfiCond48) NoFunction
        CFI (cfiCond48) Conditional ??CrossCallReturnLabel_36
        CFI (cfiCond48) R6 load(1, XDATA, add(CFA_XSP16, literal(-11)))
        CFI (cfiCond48) VB load(1, XDATA, add(CFA_XSP16, literal(-10)))
        CFI (cfiCond48) V0 load(1, XDATA, add(CFA_XSP16, literal(-9)))
        CFI (cfiCond48) V1 load(1, XDATA, add(CFA_XSP16, literal(-8)))
        CFI (cfiCond48) V2 load(1, XDATA, add(CFA_XSP16, literal(-7)))
        CFI (cfiCond48) R7 load(1, XDATA, add(CFA_XSP16, literal(-6)))
        CFI (cfiCond48) ?RET_LOW load(1, XDATA, add(CFA_XSP16, literal(-5)))
        CFI (cfiCond48) ?RET_HIGH load(1, XDATA, add(CFA_XSP16, literal(-4)))
        CFI (cfiCond48) ?BRET_EXT load(1, XDATA, add(CFA_XSP16, literal(-3)))
        CFI (cfiCond48) DPL0 load(1, XDATA, add(CFA_XSP16, literal(-2)))
        CFI (cfiCond48) DPH0 load(1, XDATA, add(CFA_XSP16, literal(-1)))
        CFI (cfiCond48) CFA_SP SP+0
        CFI (cfiCond48) CFA_XSP16 add(XSP16, 31)
        CFI Block cfiCond49 Using cfiCommon1
        CFI (cfiCond49) NoFunction
        CFI (cfiCond49) Conditional ??CrossCallReturnLabel_37
        CFI (cfiCond49) R6 load(1, XDATA, add(CFA_XSP16, literal(-11)))
        CFI (cfiCond49) VB load(1, XDATA, add(CFA_XSP16, literal(-10)))
        CFI (cfiCond49) V0 load(1, XDATA, add(CFA_XSP16, literal(-9)))
        CFI (cfiCond49) V1 load(1, XDATA, add(CFA_XSP16, literal(-8)))
        CFI (cfiCond49) V2 load(1, XDATA, add(CFA_XSP16, literal(-7)))
        CFI (cfiCond49) R7 load(1, XDATA, add(CFA_XSP16, literal(-6)))
        CFI (cfiCond49) ?RET_LOW load(1, XDATA, add(CFA_XSP16, literal(-5)))
        CFI (cfiCond49) ?RET_HIGH load(1, XDATA, add(CFA_XSP16, literal(-4)))
        CFI (cfiCond49) ?BRET_EXT load(1, XDATA, add(CFA_XSP16, literal(-3)))
        CFI (cfiCond49) DPL0 load(1, XDATA, add(CFA_XSP16, literal(-2)))
        CFI (cfiCond49) DPH0 load(1, XDATA, add(CFA_XSP16, literal(-1)))
        CFI (cfiCond49) CFA_SP SP+0
        CFI (cfiCond49) CFA_XSP16 add(XSP16, 32)
        CFI Block cfiPicker50 Using cfiCommon0
        CFI (cfiPicker50) NoFunction
        CFI (cfiPicker50) Picker
        MOV     R1,#0x20
        MOV     R4,#SampleApp_epDesc & 0xff
        MOV     R5,#(SampleApp_epDesc >> 8) & 0xff
        MOV     R2,#SampleApp_TxAddr & 0xff
        MOV     R3,#(SampleApp_TxAddr >> 8) & 0xff
        CFI EndBlock cfiCond47
        CFI EndBlock cfiCond48
        CFI EndBlock cfiCond49
        CFI EndBlock cfiPicker50
        REQUIRE ??Subroutine19_0
        ; // Fall through to label ??Subroutine19_0

        RSEG BANKED_CODE:CODE:NOROOT(0)
??Subroutine19_0:
        CFI Block cfiCond51 Using cfiCommon1
        CFI NoFunction
        CFI Conditional ??CrossCallReturnLabel_38
        CFI R6 load(1, XDATA, add(CFA_XSP16, literal(-10)))
        CFI VB load(1, XDATA, add(CFA_XSP16, literal(-9)))
        CFI V0 load(1, XDATA, add(CFA_XSP16, literal(-8)))
        CFI V1 load(1, XDATA, add(CFA_XSP16, literal(-7)))
        CFI R7 load(1, XDATA, add(CFA_XSP16, literal(-6)))
        CFI ?RET_LOW load(1, XDATA, add(CFA_XSP16, literal(-5)))
        CFI ?RET_HIGH load(1, XDATA, add(CFA_XSP16, literal(-4)))
        CFI ?BRET_EXT load(1, XDATA, add(CFA_XSP16, literal(-3)))
        CFI DPL0 load(1, XDATA, add(CFA_XSP16, literal(-2)))
        CFI DPH0 load(1, XDATA, add(CFA_XSP16, literal(-1)))
        CFI CFA_SP SP+0
        CFI CFA_XSP16 add(XSP16, 23)
        CFI Block cfiCond52 Using cfiCommon1
        CFI (cfiCond52) NoFunction
        CFI (cfiCond52) Conditional ??CrossCallReturnLabel_35
        CFI (cfiCond52) R6 load(1, XDATA, add(CFA_XSP16, literal(-11)))
        CFI (cfiCond52) VB load(1, XDATA, add(CFA_XSP16, literal(-10)))
        CFI (cfiCond52) V0 load(1, XDATA, add(CFA_XSP16, literal(-9)))
        CFI (cfiCond52) V1 load(1, XDATA, add(CFA_XSP16, literal(-8)))
        CFI (cfiCond52) V2 load(1, XDATA, add(CFA_XSP16, literal(-7)))
        CFI (cfiCond52) R7 load(1, XDATA, add(CFA_XSP16, literal(-6)))
        CFI (cfiCond52) ?RET_LOW load(1, XDATA, add(CFA_XSP16, literal(-5)))
        CFI (cfiCond52) ?RET_HIGH load(1, XDATA, add(CFA_XSP16, literal(-4)))
        CFI (cfiCond52) ?BRET_EXT load(1, XDATA, add(CFA_XSP16, literal(-3)))
        CFI (cfiCond52) DPL0 load(1, XDATA, add(CFA_XSP16, literal(-2)))
        CFI (cfiCond52) DPH0 load(1, XDATA, add(CFA_XSP16, literal(-1)))
        CFI (cfiCond52) CFA_SP SP+0
        CFI (cfiCond52) CFA_XSP16 add(XSP16, 33)
        CFI Block cfiCond53 Using cfiCommon1
        CFI (cfiCond53) NoFunction
        CFI (cfiCond53) Conditional ??CrossCallReturnLabel_36
        CFI (cfiCond53) R6 load(1, XDATA, add(CFA_XSP16, literal(-11)))
        CFI (cfiCond53) VB load(1, XDATA, add(CFA_XSP16, literal(-10)))
        CFI (cfiCond53) V0 load(1, XDATA, add(CFA_XSP16, literal(-9)))
        CFI (cfiCond53) V1 load(1, XDATA, add(CFA_XSP16, literal(-8)))
        CFI (cfiCond53) V2 load(1, XDATA, add(CFA_XSP16, literal(-7)))
        CFI (cfiCond53) R7 load(1, XDATA, add(CFA_XSP16, literal(-6)))
        CFI (cfiCond53) ?RET_LOW load(1, XDATA, add(CFA_XSP16, literal(-5)))
        CFI (cfiCond53) ?RET_HIGH load(1, XDATA, add(CFA_XSP16, literal(-4)))
        CFI (cfiCond53) ?BRET_EXT load(1, XDATA, add(CFA_XSP16, literal(-3)))
        CFI (cfiCond53) DPL0 load(1, XDATA, add(CFA_XSP16, literal(-2)))
        CFI (cfiCond53) DPH0 load(1, XDATA, add(CFA_XSP16, literal(-1)))
        CFI (cfiCond53) CFA_SP SP+0
        CFI (cfiCond53) CFA_XSP16 add(XSP16, 31)
        CFI Block cfiCond54 Using cfiCommon1
        CFI (cfiCond54) NoFunction
        CFI (cfiCond54) Conditional ??CrossCallReturnLabel_37
        CFI (cfiCond54) R6 load(1, XDATA, add(CFA_XSP16, literal(-11)))
        CFI (cfiCond54) VB load(1, XDATA, add(CFA_XSP16, literal(-10)))
        CFI (cfiCond54) V0 load(1, XDATA, add(CFA_XSP16, literal(-9)))
        CFI (cfiCond54) V1 load(1, XDATA, add(CFA_XSP16, literal(-8)))
        CFI (cfiCond54) V2 load(1, XDATA, add(CFA_XSP16, literal(-7)))
        CFI (cfiCond54) R7 load(1, XDATA, add(CFA_XSP16, literal(-6)))
        CFI (cfiCond54) ?RET_LOW load(1, XDATA, add(CFA_XSP16, literal(-5)))
        CFI (cfiCond54) ?RET_HIGH load(1, XDATA, add(CFA_XSP16, literal(-4)))
        CFI (cfiCond54) ?BRET_EXT load(1, XDATA, add(CFA_XSP16, literal(-3)))
        CFI (cfiCond54) DPL0 load(1, XDATA, add(CFA_XSP16, literal(-2)))
        CFI (cfiCond54) DPH0 load(1, XDATA, add(CFA_XSP16, literal(-1)))
        CFI (cfiCond54) CFA_SP SP+0
        CFI (cfiCond54) CFA_XSP16 add(XSP16, 32)
        CFI Block cfiPicker55 Using cfiCommon0
        CFI (cfiPicker55) NoFunction
        CFI (cfiPicker55) Picker
        LCALL   ??AF_DataRequest?relay
        MOV     A,#0x9
        RET
        CFI EndBlock cfiCond51
        CFI EndBlock cfiCond52
        CFI EndBlock cfiCond53
        CFI EndBlock cfiCond54
        CFI EndBlock cfiPicker55

        RSEG BANKED_CODE:CODE:NOROOT(0)
?Subroutine13:
        CFI Block cfiCond56 Using cfiCommon1
        CFI NoFunction
        CFI Conditional ??CrossCallReturnLabel_39
        CFI R6 load(1, XDATA, add(CFA_XSP16, literal(-11)))
        CFI VB load(1, XDATA, add(CFA_XSP16, literal(-10)))
        CFI V0 load(1, XDATA, add(CFA_XSP16, literal(-9)))
        CFI V1 load(1, XDATA, add(CFA_XSP16, literal(-8)))
        CFI V2 load(1, XDATA, add(CFA_XSP16, literal(-7)))
        CFI R7 load(1, XDATA, add(CFA_XSP16, literal(-6)))
        CFI ?RET_LOW load(1, XDATA, add(CFA_XSP16, literal(-5)))
        CFI ?RET_HIGH load(1, XDATA, add(CFA_XSP16, literal(-4)))
        CFI ?BRET_EXT load(1, XDATA, add(CFA_XSP16, literal(-3)))
        CFI DPL0 load(1, XDATA, add(CFA_XSP16, literal(-2)))
        CFI DPH0 load(1, XDATA, add(CFA_XSP16, literal(-1)))
        CFI CFA_SP SP+0
        CFI CFA_XSP16 add(XSP16, 27)
        CFI Block cfiCond57 Using cfiCommon1
        CFI (cfiCond57) NoFunction
        CFI (cfiCond57) Conditional ??CrossCallReturnLabel_40
        CFI (cfiCond57) R6 load(1, XDATA, add(CFA_XSP16, literal(-11)))
        CFI (cfiCond57) VB load(1, XDATA, add(CFA_XSP16, literal(-10)))
        CFI (cfiCond57) V0 load(1, XDATA, add(CFA_XSP16, literal(-9)))
        CFI (cfiCond57) V1 load(1, XDATA, add(CFA_XSP16, literal(-8)))
        CFI (cfiCond57) V2 load(1, XDATA, add(CFA_XSP16, literal(-7)))
        CFI (cfiCond57) R7 load(1, XDATA, add(CFA_XSP16, literal(-6)))
        CFI (cfiCond57) ?RET_LOW load(1, XDATA, add(CFA_XSP16, literal(-5)))
        CFI (cfiCond57) ?RET_HIGH load(1, XDATA, add(CFA_XSP16, literal(-4)))
        CFI (cfiCond57) ?BRET_EXT load(1, XDATA, add(CFA_XSP16, literal(-3)))
        CFI (cfiCond57) DPL0 load(1, XDATA, add(CFA_XSP16, literal(-2)))
        CFI (cfiCond57) DPH0 load(1, XDATA, add(CFA_XSP16, literal(-1)))
        CFI (cfiCond57) CFA_SP SP+0
        CFI (cfiCond57) CFA_XSP16 add(XSP16, 25)
        CFI Block cfiCond58 Using cfiCommon1
        CFI (cfiCond58) NoFunction
        CFI (cfiCond58) Conditional ??CrossCallReturnLabel_41
        CFI (cfiCond58) R6 load(1, XDATA, add(CFA_XSP16, literal(-11)))
        CFI (cfiCond58) VB load(1, XDATA, add(CFA_XSP16, literal(-10)))
        CFI (cfiCond58) V0 load(1, XDATA, add(CFA_XSP16, literal(-9)))
        CFI (cfiCond58) V1 load(1, XDATA, add(CFA_XSP16, literal(-8)))
        CFI (cfiCond58) V2 load(1, XDATA, add(CFA_XSP16, literal(-7)))
        CFI (cfiCond58) R7 load(1, XDATA, add(CFA_XSP16, literal(-6)))
        CFI (cfiCond58) ?RET_LOW load(1, XDATA, add(CFA_XSP16, literal(-5)))
        CFI (cfiCond58) ?RET_HIGH load(1, XDATA, add(CFA_XSP16, literal(-4)))
        CFI (cfiCond58) ?BRET_EXT load(1, XDATA, add(CFA_XSP16, literal(-3)))
        CFI (cfiCond58) DPL0 load(1, XDATA, add(CFA_XSP16, literal(-2)))
        CFI (cfiCond58) DPH0 load(1, XDATA, add(CFA_XSP16, literal(-1)))
        CFI (cfiCond58) CFA_SP SP+0
        CFI (cfiCond58) CFA_XSP16 add(XSP16, 26)
        CFI Block cfiPicker59 Using cfiCommon0
        CFI (cfiPicker59) NoFunction
        CFI (cfiPicker59) Picker
        MOV     R2,DPL
        MOV     R3,DPH
        CFI EndBlock cfiCond56
        CFI EndBlock cfiCond57
        CFI EndBlock cfiCond58
        CFI EndBlock cfiPicker59
        REQUIRE ??Subroutine20_0
        ; // Fall through to label ??Subroutine20_0

        RSEG BANKED_CODE:CODE:NOROOT(0)
??Subroutine20_0:
        CFI Block cfiCond60 Using cfiCommon1
        CFI NoFunction
        CFI Conditional ??CrossCallReturnLabel_42
        CFI R6 load(1, XDATA, add(CFA_XSP16, literal(-11)))
        CFI VB load(1, XDATA, add(CFA_XSP16, literal(-10)))
        CFI V0 load(1, XDATA, add(CFA_XSP16, literal(-9)))
        CFI V1 load(1, XDATA, add(CFA_XSP16, literal(-8)))
        CFI V2 load(1, XDATA, add(CFA_XSP16, literal(-7)))
        CFI R7 load(1, XDATA, add(CFA_XSP16, literal(-6)))
        CFI ?RET_LOW load(1, XDATA, add(CFA_XSP16, literal(-5)))
        CFI ?RET_HIGH load(1, XDATA, add(CFA_XSP16, literal(-4)))
        CFI ?BRET_EXT load(1, XDATA, add(CFA_XSP16, literal(-3)))
        CFI DPL0 load(1, XDATA, add(CFA_XSP16, literal(-2)))
        CFI DPH0 load(1, XDATA, add(CFA_XSP16, literal(-1)))
        CFI CFA_SP SP+0
        CFI CFA_XSP16 add(XSP16, 14)
        CFI Block cfiCond61 Using cfiCommon1
        CFI (cfiCond61) NoFunction
        CFI (cfiCond61) Conditional ??CrossCallReturnLabel_39
        CFI (cfiCond61) R6 load(1, XDATA, add(CFA_XSP16, literal(-11)))
        CFI (cfiCond61) VB load(1, XDATA, add(CFA_XSP16, literal(-10)))
        CFI (cfiCond61) V0 load(1, XDATA, add(CFA_XSP16, literal(-9)))
        CFI (cfiCond61) V1 load(1, XDATA, add(CFA_XSP16, literal(-8)))
        CFI (cfiCond61) V2 load(1, XDATA, add(CFA_XSP16, literal(-7)))
        CFI (cfiCond61) R7 load(1, XDATA, add(CFA_XSP16, literal(-6)))
        CFI (cfiCond61) ?RET_LOW load(1, XDATA, add(CFA_XSP16, literal(-5)))
        CFI (cfiCond61) ?RET_HIGH load(1, XDATA, add(CFA_XSP16, literal(-4)))
        CFI (cfiCond61) ?BRET_EXT load(1, XDATA, add(CFA_XSP16, literal(-3)))
        CFI (cfiCond61) DPL0 load(1, XDATA, add(CFA_XSP16, literal(-2)))
        CFI (cfiCond61) DPH0 load(1, XDATA, add(CFA_XSP16, literal(-1)))
        CFI (cfiCond61) CFA_SP SP+0
        CFI (cfiCond61) CFA_XSP16 add(XSP16, 27)
        CFI Block cfiCond62 Using cfiCommon1
        CFI (cfiCond62) NoFunction
        CFI (cfiCond62) Conditional ??CrossCallReturnLabel_40
        CFI (cfiCond62) R6 load(1, XDATA, add(CFA_XSP16, literal(-11)))
        CFI (cfiCond62) VB load(1, XDATA, add(CFA_XSP16, literal(-10)))
        CFI (cfiCond62) V0 load(1, XDATA, add(CFA_XSP16, literal(-9)))
        CFI (cfiCond62) V1 load(1, XDATA, add(CFA_XSP16, literal(-8)))
        CFI (cfiCond62) V2 load(1, XDATA, add(CFA_XSP16, literal(-7)))
        CFI (cfiCond62) R7 load(1, XDATA, add(CFA_XSP16, literal(-6)))
        CFI (cfiCond62) ?RET_LOW load(1, XDATA, add(CFA_XSP16, literal(-5)))
        CFI (cfiCond62) ?RET_HIGH load(1, XDATA, add(CFA_XSP16, literal(-4)))
        CFI (cfiCond62) ?BRET_EXT load(1, XDATA, add(CFA_XSP16, literal(-3)))
        CFI (cfiCond62) DPL0 load(1, XDATA, add(CFA_XSP16, literal(-2)))
        CFI (cfiCond62) DPH0 load(1, XDATA, add(CFA_XSP16, literal(-1)))
        CFI (cfiCond62) CFA_SP SP+0
        CFI (cfiCond62) CFA_XSP16 add(XSP16, 25)
        CFI Block cfiCond63 Using cfiCommon1
        CFI (cfiCond63) NoFunction
        CFI (cfiCond63) Conditional ??CrossCallReturnLabel_41
        CFI (cfiCond63) R6 load(1, XDATA, add(CFA_XSP16, literal(-11)))
        CFI (cfiCond63) VB load(1, XDATA, add(CFA_XSP16, literal(-10)))
        CFI (cfiCond63) V0 load(1, XDATA, add(CFA_XSP16, literal(-9)))
        CFI (cfiCond63) V1 load(1, XDATA, add(CFA_XSP16, literal(-8)))
        CFI (cfiCond63) V2 load(1, XDATA, add(CFA_XSP16, literal(-7)))
        CFI (cfiCond63) R7 load(1, XDATA, add(CFA_XSP16, literal(-6)))
        CFI (cfiCond63) ?RET_LOW load(1, XDATA, add(CFA_XSP16, literal(-5)))
        CFI (cfiCond63) ?RET_HIGH load(1, XDATA, add(CFA_XSP16, literal(-4)))
        CFI (cfiCond63) ?BRET_EXT load(1, XDATA, add(CFA_XSP16, literal(-3)))
        CFI (cfiCond63) DPL0 load(1, XDATA, add(CFA_XSP16, literal(-2)))
        CFI (cfiCond63) DPH0 load(1, XDATA, add(CFA_XSP16, literal(-1)))
        CFI (cfiCond63) CFA_SP SP+0
        CFI (cfiCond63) CFA_XSP16 add(XSP16, 26)
        CFI Block cfiPicker64 Using cfiCommon0
        CFI (cfiPicker64) NoFunction
        CFI (cfiPicker64) Picker
        LCALL   ??osal_memcpy?relay
        MOV     A,#0x3
        RET
        CFI EndBlock cfiCond60
        CFI EndBlock cfiCond61
        CFI EndBlock cfiCond62
        CFI EndBlock cfiCond63
        CFI EndBlock cfiPicker64

        RSEG BANKED_CODE:CODE:NOROOT(0)
?Subroutine8:
        CFI Block cfiCond65 Using cfiCommon1
        CFI NoFunction
        CFI Conditional ??CrossCallReturnLabel_9
        CFI R6 load(1, XDATA, add(CFA_XSP16, literal(-11)))
        CFI VB load(1, XDATA, add(CFA_XSP16, literal(-10)))
        CFI V0 load(1, XDATA, add(CFA_XSP16, literal(-9)))
        CFI V1 load(1, XDATA, add(CFA_XSP16, literal(-8)))
        CFI V2 load(1, XDATA, add(CFA_XSP16, literal(-7)))
        CFI R7 load(1, XDATA, add(CFA_XSP16, literal(-6)))
        CFI ?RET_LOW load(1, XDATA, add(CFA_XSP16, literal(-5)))
        CFI ?RET_HIGH load(1, XDATA, add(CFA_XSP16, literal(-4)))
        CFI ?BRET_EXT load(1, XDATA, add(CFA_XSP16, literal(-3)))
        CFI DPL0 load(1, XDATA, add(CFA_XSP16, literal(-2)))
        CFI DPH0 load(1, XDATA, add(CFA_XSP16, literal(-1)))
        CFI CFA_SP SP+0
        CFI CFA_XSP16 add(XSP16, 24)
        CFI Block cfiCond66 Using cfiCommon1
        CFI (cfiCond66) NoFunction
        CFI (cfiCond66) Conditional ??CrossCallReturnLabel_10
        CFI (cfiCond66) R6 load(1, XDATA, add(CFA_XSP16, literal(-11)))
        CFI (cfiCond66) VB load(1, XDATA, add(CFA_XSP16, literal(-10)))
        CFI (cfiCond66) V0 load(1, XDATA, add(CFA_XSP16, literal(-9)))
        CFI (cfiCond66) V1 load(1, XDATA, add(CFA_XSP16, literal(-8)))
        CFI (cfiCond66) V2 load(1, XDATA, add(CFA_XSP16, literal(-7)))
        CFI (cfiCond66) R7 load(1, XDATA, add(CFA_XSP16, literal(-6)))
        CFI (cfiCond66) ?RET_LOW load(1, XDATA, add(CFA_XSP16, literal(-5)))
        CFI (cfiCond66) ?RET_HIGH load(1, XDATA, add(CFA_XSP16, literal(-4)))
        CFI (cfiCond66) ?BRET_EXT load(1, XDATA, add(CFA_XSP16, literal(-3)))
        CFI (cfiCond66) DPL0 load(1, XDATA, add(CFA_XSP16, literal(-2)))
        CFI (cfiCond66) DPH0 load(1, XDATA, add(CFA_XSP16, literal(-1)))
        CFI (cfiCond66) CFA_SP SP+0
        CFI (cfiCond66) CFA_XSP16 add(XSP16, 22)
        CFI Block cfiCond67 Using cfiCommon1
        CFI (cfiCond67) NoFunction
        CFI (cfiCond67) Conditional ??CrossCallReturnLabel_11
        CFI (cfiCond67) R6 load(1, XDATA, add(CFA_XSP16, literal(-11)))
        CFI (cfiCond67) VB load(1, XDATA, add(CFA_XSP16, literal(-10)))
        CFI (cfiCond67) V0 load(1, XDATA, add(CFA_XSP16, literal(-9)))
        CFI (cfiCond67) V1 load(1, XDATA, add(CFA_XSP16, literal(-8)))
        CFI (cfiCond67) V2 load(1, XDATA, add(CFA_XSP16, literal(-7)))
        CFI (cfiCond67) R7 load(1, XDATA, add(CFA_XSP16, literal(-6)))
        CFI (cfiCond67) ?RET_LOW load(1, XDATA, add(CFA_XSP16, literal(-5)))
        CFI (cfiCond67) ?RET_HIGH load(1, XDATA, add(CFA_XSP16, literal(-4)))
        CFI (cfiCond67) ?BRET_EXT load(1, XDATA, add(CFA_XSP16, literal(-3)))
        CFI (cfiCond67) DPL0 load(1, XDATA, add(CFA_XSP16, literal(-2)))
        CFI (cfiCond67) DPH0 load(1, XDATA, add(CFA_XSP16, literal(-1)))
        CFI (cfiCond67) CFA_SP SP+0
        CFI (cfiCond67) CFA_XSP16 add(XSP16, 23)
        CFI Block cfiPicker68 Using cfiCommon0
        CFI (cfiPicker68) NoFunction
        CFI (cfiPicker68) Picker
        MOV     A,#0x40
        MOVX    @DPTR,A
        ; Setup parameters for call to function AF_DataRequest
        ; Setup parameters for call to function AF_DataRequest
        ; Setup parameters for call to function AF_DataRequest
        MOV     ?V0 + 0,#0x1e
        MOV     R0,#?V0 + 0
        RET
        CFI EndBlock cfiCond65
        CFI EndBlock cfiCond66
        CFI EndBlock cfiCond67
        CFI EndBlock cfiPicker68

        RSEG BANKED_CODE:CODE:NOROOT(0)
?Subroutine3:
        CFI Block cfiCond69 Using cfiCommon1
        CFI NoFunction
        CFI Conditional ??CrossCallReturnLabel_0
        CFI R6 load(1, XDATA, add(CFA_XSP16, literal(-11)))
        CFI VB load(1, XDATA, add(CFA_XSP16, literal(-10)))
        CFI V0 load(1, XDATA, add(CFA_XSP16, literal(-9)))
        CFI V1 load(1, XDATA, add(CFA_XSP16, literal(-8)))
        CFI V2 load(1, XDATA, add(CFA_XSP16, literal(-7)))
        CFI R7 load(1, XDATA, add(CFA_XSP16, literal(-6)))
        CFI ?RET_LOW load(1, XDATA, add(CFA_XSP16, literal(-5)))
        CFI ?RET_HIGH load(1, XDATA, add(CFA_XSP16, literal(-4)))
        CFI ?BRET_EXT load(1, XDATA, add(CFA_XSP16, literal(-3)))
        CFI DPL0 load(1, XDATA, add(CFA_XSP16, literal(-2)))
        CFI DPH0 load(1, XDATA, add(CFA_XSP16, literal(-1)))
        CFI CFA_SP SP+0
        CFI CFA_XSP16 add(XSP16, 24)
        CFI Block cfiCond70 Using cfiCommon1
        CFI (cfiCond70) NoFunction
        CFI (cfiCond70) Conditional ??CrossCallReturnLabel_1
        CFI (cfiCond70) R6 load(1, XDATA, add(CFA_XSP16, literal(-11)))
        CFI (cfiCond70) VB load(1, XDATA, add(CFA_XSP16, literal(-10)))
        CFI (cfiCond70) V0 load(1, XDATA, add(CFA_XSP16, literal(-9)))
        CFI (cfiCond70) V1 load(1, XDATA, add(CFA_XSP16, literal(-8)))
        CFI (cfiCond70) V2 load(1, XDATA, add(CFA_XSP16, literal(-7)))
        CFI (cfiCond70) R7 load(1, XDATA, add(CFA_XSP16, literal(-6)))
        CFI (cfiCond70) ?RET_LOW load(1, XDATA, add(CFA_XSP16, literal(-5)))
        CFI (cfiCond70) ?RET_HIGH load(1, XDATA, add(CFA_XSP16, literal(-4)))
        CFI (cfiCond70) ?BRET_EXT load(1, XDATA, add(CFA_XSP16, literal(-3)))
        CFI (cfiCond70) DPL0 load(1, XDATA, add(CFA_XSP16, literal(-2)))
        CFI (cfiCond70) DPH0 load(1, XDATA, add(CFA_XSP16, literal(-1)))
        CFI (cfiCond70) CFA_SP SP+0
        CFI (cfiCond70) CFA_XSP16 add(XSP16, 22)
        CFI Block cfiCond71 Using cfiCommon1
        CFI (cfiCond71) NoFunction
        CFI (cfiCond71) Conditional ??CrossCallReturnLabel_2
        CFI (cfiCond71) R6 load(1, XDATA, add(CFA_XSP16, literal(-11)))
        CFI (cfiCond71) VB load(1, XDATA, add(CFA_XSP16, literal(-10)))
        CFI (cfiCond71) V0 load(1, XDATA, add(CFA_XSP16, literal(-9)))
        CFI (cfiCond71) V1 load(1, XDATA, add(CFA_XSP16, literal(-8)))
        CFI (cfiCond71) V2 load(1, XDATA, add(CFA_XSP16, literal(-7)))
        CFI (cfiCond71) R7 load(1, XDATA, add(CFA_XSP16, literal(-6)))
        CFI (cfiCond71) ?RET_LOW load(1, XDATA, add(CFA_XSP16, literal(-5)))
        CFI (cfiCond71) ?RET_HIGH load(1, XDATA, add(CFA_XSP16, literal(-4)))
        CFI (cfiCond71) ?BRET_EXT load(1, XDATA, add(CFA_XSP16, literal(-3)))
        CFI (cfiCond71) DPL0 load(1, XDATA, add(CFA_XSP16, literal(-2)))
        CFI (cfiCond71) DPH0 load(1, XDATA, add(CFA_XSP16, literal(-1)))
        CFI (cfiCond71) CFA_SP SP+0
        CFI (cfiCond71) CFA_XSP16 add(XSP16, 23)
        CFI Block cfiPicker72 Using cfiCommon0
        CFI (cfiPicker72) NoFunction
        CFI (cfiPicker72) Picker
        MOVX    @DPTR,A
        ; Setup parameters for call to function osal_memcpy
        ; Setup parameters for call to function NLME_GetExtAddr
        ; Setup parameters for call to function osal_memcpy
        ; Setup parameters for call to function NLME_GetExtAddr
        ; Setup parameters for call to function osal_memcpy
        ; Setup parameters for call to function NLME_GetExtAddr
        LCALL   ??NLME_GetExtAddr?relay
        MOV     ?V0 + 0,R2
        MOV     ?V0 + 1,R3
        MOV     ?V0 + 2,#0x0
        MOV     R0,#?V0 + 0
        RET
        CFI EndBlock cfiCond69
        CFI EndBlock cfiCond70
        CFI EndBlock cfiCond71
        CFI EndBlock cfiPicker72
//  620 
//  621 /**
//  622   协调器打印终端上传的长短地址
//  623 */

        RSEG BANKED_CODE:CODE:NOROOT(0)
//  624 void printAddrInfoHex(uint8* buf, uint8 dataLen) {
printAddrInfoHex:
        CFI Block cfiBlock73 Using cfiCommon1
        CFI Function printAddrInfoHex
        CODE
        FUNCALL printAddrInfoHex, myprintf
        LOCFRAME ISTACK, 0, STACK
        LOCFRAME PSTACK, 0, STACK
        LOCFRAME XSTACK, 13, STACK
        LOCFRAME IOVERLAY, 0, STATIC
        LOCFRAME DOVERLAY, 0, STATIC
        ARGFRAME ISTACK, 0, STACK
        ARGFRAME PSTACK, 0, STACK
        ARGFRAME XSTACK, 13, STACK
        ARGFRAME IOVERLAY, 0, STATIC
        ARGFRAME DOVERLAY, 0, STATIC
        FUNCALL printAddrInfoHex, myprintf
        LOCFRAME ISTACK, 0, STACK
        LOCFRAME PSTACK, 0, STACK
        LOCFRAME XSTACK, 13, STACK
        LOCFRAME IOVERLAY, 0, STATIC
        LOCFRAME DOVERLAY, 0, STATIC
        ARGFRAME ISTACK, 0, STACK
        ARGFRAME PSTACK, 0, STACK
        ARGFRAME XSTACK, 13, STACK
        ARGFRAME IOVERLAY, 0, STATIC
        ARGFRAME DOVERLAY, 0, STATIC
        FUNCALL printAddrInfoHex, myprintf
        LOCFRAME ISTACK, 0, STACK
        LOCFRAME PSTACK, 0, STACK
        LOCFRAME XSTACK, 15, STACK
        LOCFRAME IOVERLAY, 0, STATIC
        LOCFRAME DOVERLAY, 0, STATIC
        ARGFRAME ISTACK, 0, STACK
        ARGFRAME PSTACK, 0, STACK
        ARGFRAME XSTACK, 15, STACK
        ARGFRAME IOVERLAY, 0, STATIC
        ARGFRAME DOVERLAY, 0, STATIC
        FUNCALL printAddrInfoHex, myprintf
        LOCFRAME ISTACK, 0, STACK
        LOCFRAME PSTACK, 0, STACK
        LOCFRAME XSTACK, 13, STACK
        LOCFRAME IOVERLAY, 0, STATIC
        LOCFRAME DOVERLAY, 0, STATIC
        ARGFRAME ISTACK, 0, STACK
        ARGFRAME PSTACK, 0, STACK
        ARGFRAME XSTACK, 13, STACK
        ARGFRAME IOVERLAY, 0, STATIC
        ARGFRAME DOVERLAY, 0, STATIC
        MOV     A,#-0xd
        LCALL   ?BANKED_ENTER_XDATA
        CFI DPH0 load(1, XDATA, add(CFA_XSP16, literal(-1)))
        CFI DPL0 load(1, XDATA, add(CFA_XSP16, literal(-2)))
        CFI ?BRET_EXT load(1, XDATA, add(CFA_XSP16, literal(-3)))
        CFI ?RET_HIGH load(1, XDATA, add(CFA_XSP16, literal(-4)))
        CFI ?RET_LOW load(1, XDATA, add(CFA_XSP16, literal(-5)))
        CFI R7 load(1, XDATA, add(CFA_XSP16, literal(-6)))
        CFI V4 load(1, XDATA, add(CFA_XSP16, literal(-7)))
        CFI V3 load(1, XDATA, add(CFA_XSP16, literal(-8)))
        CFI V2 load(1, XDATA, add(CFA_XSP16, literal(-9)))
        CFI V1 load(1, XDATA, add(CFA_XSP16, literal(-10)))
        CFI V0 load(1, XDATA, add(CFA_XSP16, literal(-11)))
        CFI VB load(1, XDATA, add(CFA_XSP16, literal(-12)))
        CFI R6 load(1, XDATA, add(CFA_XSP16, literal(-13)))
        CFI CFA_SP SP+0
        CFI CFA_XSP16 add(XSP16, 13)
        ; Saved register size: 13
        ; Auto size: 0
        MOV     A,R2
        MOV     R6,A
        MOV     A,R3
        MOV     R7,A
        MOV     ?V0 + 4,R1
//  625   int i = 0;
//  626   
//  627   myprintf("\n");
        ; Setup parameters for call to function myprintf
        MOV     R2,#`?<Constant "\\n">` & 0xff
        MOV     R3,#(`?<Constant "\\n">` >> 8) & 0xff
        LCALL   ??myprintf?relay
//  628   for(i = 0; i < dataLen; i++) {
        MOV     ?V0 + 0,#0x0
        MOV     ?V0 + 1,#0x0
        SJMP    ??printAddrInfoHex_0
//  629     if(i == 2) {
??printAddrInfoHex_1:
        MOV     A,#0x2
        XRL     A,?V0 + 0
        JNZ     ??printAddrInfoHex_2
        MOV     A,?V0 + 1
??printAddrInfoHex_2:
        JNZ     ??printAddrInfoHex_3
//  630       myprintf("; IEEE = ");
        ; Setup parameters for call to function myprintf
        MOV     R2,#`?<Constant "; IEEE = ">` & 0xff
        MOV     R3,#(`?<Constant "; IEEE = ">` >> 8) & 0xff
        LCALL   ??myprintf?relay
//  631     }
//  632     myprintf("0x%x,", buf[i]);
??printAddrInfoHex_3:
        ; Setup parameters for call to function myprintf
        MOV     A,R6
        ADD     A,?V0 + 0
        MOV     DPL,A
        MOV     A,R7
        ADDC    A,?V0 + 1
        MOV     DPH,A
        LCALL   ?Subroutine10 & 0xFFFF
//  633   }
??CrossCallReturnLabel_15:
        LCALL   ?PUSH_XSTACK_I_TWO
        CFI CFA_XSP16 add(XSP16, 15)
        MOV     R2,#`?<Constant "0x%x,">` & 0xff
        MOV     R3,#(`?<Constant "0x%x,">` >> 8) & 0xff
        LCALL   ?Subroutine11 & 0xFFFF
??CrossCallReturnLabel_20:
        LCALL   ?DEALLOC_XSTACK8
        CFI CFA_XSP16 add(XSP16, 13)
        MOV     A,?V0 + 0
        ADD     A,#0x1
        MOV     ?V0 + 0,A
        MOV     A,?V0 + 1
        ADDC    A,#0x0
        MOV     ?V0 + 1,A
??printAddrInfoHex_0:
        MOV     ?V0 + 2,?V0 + 4
        CLR     C
        MOV     A,?V0 + 0
        SUBB    A,?V0 + 2
        MOV     A,?V0 + 1
        SUBB    A,#0x0
        MOV     C,0xD0 /* PSW */.2
        XRL     A,PSW
        RLC     A
        JC      ??printAddrInfoHex_1
//  634   myprintf("\n");
        ; Setup parameters for call to function myprintf
        MOV     R2,#`?<Constant "\\n">` & 0xff
        MOV     R3,#(`?<Constant "\\n">` >> 8) & 0xff
        LCALL   ??myprintf?relay
//  635 }
        MOV     R7,#0x5
        LJMP    ?BANKED_LEAVE_XDATA
        CFI EndBlock cfiBlock73

        RSEG BANKED_CODE:CODE:NOROOT(0)
?Subroutine11:
        CFI Block cfiCond74 Using cfiCommon1
        CFI NoFunction
        CFI Conditional ??CrossCallReturnLabel_16
        CFI R6 load(1, XDATA, add(CFA_XSP16, literal(-12)))
        CFI VB load(1, XDATA, add(CFA_XSP16, literal(-11)))
        CFI V0 load(1, XDATA, add(CFA_XSP16, literal(-10)))
        CFI V1 load(1, XDATA, add(CFA_XSP16, literal(-9)))
        CFI V2 load(1, XDATA, add(CFA_XSP16, literal(-8)))
        CFI V3 load(1, XDATA, add(CFA_XSP16, literal(-7)))
        CFI R7 load(1, XDATA, add(CFA_XSP16, literal(-6)))
        CFI ?RET_LOW load(1, XDATA, add(CFA_XSP16, literal(-5)))
        CFI ?RET_HIGH load(1, XDATA, add(CFA_XSP16, literal(-4)))
        CFI ?BRET_EXT load(1, XDATA, add(CFA_XSP16, literal(-3)))
        CFI DPL0 load(1, XDATA, add(CFA_XSP16, literal(-2)))
        CFI DPH0 load(1, XDATA, add(CFA_XSP16, literal(-1)))
        CFI CFA_SP SP+0
        CFI CFA_XSP16 add(XSP16, 17)
        CFI Block cfiCond75 Using cfiCommon1
        CFI (cfiCond75) NoFunction
        CFI (cfiCond75) Conditional ??CrossCallReturnLabel_17
        CFI (cfiCond75) R6 load(1, XDATA, add(CFA_XSP16, literal(-12)))
        CFI (cfiCond75) VB load(1, XDATA, add(CFA_XSP16, literal(-11)))
        CFI (cfiCond75) V0 load(1, XDATA, add(CFA_XSP16, literal(-10)))
        CFI (cfiCond75) V1 load(1, XDATA, add(CFA_XSP16, literal(-9)))
        CFI (cfiCond75) V2 load(1, XDATA, add(CFA_XSP16, literal(-8)))
        CFI (cfiCond75) V3 load(1, XDATA, add(CFA_XSP16, literal(-7)))
        CFI (cfiCond75) R7 load(1, XDATA, add(CFA_XSP16, literal(-6)))
        CFI (cfiCond75) ?RET_LOW load(1, XDATA, add(CFA_XSP16, literal(-5)))
        CFI (cfiCond75) ?RET_HIGH load(1, XDATA, add(CFA_XSP16, literal(-4)))
        CFI (cfiCond75) ?BRET_EXT load(1, XDATA, add(CFA_XSP16, literal(-3)))
        CFI (cfiCond75) DPL0 load(1, XDATA, add(CFA_XSP16, literal(-2)))
        CFI (cfiCond75) DPH0 load(1, XDATA, add(CFA_XSP16, literal(-1)))
        CFI (cfiCond75) CFA_SP SP+0
        CFI (cfiCond75) CFA_XSP16 add(XSP16, 17)
        CFI Block cfiCond76 Using cfiCommon1
        CFI (cfiCond76) NoFunction
        CFI (cfiCond76) Conditional ??CrossCallReturnLabel_18
        CFI (cfiCond76) R6 load(1, XDATA, add(CFA_XSP16, literal(-12)))
        CFI (cfiCond76) VB load(1, XDATA, add(CFA_XSP16, literal(-11)))
        CFI (cfiCond76) V0 load(1, XDATA, add(CFA_XSP16, literal(-10)))
        CFI (cfiCond76) V1 load(1, XDATA, add(CFA_XSP16, literal(-9)))
        CFI (cfiCond76) V2 load(1, XDATA, add(CFA_XSP16, literal(-8)))
        CFI (cfiCond76) V3 load(1, XDATA, add(CFA_XSP16, literal(-7)))
        CFI (cfiCond76) R7 load(1, XDATA, add(CFA_XSP16, literal(-6)))
        CFI (cfiCond76) ?RET_LOW load(1, XDATA, add(CFA_XSP16, literal(-5)))
        CFI (cfiCond76) ?RET_HIGH load(1, XDATA, add(CFA_XSP16, literal(-4)))
        CFI (cfiCond76) ?BRET_EXT load(1, XDATA, add(CFA_XSP16, literal(-3)))
        CFI (cfiCond76) DPL0 load(1, XDATA, add(CFA_XSP16, literal(-2)))
        CFI (cfiCond76) DPH0 load(1, XDATA, add(CFA_XSP16, literal(-1)))
        CFI (cfiCond76) CFA_SP SP+0
        CFI (cfiCond76) CFA_XSP16 add(XSP16, 17)
        CFI Block cfiCond77 Using cfiCommon1
        CFI (cfiCond77) NoFunction
        CFI (cfiCond77) Conditional ??CrossCallReturnLabel_19
        CFI (cfiCond77) R6 load(1, XDATA, add(CFA_XSP16, literal(-10)))
        CFI (cfiCond77) VB load(1, XDATA, add(CFA_XSP16, literal(-9)))
        CFI (cfiCond77) V0 load(1, XDATA, add(CFA_XSP16, literal(-8)))
        CFI (cfiCond77) V1 load(1, XDATA, add(CFA_XSP16, literal(-7)))
        CFI (cfiCond77) R7 load(1, XDATA, add(CFA_XSP16, literal(-6)))
        CFI (cfiCond77) ?RET_LOW load(1, XDATA, add(CFA_XSP16, literal(-5)))
        CFI (cfiCond77) ?RET_HIGH load(1, XDATA, add(CFA_XSP16, literal(-4)))
        CFI (cfiCond77) ?BRET_EXT load(1, XDATA, add(CFA_XSP16, literal(-3)))
        CFI (cfiCond77) DPL0 load(1, XDATA, add(CFA_XSP16, literal(-2)))
        CFI (cfiCond77) DPH0 load(1, XDATA, add(CFA_XSP16, literal(-1)))
        CFI (cfiCond77) CFA_SP SP+0
        CFI (cfiCond77) CFA_XSP16 add(XSP16, 12)
        CFI Block cfiCond78 Using cfiCommon1
        CFI (cfiCond78) NoFunction
        CFI (cfiCond78) Conditional ??CrossCallReturnLabel_20
        CFI (cfiCond78) R6 load(1, XDATA, add(CFA_XSP16, literal(-13)))
        CFI (cfiCond78) VB load(1, XDATA, add(CFA_XSP16, literal(-12)))
        CFI (cfiCond78) V0 load(1, XDATA, add(CFA_XSP16, literal(-11)))
        CFI (cfiCond78) V1 load(1, XDATA, add(CFA_XSP16, literal(-10)))
        CFI (cfiCond78) V2 load(1, XDATA, add(CFA_XSP16, literal(-9)))
        CFI (cfiCond78) V3 load(1, XDATA, add(CFA_XSP16, literal(-8)))
        CFI (cfiCond78) V4 load(1, XDATA, add(CFA_XSP16, literal(-7)))
        CFI (cfiCond78) R7 load(1, XDATA, add(CFA_XSP16, literal(-6)))
        CFI (cfiCond78) ?RET_LOW load(1, XDATA, add(CFA_XSP16, literal(-5)))
        CFI (cfiCond78) ?RET_HIGH load(1, XDATA, add(CFA_XSP16, literal(-4)))
        CFI (cfiCond78) ?BRET_EXT load(1, XDATA, add(CFA_XSP16, literal(-3)))
        CFI (cfiCond78) DPL0 load(1, XDATA, add(CFA_XSP16, literal(-2)))
        CFI (cfiCond78) DPH0 load(1, XDATA, add(CFA_XSP16, literal(-1)))
        CFI (cfiCond78) CFA_SP SP+0
        CFI (cfiCond78) CFA_XSP16 add(XSP16, 15)
        CFI Block cfiCond79 Using cfiCommon1
        CFI (cfiCond79) NoFunction
        CFI (cfiCond79) Conditional ??CrossCallReturnLabel_21
        CFI (cfiCond79) R6 load(1, XDATA, add(CFA_XSP16, literal(-11)))
        CFI (cfiCond79) VB load(1, XDATA, add(CFA_XSP16, literal(-10)))
        CFI (cfiCond79) V0 load(1, XDATA, add(CFA_XSP16, literal(-9)))
        CFI (cfiCond79) V1 load(1, XDATA, add(CFA_XSP16, literal(-8)))
        CFI (cfiCond79) V2 load(1, XDATA, add(CFA_XSP16, literal(-7)))
        CFI (cfiCond79) R7 load(1, XDATA, add(CFA_XSP16, literal(-6)))
        CFI (cfiCond79) ?RET_LOW load(1, XDATA, add(CFA_XSP16, literal(-5)))
        CFI (cfiCond79) ?RET_HIGH load(1, XDATA, add(CFA_XSP16, literal(-4)))
        CFI (cfiCond79) ?BRET_EXT load(1, XDATA, add(CFA_XSP16, literal(-3)))
        CFI (cfiCond79) DPL0 load(1, XDATA, add(CFA_XSP16, literal(-2)))
        CFI (cfiCond79) DPH0 load(1, XDATA, add(CFA_XSP16, literal(-1)))
        CFI (cfiCond79) CFA_SP SP+0
        CFI (cfiCond79) CFA_XSP16 add(XSP16, 25)
        CFI Block cfiPicker80 Using cfiCommon0
        CFI (cfiPicker80) NoFunction
        CFI (cfiPicker80) Picker
        LCALL   ??myprintf?relay
        MOV     A,#0x2
        RET
        CFI EndBlock cfiCond74
        CFI EndBlock cfiCond75
        CFI EndBlock cfiCond76
        CFI EndBlock cfiCond77
        CFI EndBlock cfiCond78
        CFI EndBlock cfiCond79
        CFI EndBlock cfiPicker80

        RSEG BANKED_CODE:CODE:NOROOT(0)
?Subroutine10:
        CFI Block cfiCond81 Using cfiCommon1
        CFI NoFunction
        CFI Conditional ??CrossCallReturnLabel_14
        CFI R6 load(1, XDATA, add(CFA_XSP16, literal(-12)))
        CFI VB load(1, XDATA, add(CFA_XSP16, literal(-11)))
        CFI V0 load(1, XDATA, add(CFA_XSP16, literal(-10)))
        CFI V1 load(1, XDATA, add(CFA_XSP16, literal(-9)))
        CFI V2 load(1, XDATA, add(CFA_XSP16, literal(-8)))
        CFI V3 load(1, XDATA, add(CFA_XSP16, literal(-7)))
        CFI R7 load(1, XDATA, add(CFA_XSP16, literal(-6)))
        CFI ?RET_LOW load(1, XDATA, add(CFA_XSP16, literal(-5)))
        CFI ?RET_HIGH load(1, XDATA, add(CFA_XSP16, literal(-4)))
        CFI ?BRET_EXT load(1, XDATA, add(CFA_XSP16, literal(-3)))
        CFI DPL0 load(1, XDATA, add(CFA_XSP16, literal(-2)))
        CFI DPH0 load(1, XDATA, add(CFA_XSP16, literal(-1)))
        CFI CFA_SP SP+0
        CFI CFA_XSP16 add(XSP16, 15)
        CFI Block cfiCond82 Using cfiCommon1
        CFI (cfiCond82) NoFunction
        CFI (cfiCond82) Conditional ??CrossCallReturnLabel_15
        CFI (cfiCond82) R6 load(1, XDATA, add(CFA_XSP16, literal(-13)))
        CFI (cfiCond82) VB load(1, XDATA, add(CFA_XSP16, literal(-12)))
        CFI (cfiCond82) V0 load(1, XDATA, add(CFA_XSP16, literal(-11)))
        CFI (cfiCond82) V1 load(1, XDATA, add(CFA_XSP16, literal(-10)))
        CFI (cfiCond82) V2 load(1, XDATA, add(CFA_XSP16, literal(-9)))
        CFI (cfiCond82) V3 load(1, XDATA, add(CFA_XSP16, literal(-8)))
        CFI (cfiCond82) V4 load(1, XDATA, add(CFA_XSP16, literal(-7)))
        CFI (cfiCond82) R7 load(1, XDATA, add(CFA_XSP16, literal(-6)))
        CFI (cfiCond82) ?RET_LOW load(1, XDATA, add(CFA_XSP16, literal(-5)))
        CFI (cfiCond82) ?RET_HIGH load(1, XDATA, add(CFA_XSP16, literal(-4)))
        CFI (cfiCond82) ?BRET_EXT load(1, XDATA, add(CFA_XSP16, literal(-3)))
        CFI (cfiCond82) DPL0 load(1, XDATA, add(CFA_XSP16, literal(-2)))
        CFI (cfiCond82) DPH0 load(1, XDATA, add(CFA_XSP16, literal(-1)))
        CFI (cfiCond82) CFA_SP SP+0
        CFI (cfiCond82) CFA_XSP16 add(XSP16, 13)
        CFI Block cfiPicker83 Using cfiCommon0
        CFI (cfiPicker83) NoFunction
        CFI (cfiPicker83) Picker
        MOVX    A,@DPTR
        MOV     ?V0 + 2,A
        MOV     ?V0 + 3,#0x0
        MOV     R0,#?V0 + 2
        RET
        CFI EndBlock cfiCond81
        CFI EndBlock cfiCond82
        CFI EndBlock cfiPicker83
//  636 
//  637 /**
//  638   将十六进制数转变成字符
//  639 */

        RSEG BANKED_CODE:CODE:NOROOT(0)
//  640 void convertHexToStr(uint16 addr, uint8 lcdLineNum) {
convertHexToStr:
        CFI Block cfiBlock84 Using cfiCommon1
        CFI Function convertHexToStr
        CODE
        FUNCALL convertHexToStr, HalLcdWriteString
        LOCFRAME ISTACK, 0, STACK
        LOCFRAME PSTACK, 0, STACK
        LOCFRAME XSTACK, 18, STACK
        LOCFRAME IOVERLAY, 0, STATIC
        LOCFRAME DOVERLAY, 0, STATIC
        ARGFRAME ISTACK, 0, STACK
        ARGFRAME PSTACK, 0, STACK
        ARGFRAME XSTACK, 18, STACK
        ARGFRAME IOVERLAY, 0, STATIC
        ARGFRAME DOVERLAY, 0, STATIC
        MOV     A,#-0xb
        LCALL   ?BANKED_ENTER_XDATA
        CFI DPH0 load(1, XDATA, add(CFA_XSP16, literal(-1)))
        CFI DPL0 load(1, XDATA, add(CFA_XSP16, literal(-2)))
        CFI ?BRET_EXT load(1, XDATA, add(CFA_XSP16, literal(-3)))
        CFI ?RET_HIGH load(1, XDATA, add(CFA_XSP16, literal(-4)))
        CFI ?RET_LOW load(1, XDATA, add(CFA_XSP16, literal(-5)))
        CFI R7 load(1, XDATA, add(CFA_XSP16, literal(-6)))
        CFI V2 load(1, XDATA, add(CFA_XSP16, literal(-7)))
        CFI V1 load(1, XDATA, add(CFA_XSP16, literal(-8)))
        CFI V0 load(1, XDATA, add(CFA_XSP16, literal(-9)))
        CFI VB load(1, XDATA, add(CFA_XSP16, literal(-10)))
        CFI R6 load(1, XDATA, add(CFA_XSP16, literal(-11)))
        CFI CFA_SP SP+0
        CFI CFA_XSP16 add(XSP16, 11)
        ; Saved register size: 11
        ; Auto size: 7
        MOV     A,#-0x7
        LCALL   ?ALLOC_XSTACK8
        CFI CFA_XSP16 add(XSP16, 18)
        MOV     A,#0x5
        LCALL   ?XSTACK_DISP0_8
        MOV     A,R2
        MOVX    @DPTR,A
        INC     DPTR
        MOV     A,R3
        MOVX    @DPTR,A
        MOV     A,R1
        MOV     R6,A
//  641   uint8 i;
//  642   uint8 *xad;
//  643   uint8 lcd_buf[2*2+1];
//  644 
//  645   // Display the extended address.
//  646   xad = (uint8*)&addr + 2 - 1;
        MOV     R0,DPL
        MOV     R1,DPH
//  647 
//  648   for (i = 0; i < 2*2; xad--)
        MOV     R4,#0x0
//  649   {
//  650     uint8 ch;
//  651     ch = (*xad >> 4) & 0x0F;
??convertHexToStr_0:
        MOV     DPL,R0
        MOV     DPH,R1
        MOVX    A,@DPTR
        SWAP    A
        ANL     A,#0xf
        MOV     R5,A
//  652     lcd_buf[i++] = ch + (( ch < 10 ) ? '0' : '7'); // +7可以转变成大写字符ABCDEF
        MOV     A,R4
        MOV     R7,A
        INC     R4
        MOV     A,R5
        CLR     C
        SUBB    A,#0xa
        JNC     ??convertHexToStr_1
        MOV     R2,#0x30
        SJMP    ??convertHexToStr_2
??convertHexToStr_1:
        MOV     R2,#0x37
??convertHexToStr_2:
        MOV     A,R2
        ADD     A,R5
        PUSH    A
        CFI CFA_SP SP+-1
        MOV     ?V0 + 0,R7
        LCALL   ?Subroutine12 & 0xFFFF
??CrossCallReturnLabel_22:
        POP     A
        CFI CFA_SP SP+0
        MOVX    @DPTR,A
//  653     ch = *xad & 0x0F;
        MOV     DPL,R0
        MOV     DPH,R1
        MOVX    A,@DPTR
        ANL     A,#0xf
        MOV     R5,A
//  654     lcd_buf[i++] = ch + (( ch < 10 ) ? '0' : '7');
        MOV     ?V0 + 2,R4
        INC     R4
        CLR     C
        SUBB    A,#0xa
        JNC     ??convertHexToStr_3
        MOV     R2,#0x30
        SJMP    ??convertHexToStr_4
??convertHexToStr_3:
        MOV     R2,#0x37
??convertHexToStr_4:
        MOV     A,R2
        ADD     A,R5
        PUSH    A
        CFI CFA_SP SP+-1
        MOV     ?V0 + 0,?V0 + 2
        LCALL   ?Subroutine12 & 0xFFFF
//  655   }
??CrossCallReturnLabel_23:
        POP     A
        CFI CFA_SP SP+0
        MOVX    @DPTR,A
        MOV     A,R0
        ADD     A,#-0x1
        DEC     R0
        MOV     A,R1
        ADDC    A,#-0x1
        MOV     R1,A
        MOV     A,R4
        CLR     C
        SUBB    A,#0x4
        JC      ??convertHexToStr_0
//  656   lcd_buf[2*2] = '\0';
        MOV     A,#0x4
        LCALL   ?XSTACK_DISP0_8
        CLR     A
        MOVX    @DPTR,A
//  657   HalLcdWriteString( (char*)lcd_buf, lcdLineNum);
        ; Setup parameters for call to function HalLcdWriteString
        MOV     A,R6
        MOV     R1,A
        MOV     DPL,?XSP + 0
        MOV     DPH,?XSP + 1
        MOV     R2,DPL
        MOV     R3,DPH
        LCALL   ??HalLcdWriteString?relay
//  658 }
        MOV     A,#0x7
        CFI EndBlock cfiBlock84
        REQUIRE ?Subroutine0
        ; // Fall through to label ?Subroutine0

        RSEG BANKED_CODE:CODE:NOROOT(0)
?Subroutine0:
        CFI Block cfiBlock85 Using cfiCommon1
        CFI NoFunction
        CFI CFA_SP SP+0
        CFI CFA_XSP16 add(XSP16, 24)
        CFI VB load(1, XDATA, add(CFA_XSP16, literal(-10)))
        CFI DPL0 load(1, XDATA, add(CFA_XSP16, literal(-2)))
        CFI DPH0 load(1, XDATA, add(CFA_XSP16, literal(-1)))
        CFI R6 load(1, XDATA, add(CFA_XSP16, literal(-11)))
        CFI R7 load(1, XDATA, add(CFA_XSP16, literal(-6)))
        CFI V0 load(1, XDATA, add(CFA_XSP16, literal(-9)))
        CFI V1 load(1, XDATA, add(CFA_XSP16, literal(-8)))
        CFI V2 load(1, XDATA, add(CFA_XSP16, literal(-7)))
        CFI ?BRET_EXT load(1, XDATA, add(CFA_XSP16, literal(-3)))
        CFI ?RET_HIGH load(1, XDATA, add(CFA_XSP16, literal(-4)))
        CFI ?RET_LOW load(1, XDATA, add(CFA_XSP16, literal(-5)))
        CFI Invalid
        LCALL   ?DEALLOC_XSTACK8
        CFI EndBlock cfiBlock85
        REQUIRE ??Subroutine21_0
        ; // Fall through to label ??Subroutine21_0

        RSEG BANKED_CODE:CODE:NOROOT(0)
??Subroutine21_0:
        CFI Block cfiBlock86 Using cfiCommon1
        CFI NoFunction
        CFI CFA_SP SP+0
        CFI CFA_XSP16 add(XSP16, 11)
        CFI VB load(1, XDATA, add(CFA_XSP16, literal(-10)))
        CFI DPL0 load(1, XDATA, add(CFA_XSP16, literal(-2)))
        CFI DPH0 load(1, XDATA, add(CFA_XSP16, literal(-1)))
        CFI R6 load(1, XDATA, add(CFA_XSP16, literal(-11)))
        CFI R7 load(1, XDATA, add(CFA_XSP16, literal(-6)))
        CFI V0 load(1, XDATA, add(CFA_XSP16, literal(-9)))
        CFI V1 load(1, XDATA, add(CFA_XSP16, literal(-8)))
        CFI V2 load(1, XDATA, add(CFA_XSP16, literal(-7)))
        CFI ?BRET_EXT load(1, XDATA, add(CFA_XSP16, literal(-3)))
        CFI ?RET_HIGH load(1, XDATA, add(CFA_XSP16, literal(-4)))
        CFI ?RET_LOW load(1, XDATA, add(CFA_XSP16, literal(-5)))
        MOV     R7,#0x3
        LJMP    ?BANKED_LEAVE_XDATA
        CFI EndBlock cfiBlock86

        RSEG BANKED_CODE:CODE:NOROOT(0)
?Subroutine12:
        CFI Block cfiCond87 Using cfiCommon1
        CFI NoFunction
        CFI Conditional ??CrossCallReturnLabel_22
        CFI R6 load(1, XDATA, add(CFA_XSP16, literal(-11)))
        CFI VB load(1, XDATA, add(CFA_XSP16, literal(-10)))
        CFI V0 load(1, XDATA, add(CFA_XSP16, literal(-9)))
        CFI V1 load(1, XDATA, add(CFA_XSP16, literal(-8)))
        CFI V2 load(1, XDATA, add(CFA_XSP16, literal(-7)))
        CFI R7 load(1, XDATA, add(CFA_XSP16, literal(-6)))
        CFI ?RET_LOW load(1, XDATA, add(CFA_XSP16, literal(-5)))
        CFI ?RET_HIGH load(1, XDATA, add(CFA_XSP16, literal(-4)))
        CFI ?BRET_EXT load(1, XDATA, add(CFA_XSP16, literal(-3)))
        CFI DPL0 load(1, XDATA, add(CFA_XSP16, literal(-2)))
        CFI DPH0 load(1, XDATA, add(CFA_XSP16, literal(-1)))
        CFI CFA_SP SP+-1
        CFI CFA_XSP16 add(XSP16, 18)
        CFI Block cfiCond88 Using cfiCommon1
        CFI (cfiCond88) NoFunction
        CFI (cfiCond88) Conditional ??CrossCallReturnLabel_23
        CFI (cfiCond88) R6 load(1, XDATA, add(CFA_XSP16, literal(-11)))
        CFI (cfiCond88) VB load(1, XDATA, add(CFA_XSP16, literal(-10)))
        CFI (cfiCond88) V0 load(1, XDATA, add(CFA_XSP16, literal(-9)))
        CFI (cfiCond88) V1 load(1, XDATA, add(CFA_XSP16, literal(-8)))
        CFI (cfiCond88) V2 load(1, XDATA, add(CFA_XSP16, literal(-7)))
        CFI (cfiCond88) R7 load(1, XDATA, add(CFA_XSP16, literal(-6)))
        CFI (cfiCond88) ?RET_LOW load(1, XDATA, add(CFA_XSP16, literal(-5)))
        CFI (cfiCond88) ?RET_HIGH load(1, XDATA, add(CFA_XSP16, literal(-4)))
        CFI (cfiCond88) ?BRET_EXT load(1, XDATA, add(CFA_XSP16, literal(-3)))
        CFI (cfiCond88) DPL0 load(1, XDATA, add(CFA_XSP16, literal(-2)))
        CFI (cfiCond88) DPH0 load(1, XDATA, add(CFA_XSP16, literal(-1)))
        CFI (cfiCond88) CFA_SP SP+-1
        CFI (cfiCond88) CFA_XSP16 add(XSP16, 18)
        CFI Block cfiPicker89 Using cfiCommon0
        CFI (cfiPicker89) NoFunction
        CFI (cfiPicker89) Picker
        MOV     DPL,?XSP + 0
        MOV     DPH,?XSP + 1
        MOV     A,DPL
        ADD     A,?V0 + 0
        MOV     DPL,A
        MOV     A,DPH
        ADDC    A,#0x0
        MOV     DPH,A
        RET
        CFI EndBlock cfiCond87
        CFI EndBlock cfiCond88
        CFI EndBlock cfiPicker89
//  659 
//  660 /**
//  661   检测彩票机动作控制引脚，如果检测到低电平表示需要出发彩票机，main主函数中循环调用
//  662 */

        RSEG BANKED_CODE:CODE:NOROOT(0)
//  663 void checkGameIsOverReward(void) {
checkGameIsOverReward:
        CFI Block cfiBlock90 Using cfiCommon1
        CFI Function checkGameIsOverReward
        CODE
        FUNCALL checkGameIsOverReward, NLME_GetExtAddr
        LOCFRAME ISTACK, 0, STACK
        LOCFRAME PSTACK, 0, STACK
        LOCFRAME XSTACK, 23, STACK
        LOCFRAME IOVERLAY, 0, STATIC
        LOCFRAME DOVERLAY, 0, STATIC
        ARGFRAME ISTACK, 0, STACK
        ARGFRAME PSTACK, 0, STACK
        ARGFRAME XSTACK, 23, STACK
        ARGFRAME IOVERLAY, 0, STATIC
        ARGFRAME DOVERLAY, 0, STATIC
        FUNCALL checkGameIsOverReward, osal_memcpy
        LOCFRAME ISTACK, 0, STACK
        LOCFRAME PSTACK, 0, STACK
        LOCFRAME XSTACK, 26, STACK
        LOCFRAME IOVERLAY, 0, STATIC
        LOCFRAME DOVERLAY, 0, STATIC
        ARGFRAME ISTACK, 0, STACK
        ARGFRAME PSTACK, 0, STACK
        ARGFRAME XSTACK, 26, STACK
        ARGFRAME IOVERLAY, 0, STATIC
        ARGFRAME DOVERLAY, 0, STATIC
        FUNCALL checkGameIsOverReward, AF_DataRequest
        LOCFRAME ISTACK, 0, STACK
        LOCFRAME PSTACK, 0, STACK
        LOCFRAME XSTACK, 32, STACK
        LOCFRAME IOVERLAY, 0, STATIC
        LOCFRAME DOVERLAY, 0, STATIC
        ARGFRAME ISTACK, 0, STACK
        ARGFRAME PSTACK, 0, STACK
        ARGFRAME XSTACK, 32, STACK
        ARGFRAME IOVERLAY, 0, STATIC
        ARGFRAME DOVERLAY, 0, STATIC
        FUNCALL checkGameIsOverReward, HalLedBlink
        LOCFRAME ISTACK, 0, STACK
        LOCFRAME PSTACK, 0, STACK
        LOCFRAME XSTACK, 23, STACK
        LOCFRAME IOVERLAY, 0, STATIC
        LOCFRAME DOVERLAY, 0, STATIC
        ARGFRAME ISTACK, 0, STACK
        ARGFRAME PSTACK, 0, STACK
        ARGFRAME XSTACK, 23, STACK
        ARGFRAME IOVERLAY, 0, STATIC
        ARGFRAME DOVERLAY, 0, STATIC
        FUNCALL checkGameIsOverReward, HalLedBlink
        LOCFRAME ISTACK, 0, STACK
        LOCFRAME PSTACK, 0, STACK
        LOCFRAME XSTACK, 23, STACK
        LOCFRAME IOVERLAY, 0, STATIC
        LOCFRAME DOVERLAY, 0, STATIC
        ARGFRAME ISTACK, 0, STACK
        ARGFRAME PSTACK, 0, STACK
        ARGFRAME XSTACK, 23, STACK
        ARGFRAME IOVERLAY, 0, STATIC
        ARGFRAME DOVERLAY, 0, STATIC
        FUNCALL checkGameIsOverReward, myprintf
        LOCFRAME ISTACK, 0, STACK
        LOCFRAME PSTACK, 0, STACK
        LOCFRAME XSTACK, 25, STACK
        LOCFRAME IOVERLAY, 0, STATIC
        LOCFRAME DOVERLAY, 0, STATIC
        ARGFRAME ISTACK, 0, STACK
        ARGFRAME PSTACK, 0, STACK
        ARGFRAME XSTACK, 25, STACK
        ARGFRAME IOVERLAY, 0, STATIC
        ARGFRAME DOVERLAY, 0, STATIC
        MOV     A,#-0xb
        LCALL   ?BANKED_ENTER_XDATA
        CFI DPH0 load(1, XDATA, add(CFA_XSP16, literal(-1)))
        CFI DPL0 load(1, XDATA, add(CFA_XSP16, literal(-2)))
        CFI ?BRET_EXT load(1, XDATA, add(CFA_XSP16, literal(-3)))
        CFI ?RET_HIGH load(1, XDATA, add(CFA_XSP16, literal(-4)))
        CFI ?RET_LOW load(1, XDATA, add(CFA_XSP16, literal(-5)))
        CFI R7 load(1, XDATA, add(CFA_XSP16, literal(-6)))
        CFI V2 load(1, XDATA, add(CFA_XSP16, literal(-7)))
        CFI V1 load(1, XDATA, add(CFA_XSP16, literal(-8)))
        CFI V0 load(1, XDATA, add(CFA_XSP16, literal(-9)))
        CFI VB load(1, XDATA, add(CFA_XSP16, literal(-10)))
        CFI R6 load(1, XDATA, add(CFA_XSP16, literal(-11)))
        CFI CFA_SP SP+0
        CFI CFA_XSP16 add(XSP16, 11)
        ; Saved register size: 11
        ; Auto size: 12
        MOV     A,#-0xc
        LCALL   ?ALLOC_XSTACK8
        CFI CFA_XSP16 add(XSP16, 23)
//  664   if(REWARD_RECV_PIN == 0) { // 游戏结束，开始动作彩票机出奖励
        MOV     C,0x90.3
        JC      ??checkGameIsOverReward_0
//  665     REWARD_CTL_PIN = 0;  // 转发信号，控制彩票机开始出彩票
        CLR     0x90.4
//  666     gameWillOver = 1;
        MOV     DPTR,#gameWillOver
        MOV     A,#0x1
        LJMP    ??checkGameIsOverReward_1 & 0xFFFF
//  667   } else if(REWARD_RECV_PIN == 1) {    
??checkGameIsOverReward_0:
        MOV     C,0x90.3
        JC      $+5
        LJMP    ??checkGameIsOverReward_2 & 0xFFFF
//  668     if(gameWillOver == 1) {
        MOV     DPTR,#gameWillOver
        MOVX    A,@DPTR
        XRL     A,#0x1
        JZ      $+5
        LJMP    ??checkGameIsOverReward_2 & 0xFFFF
//  669       REWARD_CTL_PIN = 1;  // 转发停止出彩票
        SETB    0x90.4
//  670       gameWillOver = 0;    
        CLR     A
        MOVX    @DPTR,A
//  671       uint8 strBuf[12] = {0};  
        MOV     DPTR,#`?<Constant {0}>_2`
        PUSH    DPL
        CFI CFA_SP SP+-1
        MOV     DPL,?XSP + 0
        MOV     DPH,?XSP + 1
        MOV     R4,DPL
        MOV     R5,DPH
        MOV     DPH,#(`?<Constant {0}>_2` >> 8) & 0xff
        POP     DPL
        CFI CFA_SP SP+0
        MOV     A,#0xc
        LCALL   ?MOVE_LONG8_XDATA_XDATA
//  672       // 通知服务器游戏结束，并将奖励彩票个数信息rewardCount发送到服务器
//  673       strBuf[0] = '#';  // 发送数据的标识，便于协调器解析
        MOV     DPL,?XSP + 0
        MOV     DPH,?XSP + 1
        MOV     A,#0x23
        MOVX    @DPTR,A
//  674       strBuf[1] = 0x73; // 消息类型标识
        MOV     A,#0x1
        LCALL   ?XSTACK_DISP0_8
        MOV     A,#0x73
        MOVX    @DPTR,A
//  675       strBuf[2] = rewardCount; // 获取的奖励个数
        MOV     DPTR,#rewardCount
        MOVX    A,@DPTR
        PUSH    A
        CFI CFA_SP SP+-1
        MOV     A,#0x2
        LCALL   ?XSTACK_DISP0_8
        POP     A
        CFI CFA_SP SP+0
        LCALL   ?Subroutine3 & 0xFFFF
//  676       osal_memcpy(&strBuf[3], NLME_GetExtAddr(), 8); // 复制IEEE地址
??CrossCallReturnLabel_2:
        LCALL   ?PUSH_XSTACK_I_THREE
        CFI CFA_XSP16 add(XSP16, 26)
        MOV     R4,#0x8
        MOV     R5,#0x0
        MOV     A,#0x6
        LCALL   ?XSTACK_DISP0_8
        LCALL   ?Subroutine13 & 0xFFFF
??CrossCallReturnLabel_41:
        LCALL   ?DEALLOC_XSTACK8
        CFI CFA_XSP16 add(XSP16, 23)
//  677       strBuf[11] = '@'; // 尾部字节
        MOV     A,#0xb
        LCALL   ?XSTACK_DISP0_8
        LCALL   ?Subroutine8 & 0xFFFF
//  678       if ( AF_DataRequest( &SampleApp_TxAddr,                  // 发送的目的地址+端点地址+传送模式
//  679                           (endPointDesc_t *)&SampleApp_epDesc, // 源终端的描述
//  680                           SAMPLEAPP_PERIODIC_CLUSTERID,        // 被profile指定的有效的集群号
//  681                           12,                                  // 发送数据长度
//  682                           strBuf,                              // 发送数据缓冲区
//  683                           &SampleApp_TransID,                  // 消息发送ID
//  684                           AF_DISCV_ROUTE,                      // 有效位掩码的发送选项
//  685                           AF_DEFAULT_RADIUS ) != afStatus_SUCCESS ) // 传送跳数，通常设置为AF_DEFAULT_RADIUS
??CrossCallReturnLabel_11:
        LCALL   ?PUSH_XSTACK_I_ONE
        CFI CFA_XSP16 add(XSP16, 24)
        MOV     ?V0 + 0,#SampleApp_TransID & 0xff
        MOV     ?V0 + 1,#(SampleApp_TransID >> 8) & 0xff
        MOV     R0,#?V0 + 0
        LCALL   ?PUSH_XSTACK_I_TWO
        CFI CFA_XSP16 add(XSP16, 26)
        MOV     A,#0x3
        LCALL   ?XSTACK_DISP0_8
        MOV     ?V0 + 0,DPL
        MOV     ?V0 + 1,DPH
        MOV     R0,#?V0 + 0
        LCALL   ?PUSH_XSTACK_I_TWO
        CFI CFA_XSP16 add(XSP16, 28)
        MOV     ?V0 + 0,#0xc
        MOV     ?V0 + 1,#0x0
        MOV     R0,#?V0 + 0
        LCALL   ?PUSH_XSTACK_I_TWO
        CFI CFA_XSP16 add(XSP16, 30)
        MOV     ?V0 + 0,#0x1
        MOV     R0,#?V0 + 0
        LCALL   ?PUSH_XSTACK_I_TWO
        CFI CFA_XSP16 add(XSP16, 32)
        LCALL   ?Subroutine15 & 0xFFFF
??CrossCallReturnLabel_37:
        LCALL   ?DEALLOC_XSTACK8
        CFI CFA_XSP16 add(XSP16, 23)
        MOV     A,R1
        JZ      ??checkGameIsOverReward_3
//  686       {
//  687         HalLedBlink(HAL_LED_1, 4, 50, 250); // 发送失败快速闪烁2次
        ; Setup parameters for call to function HalLedBlink
        MOV     R4,#-0x6
        MOV     R5,#0x0
        MOV     R3,#0x32
        MOV     R2,#0x4
        MOV     R1,#0x1
        SJMP    ??checkGameIsOverReward_4
//  688       } else {
//  689         HalLedBlink(HAL_LED_2, 2, 50, 200); // 发送成功正常闪烁2次
??checkGameIsOverReward_3:
        ; Setup parameters for call to function HalLedBlink
        MOV     R4,#-0x38
        MOV     R5,#0x0
        MOV     R3,#0x32
        MOV     R2,#0x2
        MOV     R1,#0x2
??checkGameIsOverReward_4:
        LCALL   ??HalLedBlink?relay
//  690       }
//  691             
//  692       myprintf("Stop out reward, rewardCount = %d\n", rewardCount);
        ; Setup parameters for call to function myprintf
        MOV     DPTR,#rewardCount
        MOVX    A,@DPTR
        MOV     ?V0 + 0,A
        MOV     R0,#?V0 + 0
        LCALL   ?PUSH_XSTACK_I_TWO
        CFI CFA_XSP16 add(XSP16, 25)
        MOV     R2,#`?<Constant "Stop out reward, rewa...">` & 0xff
        MOV     R3,#(`?<Constant "Stop out reward, rewa...">` >> 8) & 0xff
        LCALL   ?Subroutine11 & 0xFFFF
??CrossCallReturnLabel_21:
        LCALL   ?DEALLOC_XSTACK8
        CFI CFA_XSP16 add(XSP16, 23)
//  693       rewardCount = 0;
        MOV     DPTR,#rewardCount
        CLR     A
??checkGameIsOverReward_1:
        MOVX    @DPTR,A
//  694     }
//  695   }
//  696 }
??checkGameIsOverReward_2:
        MOV     A,#0xc
        LJMP    ?Subroutine0 & 0xFFFF
        CFI EndBlock cfiBlock90
        REQUIRE _A_P1

        COMMON INTVEC:CODE:ROOT(0)
        ORG 107
`??port0Isr??INTVEC 107`:
        LJMP       (port0Isr)

        RSEG BANK_RELAYS:CODE:REORDER:NOROOT(0)
??SampleApp_Init?relay:
        LCALL   ?BDISPATCH
        DATA
        DC24    SampleApp_Init

        RSEG BANK_RELAYS:CODE:REORDER:NOROOT(0)
??SampleApp_ProcessEvent?relay:
        LCALL   ?BDISPATCH
        DATA
        DC24    SampleApp_ProcessEvent

        RSEG BANK_RELAYS:CODE:REORDER:NOROOT(0)
??SampleApp_HandleKeys?relay:
        LCALL   ?BDISPATCH
        DATA
        DC24    SampleApp_HandleKeys

        RSEG BANK_RELAYS:CODE:REORDER:NOROOT(0)
??SampleApp_MessageMSGCB?relay:
        LCALL   ?BDISPATCH
        DATA
        DC24    SampleApp_MessageMSGCB

        RSEG BANK_RELAYS:CODE:REORDER:NOROOT(0)
??SampleApp_SendPeriodicMessage?relay:
        LCALL   ?BDISPATCH
        DATA
        DC24    SampleApp_SendPeriodicMessage

        RSEG BANK_RELAYS:CODE:REORDER:NOROOT(0)
??SampleApp_SendHeartBeatMessageCoor?relay:
        LCALL   ?BDISPATCH
        DATA
        DC24    SampleApp_SendHeartBeatMessageCoor

        RSEG BANK_RELAYS:CODE:REORDER:NOROOT(0)
??SampleApp_SendHeartBeatMessageEnd?relay:
        LCALL   ?BDISPATCH
        DATA
        DC24    SampleApp_SendHeartBeatMessageEnd

        RSEG BANK_RELAYS:CODE:REORDER:NOROOT(0)
??AfSendAddrInfo?relay:
        LCALL   ?BDISPATCH
        DATA
        DC24    AfSendAddrInfo

        RSEG BANK_RELAYS:CODE:REORDER:NOROOT(0)
??AfReplyGetCoinCmd?relay:
        LCALL   ?BDISPATCH
        DATA
        DC24    AfReplyGetCoinCmd

        RSEG BANK_RELAYS:CODE:REORDER:NOROOT(0)
??printAddrInfoHex?relay:
        LCALL   ?BDISPATCH
        DATA
        DC24    printAddrInfoHex

        RSEG BANK_RELAYS:CODE:REORDER:NOROOT(0)
??convertHexToStr?relay:
        LCALL   ?BDISPATCH
        DATA
        DC24    convertHexToStr

        RSEG BANK_RELAYS:CODE:REORDER:NOROOT(0)
??checkGameIsOverReward?relay:
        LCALL   ?BDISPATCH
        DATA
        DC24    checkGameIsOverReward

        RSEG XDATA_ROM_C:CONST:REORDER:NOROOT(0)
        DATA8
`?<Constant "get p0_4 coin input i...">`:
        DB "get p0_4 coin input interrupt\012"

        RSEG XDATA_ROM_C:CONST:REORDER:NOROOT(0)
        DATA8
`?<Constant "Get p0_6 one reward i...">`:
        DB "Get p0_6 one reward interrupt\012"

        RSEG XDATA_ROM_C:CONST:REORDER:NOROOT(0)
        DATA8
`?<Constant "Group 1">`:
        DB "Group 1"

        RSEG XDATA_ROM_C:CONST:REORDER:NOROOT(0)
        DATA8
`?<Constant "UartInit OK\\n">`:
        DB "UartInit OK\012"

        RSEG XDATA_ROM_C:CONST:REORDER:NOROOT(0)
        DATA8
`?<Constant {35, 69, 64}>`:
        DB 35
        DB 69
        DB 64

        RSEG XDATA_ROM_C:CONST:REORDER:NOROOT(0)
        DATA8
`?<Constant "ERROR:AF_DATA_CONFIRM...">`:
        DB "ERROR:AF_DATA_CONFIRM_CMD failed\012"

        RSEG XDATA_ROM_C:CONST:REORDER:NOROOT(0)
        DATA8
`?<Constant "unknown pkg-event = 0...">`:
        DB "unknown pkg-event = 0x%x\012"

        RSEG XDATA_ROM_C:CONST:REORDER:NOROOT(0)
        DATA8
`?<Constant "Get COIN_MSG_EVT, Nee...">`:
        DB 47H, 65H, 74H, 20H, 43H, 4FH, 49H, 4EH
        DB 5FH, 4DH, 53H, 47H, 5FH, 45H, 56H, 54H
        DB 2CH, 20H, 4EH, 65H, 65H, 64H, 43H, 6FH
        DB 69H, 6EH, 44H, 65H, 6CH, 69H, 76H, 65H
        DB 72H, 65H, 64H, 20H, 3DH, 20H, 25H, 64H
        DB 2CH, 20H, 65H, 76H, 65H, 6EH, 74H, 73H
        DB 20H, 3DH, 20H, 30H, 78H, 25H, 78H, 0AH
        DB 0

        RSEG XDATA_ROM_C:CONST:REORDER:NOROOT(0)
        DATA8
`?<Constant "Get transport coin EV...">`:
        DB "Get transport coin EVT, NeedCoinTransport = %d\012"

        RSEG XDATA_ROM_C:CONST:REORDER:NOROOT(0)
        DATA8
`?<Constant "get trans reward msg ...">`:
        DB "get trans reward msg event, REWARD_BACK_PIN = %d\012"

        RSEG XDATA_ROM_C:CONST:REORDER:NOROOT(0)
        DATA8
`?<Constant "NeedCoinDelivered = %d\\n">`:
        DB "NeedCoinDelivered = %d\012"

        RSEG XDATA_ROM_C:CONST:REORDER:NOROOT(0)
        DATA32
`?<Constant {35, 49, 0, 64}>`:
        DATA8
        DB 35
        DB 49
        DB 0
        DB 64

        RSEG XDATA_ROM_C:CONST:REORDER:NOROOT(0)
        DATA8
`?<Constant {35, 70, 64}>`:
        DB 35
        DB 70
        DB 64

        RSEG XDATA_ROM_C:CONST:REORDER:NOROOT(0)
        DATA8
`?<Constant "send heart_beat\\n">`:
        DB "send heart_beat\012"

        RSEG XDATA_ROM_C:CONST:REORDER:NOROOT(0)
        DATA8
`?<Constant {0}>`:
        DB 0
        DB 0, 0, 0, 0, 0, 0, 0, 0
        DB 0, 0, 0, 0

        RSEG XDATA_ROM_C:CONST:REORDER:NOROOT(0)
        DATA8
`?<Constant {0}>_1`:
        DB 0
        DB 0, 0, 0, 0, 0, 0, 0, 0
        DB 0, 0

        RSEG XDATA_ROM_C:CONST:REORDER:NOROOT(0)
        DATA16
`?<Constant "\\n">`:
        DB "\012"

        RSEG XDATA_ROM_C:CONST:REORDER:NOROOT(0)
        DATA8
`?<Constant "; IEEE = ">`:
        DB "; IEEE = "

        RSEG XDATA_ROM_C:CONST:REORDER:NOROOT(0)
        DATA8
`?<Constant "0x%x,">`:
        DB "0x%x,"

        RSEG XDATA_ROM_C:CONST:REORDER:NOROOT(0)
        DATA8
`?<Constant {0}>_2`:
        DB 0
        DB 0, 0, 0, 0, 0, 0, 0, 0
        DB 0, 0, 0

        RSEG XDATA_ROM_C:CONST:REORDER:NOROOT(0)
        DATA8
`?<Constant "Stop out reward, rewa...">`:
        DB "Stop out reward, rewardCount = %d\012"

        END
// 
// 2 110 bytes in segment BANKED_CODE
//    72 bytes in segment BANK_RELAYS
//     3 bytes in segment INTVEC
//    84 bytes in segment NEAR_CODE
//     5 bytes in segment SFR_AN
//   458 bytes in segment XDATA_ROM_C
//    83 bytes in segment XDATA_Z
// 
// 2 266 bytes of CODE  memory (+ 3 bytes shared)
//   458 bytes of CONST memory
//     0 bytes of DATA  memory (+ 5 bytes shared)
//    83 bytes of XDATA memory
//
//Errors: none
//Warnings: none
