###############################################################################
#                                                                             #
# IAR C/C++ Compiler V8.10.3.10338/W32 for 8051         14/Jun/2019  13:04:31 #
# Copyright 2004-2011 IAR Systems AB.                                         #
#                                                                             #
#    Core               =  plain                                              #
#    Code model         =  banked                                             #
#    Data model         =  large                                              #
#    Calling convention =  xdata reentrant                                    #
#    Constant location  =  data_rom                                           #
#    Dptr setup         =  1,16                                               #
#    Source file        =  E:\Github_Repository\zigbee-net-tech\ZStack-2.5.1a #
#                          \Projects\zstack\Samples\SampleApp\Source\SampleAp #
#                          p.c                                                #
#    Command line       =  -f E:\Github_Repository\zigbee-net-tech\ZStack-2.5 #
#                          .1a\Projects\zstack\Samples\SampleApp\CC2530DB\..\ #
#                          ..\..\Tools\CC2530DB\f8wEndev.cfg (-DCPU32MHZ      #
#                          -DROOT=__near_func -DMAC_CFG_TX_DATA_MAX=3         #
#                          -DMAC_CFG_TX_MAX=6 -DMAC_CFG_RX_MAX=3              #
#                          -DLCD_SUPPORTED -DEND_DEVICE) -f                   #
#                          E:\Github_Repository\zigbee-net-tech\ZStack-2.5.1a #
#                          \Projects\zstack\Samples\SampleApp\CC2530DB\..\..\ #
#                          ..\Tools\CC2530DB\f8wConfig.cfg (-DZIGBEEPRO       #
#                          -DSECURE=0 -DZG_SECURE_DYNAMIC=0 -DREFLECTOR       #
#                          -DDEFAULT_CHANLIST=0x00000800                      #
#                          -DZDAPP_CONFIG_PAN_ID=0xFFF1                       #
#                          -DNWK_START_DELAY=100 -DEXTENDED_JOINING_RANDOM_MA #
#                          SK=0x007F -DBEACON_REQUEST_DELAY=100               #
#                          -DBEACON_REQ_DELAY_MASK=0x00FF                     #
#                          -DLINK_STATUS_JITTER_MASK=0x007F                   #
#                          -DROUTE_EXPIRY_TIME=30 -DAPSC_ACK_WAIT_DURATION_PO #
#                          LLED=3000 -DNWK_INDIRECT_MSG_TIMEOUT=7             #
#                          -DMAX_RREQ_ENTRIES=8 -DAPSC_MAX_FRAME_RETRIES=3    #
#                          -DNWK_MAX_DATA_RETRIES=2                           #
#                          -DMAX_POLL_FAILURE_RETRIES=2 -DMAX_BCAST=9         #
#                          -DAPS_MAX_GROUPS=16 -DMAX_RTG_ENTRIES=40           #
#                          -DNWK_MAX_BINDING_ENTRIES=4                        #
#                          -DMAX_BINDING_CLUSTER_IDS=4 "-DDEFAULT_KEY={0x01,  #
#                          0x03, 0x05, 0x07, 0x09, 0x0B, 0x0D, 0x0F, 0x00,    #
#                          0x02, 0x04, 0x06, 0x08, 0x0A, 0x0C, 0x0D}"         #
#                          -DMAC_MAX_FRAME_SIZE=116                           #
#                          -DZDNWKMGR_MIN_TRANSMISSIONS=20 "-DCONST=const     #
#                          __code" -DGENERIC=__generic                        #
#                          -DRFD_RCVC_ALWAYS_ON=FALSE -DPOLL_RATE=1000        #
#                          -DQUEUED_POLL_RATE=100 -DRESPONSE_POLL_RATE=100)   #
#                          -DREJOIN_POLL_RATE=440 E:\Github_Repository\zigbee #
#                          -net-tech\ZStack-2.5.1a\Projects\zstack\Samples\Sa #
#                          mpleApp\Source\SampleApp.c -D NWK_AUTO_POLL -D     #
#                          ZTOOL_P1 -D MT_TASK -D MT_SYS_FUNC -D MT_ZDO_FUNC  #
#                          -lC E:\Github_Repository\zigbee-net-tech\ZStack-2. #
#                          5.1a\Projects\zstack\Samples\SampleApp\CC2530DB\En #
#                          dDeviceEB\List\ -lA E:\Github_Repository\zigbee-ne #
#                          t-tech\ZStack-2.5.1a\Projects\zstack\Samples\Sampl #
#                          eApp\CC2530DB\EndDeviceEB\List\ --diag_suppress    #
#                          Pe001,Pa010 -o E:\Github_Repository\zigbee-net-tec #
#                          h\ZStack-2.5.1a\Projects\zstack\Samples\SampleApp\ #
#                          CC2530DB\EndDeviceEB\Obj\ -e --no_code_motion      #
#                          --debug --core=plain --dptr=16,1                   #
#                          --data_model=large --code_model=banked             #
#                          --calling_convention=xdata_reentrant               #
#                          --place_constants=data_rom --nr_virtual_regs 16    #
#                          -I E:\Github_Repository\zigbee-net-tech\ZStack-2.5 #
#                          .1a\Projects\zstack\Samples\SampleApp\CC2530DB\    #
#                          -I E:\Github_Repository\zigbee-net-tech\ZStack-2.5 #
#                          .1a\Projects\zstack\Samples\SampleApp\CC2530DB\..\ #
#                          Source\ -I E:\Github_Repository\zigbee-net-tech\ZS #
#                          tack-2.5.1a\Projects\zstack\Samples\SampleApp\CC25 #
#                          30DB\..\..\..\ZMain\TI2530DB\ -I                   #
#                          E:\Github_Repository\zigbee-net-tech\ZStack-2.5.1a #
#                          \Projects\zstack\Samples\SampleApp\CC2530DB\..\..\ #
#                          ..\..\..\Components\hal\include\ -I                #
#                          E:\Github_Repository\zigbee-net-tech\ZStack-2.5.1a #
#                          \Projects\zstack\Samples\SampleApp\CC2530DB\..\..\ #
#                          ..\..\..\Components\hal\target\CC2530EB\ -I        #
#                          E:\Github_Repository\zigbee-net-tech\ZStack-2.5.1a #
#                          \Projects\zstack\Samples\SampleApp\CC2530DB\..\..\ #
#                          ..\..\..\Components\mac\include\ -I                #
#                          E:\Github_Repository\zigbee-net-tech\ZStack-2.5.1a #
#                          \Projects\zstack\Samples\SampleApp\CC2530DB\..\..\ #
#                          ..\..\..\Components\mac\high_level\ -I             #
#                          E:\Github_Repository\zigbee-net-tech\ZStack-2.5.1a #
#                          \Projects\zstack\Samples\SampleApp\CC2530DB\..\..\ #
#                          ..\..\..\Components\mac\low_level\srf04\ -I        #
#                          E:\Github_Repository\zigbee-net-tech\ZStack-2.5.1a #
#                          \Projects\zstack\Samples\SampleApp\CC2530DB\..\..\ #
#                          ..\..\..\Components\mac\low_level\srf04\single_chi #
#                          p\ -I E:\Github_Repository\zigbee-net-tech\ZStack- #
#                          2.5.1a\Projects\zstack\Samples\SampleApp\CC2530DB\ #
#                          ..\..\..\..\..\Components\mt\ -I                   #
#                          E:\Github_Repository\zigbee-net-tech\ZStack-2.5.1a #
#                          \Projects\zstack\Samples\SampleApp\CC2530DB\..\..\ #
#                          ..\..\..\Components\osal\include\ -I               #
#                          E:\Github_Repository\zigbee-net-tech\ZStack-2.5.1a #
#                          \Projects\zstack\Samples\SampleApp\CC2530DB\..\..\ #
#                          ..\..\..\Components\services\saddr\ -I             #
#                          E:\Github_Repository\zigbee-net-tech\ZStack-2.5.1a #
#                          \Projects\zstack\Samples\SampleApp\CC2530DB\..\..\ #
#                          ..\..\..\Components\services\sdata\ -I             #
#                          E:\Github_Repository\zigbee-net-tech\ZStack-2.5.1a #
#                          \Projects\zstack\Samples\SampleApp\CC2530DB\..\..\ #
#                          ..\..\..\Components\stack\af\ -I                   #
#                          E:\Github_Repository\zigbee-net-tech\ZStack-2.5.1a #
#                          \Projects\zstack\Samples\SampleApp\CC2530DB\..\..\ #
#                          ..\..\..\Components\stack\nwk\ -I                  #
#                          E:\Github_Repository\zigbee-net-tech\ZStack-2.5.1a #
#                          \Projects\zstack\Samples\SampleApp\CC2530DB\..\..\ #
#                          ..\..\..\Components\stack\sapi\ -I                 #
#                          E:\Github_Repository\zigbee-net-tech\ZStack-2.5.1a #
#                          \Projects\zstack\Samples\SampleApp\CC2530DB\..\..\ #
#                          ..\..\..\Components\stack\sec\ -I                  #
#                          E:\Github_Repository\zigbee-net-tech\ZStack-2.5.1a #
#                          \Projects\zstack\Samples\SampleApp\CC2530DB\..\..\ #
#                          ..\..\..\Components\stack\sys\ -I                  #
#                          E:\Github_Repository\zigbee-net-tech\ZStack-2.5.1a #
#                          \Projects\zstack\Samples\SampleApp\CC2530DB\..\..\ #
#                          ..\..\..\Components\stack\zdo\ -I                  #
#                          E:\Github_Repository\zigbee-net-tech\ZStack-2.5.1a #
#                          \Projects\zstack\Samples\SampleApp\CC2530DB\..\..\ #
#                          ..\..\..\Components\zmac\ -I                       #
#                          E:\Github_Repository\zigbee-net-tech\ZStack-2.5.1a #
#                          \Projects\zstack\Samples\SampleApp\CC2530DB\..\..\ #
#                          ..\..\..\Components\zmac\f8w\ -Ohz                 #
#                          --require_prototypes                               #
#    List file          =  E:\Github_Repository\zigbee-net-tech\ZStack-2.5.1a #
#                          \Projects\zstack\Samples\SampleApp\CC2530DB\EndDev #
#                          iceEB\List\SampleApp.lst                           #
#    Object file        =  E:\Github_Repository\zigbee-net-tech\ZStack-2.5.1a #
#                          \Projects\zstack\Samples\SampleApp\CC2530DB\EndDev #
#                          iceEB\Obj\SampleApp.r51                            #
#                                                                             #
#                                                                             #
###############################################################################

E:\Github_Repository\zigbee-net-tech\ZStack-2.5.1a\Projects\zstack\Samples\SampleApp\Source\SampleApp.c
      1          /**************************************************************************************************
      2          Filename:       SampleApp.c
      3          Revised:        $Date: 2009-03-18 15:56:27 -0700 (Wed, 18 Mar 2009) $
      4          Revision:       $Revision: 19453 $
      5          
      6          Description:    Sample Application (no Profile).
      7          
      8          
      9          Copyright 2007 Texas Instruments Incorporated. All rights reserved.
     10          
     11          IMPORTANT: Your use of this Software is limited to those specific rights
     12          granted under the terms of a software license agreement between the user
     13          who downloaded the software, his/her employer (which must be your employer)
     14          and Texas Instruments Incorporated (the "License").  You may not use this
     15          Software unless you agree to abide by the terms of the License. The License
     16          limits your use, and you acknowledge, that the Software may not be modified,
     17          copied or distributed unless embedded on a Texas Instruments microcontroller
     18          or used solely and exclusively in conjunction with a Texas Instruments radio
     19          frequency transceiver, which is integrated into your product.  Other than for
     20          the foregoing purpose, you may not use, reproduce, copy, prepare derivative
     21          works of, modify, distribute, perform, display or sell this Software and/or
     22          its documentation for any purpose.
     23          
     24          YOU FURTHER ACKNOWLEDGE AND AGREE THAT THE SOFTWARE AND DOCUMENTATION ARE
     25          PROVIDED AS IS?WITHOUT WARRANTY OF ANY KIND, EITHER EXPRESS OR IMPLIED,
     26          INCLUDING WITHOUT LIMITATION, ANY WARRANTY OF MERCHANTABILITY, TITLE,
     27          NON-INFRINGEMENT AND FITNESS FOR A PARTICULAR PURPOSE. IN NO EVENT SHALL
     28          TEXAS INSTRUMENTS OR ITS LICENSORS BE LIABLE OR OBLIGATED UNDER CONTRACT,
     29          NEGLIGENCE, STRICT LIABILITY, CONTRIBUTION, BREACH OF WARRANTY, OR OTHER
     30          LEGAL EQUITABLE THEORY ANY DIRECT OR INDIRECT DAMAGES OR EXPENSES
     31          INCLUDING BUT NOT LIMITED TO ANY INCIDENTAL, SPECIAL, INDIRECT, PUNITIVE
     32          OR CONSEQUENTIAL DAMAGES, LOST PROFITS OR LOST DATA, COST OF PROCUREMENT
     33          OF SUBSTITUTE GOODS, TECHNOLOGY, SERVICES, OR ANY CLAIMS BY THIRD PARTIES
     34          (INCLUDING BUT NOT LIMITED TO ANY DEFENSE THEREOF), OR OTHER SIMILAR COSTS.
     35          
     36          Should you have any questions regarding your right to use this Software,
     37          contact Texas Instruments Incorporated at www.TI.com.
     38          **************************************************************************************************/
     39          
     40          /*********************************************************************
     41          This application isn't intended to do anything useful, it is
     42          intended to be a simple example of an application's structure.
     43          
     44          This application sends it's messages either as broadcast or
     45          broadcast filtered group messages.  The other (more normal)
     46          message addressing is unicast.  Most of the other sample
     47          applications are written to support the unicast message model.
     48          
     49          Key control:
     50          SW1:  Sends a flash command to all devices in Group 1.
     51          SW2:  Adds/Removes (toggles) this device in and out
     52          of Group 1.  This will enable and disable the
     53          reception of the flash command.
     54          **************************************************************************************************/
     55          
     56          /*********************************************************************
     57          需要修改的文件包含功能如下：
     58          ZMain/ZMain.c是主函数
     59          HAL/hal_drivers.c进行外部中断的初始化
     60          MT/MT_UART.c中进行串口消息的接收
     61          SampleApp.c中定义中断响应函数，以及事件消息处理函数等
     62          SingleLinkedList.c中定义了单链表的实现
     63          *********************************************************************/
     64          
     65          /*********************************************************************
     66          * INCLUDES
     67          */
     68          #include "OSAL.h"
     69          #include "ZGlobals.h"
     70          #include "AF.h"
     71          #include "aps_groups.h"
     72          #include "ZDObject.h"
     73          #include "ZDProfile.h"
     74          #include "ZDApp.h"
     75          
     76          #include "SampleApp.h"
     77          #include "SampleAppHw.h"
     78          #include "SinglyLinkedList.h"
     79          
     80          #include "OnBoard.h"

   \                                 In  segment SFR_AN, at 0x80
   \   union <unnamed> volatile __sfr _A_P0
   \                     _A_P0:
   \   000000                DS 1

   \                                 In  segment SFR_AN, at 0x89
   \   unsigned char volatile __sfr P0IFG
   \                     P0IFG:
   \   000000                DS 1

   \                                 In  segment SFR_AN, at 0xc0
   \   union <unnamed> volatile __sfr _A_IRCON
   \                     _A_IRCON:
   \   000000                DS 1

   \                                 In  segment SFR_AN, at 0xf3
   \   unsigned char volatile __sfr P0SEL
   \                     P0SEL:
   \   000000                DS 1

   \                                 In  segment SFR_AN, at 0xfd
   \   unsigned char volatile __sfr P0DIR
   \                     P0DIR:
   \   000000                DS 1
     81          
     82          /* HAL */
     83          #include "hal_lcd.h"
     84          #include "hal_led.h"
     85          #include "hal_key.h"
     86          
     87          #include "MT_UART.h"
     88          #include "MT_APP.h"
     89          #include "MT.h"
     90          
     91          /*********************************************************************
     92          * MACROS
     93          */
     94          #define COIN_PIN P0_5            //定义P0.5口为中断方式接收投币器信号引脚
     95          #define SIMULATE_PIN P0_7        //定义P0.7口为替换投币器模拟信号发生引脚
     96          #define UART0        0x00
     97          
     98          // This list should be filled with Application specific Cluster IDs.

   \                                 In  segment XDATA_ROM_C, align 1
     99          const cId_t SampleApp_ClusterList[SAMPLEAPP_MAX_CLUSTERS] =
   \                     SampleApp_ClusterList:
   \   000000   0100         DW 1
   \   000002   0200         DW 2
   \   000004   0000         DW 0
   \   000006   0000         DW 0
    100          {
    101            SAMPLEAPP_PERIODIC_CLUSTERID,
    102            SAMPLEAPP_FLASH_CLUSTERID
    103          };
    104          

   \                                 In  segment XDATA_ROM_C, align 1
    105          const SimpleDescriptionFormat_t SampleApp_SimpleDesc =
   \                     SampleApp_SimpleDesc:
   \   000000   14           DB 20
   \   000001   080F         DW 3848
   \   000003   0100         DW 1
   \   000005   00           DB 0
   \   000006   04           DB 4
   \   000007   ....         DW SampleApp_ClusterList
   \   000009   04           DB 4
   \   00000A   ....         DW SampleApp_ClusterList
    106          {
    107            SAMPLEAPP_ENDPOINT,              //  int Endpoint;
    108            SAMPLEAPP_PROFID,                //  uint16 AppProfId[2];
    109            SAMPLEAPP_DEVICEID,              //  uint16 AppDeviceId[2];
    110            SAMPLEAPP_DEVICE_VERSION,        //  int   AppDevVer:4;
    111            SAMPLEAPP_FLAGS,                 //  int   AppFlags:4;
    112            SAMPLEAPP_MAX_CLUSTERS,          //  uint8  AppNumInClusters;
    113            (cId_t *)SampleApp_ClusterList,  //  uint8 *pAppInClusterList;
    114            SAMPLEAPP_MAX_CLUSTERS,          //  uint8  AppNumInClusters;
    115            (cId_t *)SampleApp_ClusterList   //  uint8 *pAppInClusterList;
    116          };
    117          
    118          // This is the Endpoint/Interface description.  It is defined here, but
    119          // filled-in in SampleApp_Init().  Another way to go would be to fill
    120          // in the structure here and make it a "const" (in code space).  The
    121          // way it's defined in this sample app it is define in RAM.

   \                                 In  segment XDATA_Z, align 1, keep-with-next
    122          endPointDesc_t SampleApp_epDesc;
   \                     SampleApp_epDesc:
   \   000000                DS 6
   \   000006                REQUIRE __INIT_XDATA_Z

   \                                 In  segment XDATA_Z, align 1, keep-with-next
    123          afAddrType_t GenericApp_DstAddr;
   \                     GenericApp_DstAddr:
   \   000000                DS 12
   \   00000C                REQUIRE __INIT_XDATA_Z

   \                                 In  segment XDATA_Z, align 1, keep-with-next
    124          afAddrType_t EndPoint_DstAddr;
   \                     EndPoint_DstAddr:
   \   000000                DS 12
   \   00000C                REQUIRE __INIT_XDATA_Z
    125          
    126          /*********************************************************************
    127          * LOCAL VARIABLES
    128          */

   \                                 In  segment XDATA_Z, align 1, keep-with-next
    129          uint8 SampleApp_TaskID;   // Task ID for internal task/event processing
   \                     SampleApp_TaskID:
   \   000000                DS 1
   \   000001                REQUIRE __INIT_XDATA_Z
    130          // This variable will be received when
    131          // SampleApp_Init() is called.

   \                                 In  segment XDATA_Z, align 1, keep-with-next
    132          devStates_t SampleApp_NwkState;
   \                     SampleApp_NwkState:
   \   000000                DS 1
   \   000001                REQUIRE __INIT_XDATA_Z
    133          

   \                                 In  segment XDATA_Z, align 1, keep-with-next
    134          uint8 SampleApp_TransID;  // This is the unique message ID (counter)
   \                     SampleApp_TransID:
   \   000000                DS 1
   \   000001                REQUIRE __INIT_XDATA_Z
    135          

   \                                 In  segment XDATA_Z, align 1, keep-with-next
    136          afAddrType_t SampleApp_Periodic_DstAddr; // 用于协调器广播消息
   \                     SampleApp_Periodic_DstAddr:
   \   000000                DS 12
   \   00000C                REQUIRE __INIT_XDATA_Z

   \                                 In  segment XDATA_Z, align 1, keep-with-next
    137          afAddrType_t SampleApp_TxAddr; // 用于终端设备向协调器报告短地址信息
   \                     SampleApp_TxAddr:
   \   000000                DS 12
   \   00000C                REQUIRE __INIT_XDATA_Z
    138          

   \                                 In  segment XDATA_Z, align 1, keep-with-next
    139          aps_Group_t SampleApp_Group;
   \                     SampleApp_Group:
   \   000000                DS 18
   \   000012                REQUIRE __INIT_XDATA_Z

   \                                 In  segment XDATA_Z, align 1, keep-with-next
    140          uint8 SampleAppPeriodicCounter = 0;
   \                     SampleAppPeriodicCounter:
   \   000000                DS 1
   \   000001                REQUIRE __INIT_XDATA_Z

   \                                 In  segment XDATA_Z, align 1, keep-with-next
    141          uint8 SampleAppFlashCounter = 0;
   \                     SampleAppFlashCounter:
   \   000000                DS 1
   \   000001                REQUIRE __INIT_XDATA_Z
    142          

   \                                 In  segment XDATA_Z, align 1, keep-with-next
    143          LinkList LL; // 定义线性链表存储终端地址以及心跳信息
   \                     LL:
   \   000000                DS 2
   \   000002                REQUIRE __INIT_XDATA_Z
    144          
    145          /*********************************************************************
    146          * LOCAL FUNCTIONS
    147          */
    148          void AfSendAddrInfo(uint8 cmd);
    149          void AfReplyGetCoinCmd(void);
    150          void SampleApp_HandleKeys( uint8 shift, uint8 keys );
    151          void SampleApp_MessageMSGCB( afIncomingMSGPacket_t *pckt );
    152          void SampleApp_SendPeriodicMessage( int8 whichKey );
    153          void SampleApp_SendHeartBeatMessageCoor(void);
    154          void SampleApp_SendHeartBeatMessageEnd(void);
    155          void printAddrInfoHex(uint8* buf, uint8 dataLen);
    156          void convertHexToStr(uint16 addr, uint8 lcdLineNum);
    157          
    158          #ifndef ZDO_COORDINATOR

   \                                 In  segment XDATA_Z, align 1, keep-with-next
    159          int8 NeedCoinDelivered = 0; // 定义终端需要处理的投币个数
   \                     NeedCoinDelivered:
   \   000000                DS 1
   \   000001                REQUIRE __INIT_XDATA_Z
    160          #endif
    161          
    162          /**
    163            终端设备P1端口中断处理函数，用来接收投币器的信号
    164          */
    165          #ifdef END_DEVICE

   \                                 In  segment NEAR_CODE, align 1, keep-with-next
    166          HAL_ISR_FUNCTION( coinPort0Isr, P0INT_VECTOR ) // P0_5配置为投币器电平变化中断引脚，在HAL/Common/hal_drivers.c中进行的引脚初始化
   \                     coinPort0Isr:
    167          {
   \   000000   C0E0         PUSH    A
   \   000002   74F2         MOV     A,#-0xe
   \   000004   12....       LCALL   ?INTERRUPT_ENTER_XSP
   \   000007                ; Saved register size: 14
   \   000007                ; Auto size: 0
    168            myprintf("P0 interrupt\n");
   \   000007                ; Setup parameters for call to function myprintf
   \   000007   7A..         MOV     R2,#`?<Constant "P0 interrupt\\n">` & 0xff
   \   000009   7B..         MOV     R3,#(`?<Constant "P0 interrupt\\n">` >> 8) & 0xff
   \   00000B   12....       LCALL   ??myprintf?relay
    169            HalLedBlink(HAL_LED_1, 5, 50, 250);
   \   00000E                ; Setup parameters for call to function HalLedBlink
   \   00000E   7CFA         MOV     R4,#-0x6
   \   000010   7D00         MOV     R5,#0x0
   \   000012   7B32         MOV     R3,#0x32
   \   000014   7A05         MOV     R2,#0x5
   \   000016   7901         MOV     R1,#0x1
   \   000018   12....       LCALL   ??HalLedBlink?relay
    170            P0IFG &= ~(0x1 << 5);       //端口0中断状态标志
   \   00001B   5389DF       ANL     0x89,#0xdf
    171            P0IF = 0;        //端口0中断标志，0表示无中断未决，1表示有中断未决，需要每次触发之后置0，不然会一直触发中断
   \   00001E   C2C5         CLR     0xc0.5
    172          }
   \   000020   7F01         MOV     R7,#0x1
   \   000022   02....       LJMP    ?INTERRUPT_LEAVE_XSP
   \   000025                REQUIRE P0IFG
   \   000025                REQUIRE _A_IRCON
    173          #endif
    174          
    175          /**
    176          * 自定义任务初始化函数
    177          */

   \                                 In  segment BANKED_CODE, align 1, keep-with-next
    178          void SampleApp_Init( uint8 task_id )
   \                     SampleApp_Init:
    179          {
   \   000000   74F5         MOV     A,#-0xb
   \   000002   12....       LCALL   ?BANKED_ENTER_XDATA
   \   000005                ; Saved register size: 11
   \   000005                ; Auto size: 0
   \   000005   E9           MOV     A,R1
   \   000006   FE           MOV     R6,A
    180            halUARTCfg_t uartConfig;
    181            
    182            SampleApp_TaskID = task_id;
   \   000007   90....       MOV     DPTR,#SampleApp_TaskID
   \   00000A   F0           MOVX    @DPTR,A
    183            SampleApp_NwkState = DEV_INIT;
   \   00000B   90....       MOV     DPTR,#SampleApp_NwkState
   \   00000E   7401         MOV     A,#0x1
   \   000010   F0           MOVX    @DPTR,A
    184            SampleApp_TransID = 0;
   \   000011   90....       MOV     DPTR,#SampleApp_TransID
   \   000014   E4           CLR     A
   \   000015   F0           MOVX    @DPTR,A
    185            
    186            P0SEL &= ~(0x01 << 7);         //设置P0.7口为普通IO
   \   000016   53F37F       ANL     0xf3,#0x7f
    187            P0DIR |= (0x01 << 7);          //设置P0.7口为输出
   \   000019   43FD80       ORL     0xfd,#0x80
    188            SIMULATE_PIN = 0;       // 投币器信号模拟输出引脚
   \   00001C   C287         CLR     0x80.7
    189            
    190          #if defined ( BUILD_ALL_DEVICES )
    191            // The "Demo" target is setup to have BUILD_ALL_DEVICES and HOLD_AUTO_START
    192            // We are looking at a jumper (defined in SampleAppHw.c) to be jumpered
    193            // together - if they are - we will start up a coordinator. Otherwise,
    194            // the device will start as a router.
    195            if ( readCoordinatorJumper() )
    196              zgDeviceLogicalType = ZG_DEVICETYPE_COORDINATOR;
    197            else
    198              zgDeviceLogicalType = ZG_DEVICETYPE_ROUTER;
    199          #endif // BUILD_ALL_DEVICES
    200            
    201          #if defined ( HOLD_AUTO_START )
    202            // HOLD_AUTO_START is a compile option that will surpress ZDApp
    203            //  from starting the device and wait for the application to
    204            //  start the device.
    205            ZDOInitDevice(0);
    206          #endif
    207            
    208            GenericApp_DstAddr.addrMode = (afAddrMode_t)AddrNotPresent;
   \   00001E   90....       MOV     DPTR,#GenericApp_DstAddr + 8
   \   000021   F0           MOVX    @DPTR,A
    209            GenericApp_DstAddr.endPoint = 0;
   \   000022   A3           INC     DPTR
   \   000023   F0           MOVX    @DPTR,A
    210            GenericApp_DstAddr.addr.shortAddr = 0;
   \   000024   90....       MOV     DPTR,#GenericApp_DstAddr
   \   000027   F0           MOVX    @DPTR,A
   \   000028   A3           INC     DPTR
   \   000029   F0           MOVX    @DPTR,A
    211            
    212            // Setup for the periodic message's destination address
    213            // Broadcast to everyone
    214            // 协调器广播发送数据到终端
    215            SampleApp_Periodic_DstAddr.addrMode = (afAddrMode_t)AddrBroadcast;
   \   00002A   90....       MOV     DPTR,#SampleApp_Periodic_DstAddr + 8
   \   00002D   740F         MOV     A,#0xf
   \   00002F   F0           MOVX    @DPTR,A
    216            SampleApp_Periodic_DstAddr.endPoint = SAMPLEAPP_ENDPOINT;
   \   000030   A3           INC     DPTR
   \   000031   7414         MOV     A,#0x14
   \   000033   F0           MOVX    @DPTR,A
    217            SampleApp_Periodic_DstAddr.addr.shortAddr = 0xFFFF; // 广播地址
   \   000034   90....       MOV     DPTR,#SampleApp_Periodic_DstAddr
   \   000037   74FF         MOV     A,#-0x1
   \   000039   F0           MOVX    @DPTR,A
   \   00003A   A3           INC     DPTR
   \   00003B   F0           MOVX    @DPTR,A
    218            
    219            // 终端单播发送数据到协调器
    220            SampleApp_TxAddr.addrMode = (afAddrMode_t)Addr16Bit;
   \   00003C   90....       MOV     DPTR,#SampleApp_TxAddr + 8
   \   00003F   7402         MOV     A,#0x2
   \   000041   F0           MOVX    @DPTR,A
    221            SampleApp_TxAddr.endPoint = SAMPLEAPP_ENDPOINT;
   \   000042   A3           INC     DPTR
   \   000043   7414         MOV     A,#0x14
   \   000045   F0           MOVX    @DPTR,A
    222            SampleApp_TxAddr.addr.shortAddr = 0x00; // 单播协调器地址
   \   000046   90....       MOV     DPTR,#SampleApp_TxAddr
   \   000049   E4           CLR     A
   \   00004A   F0           MOVX    @DPTR,A
   \   00004B   A3           INC     DPTR
   \   00004C   F0           MOVX    @DPTR,A
    223            
    224            // 协调器单播发送到指定地址的终端上  
    225            EndPoint_DstAddr.addrMode = (afAddrMode_t)Addr16Bit;
   \   00004D   90....       MOV     DPTR,#EndPoint_DstAddr + 8
   \   000050   7402         MOV     A,#0x2
   \   000052   F0           MOVX    @DPTR,A
    226            EndPoint_DstAddr.endPoint = SAMPLEAPP_ENDPOINT;
   \   000053   A3           INC     DPTR
   \   000054   7414         MOV     A,#0x14
   \   000056   F0           MOVX    @DPTR,A
    227            EndPoint_DstAddr.addr.shortAddr = 0x00; // 在发送的时候动态修改终端地址
   \   000057   90....       MOV     DPTR,#EndPoint_DstAddr
   \   00005A   E4           CLR     A
   \   00005B   F0           MOVX    @DPTR,A
   \   00005C   A3           INC     DPTR
   \   00005D   F0           MOVX    @DPTR,A
    228            
    229            // Fill out the endpoint description.
    230            SampleApp_epDesc.endPoint = SAMPLEAPP_ENDPOINT; // 端点号
   \   00005E   90....       MOV     DPTR,#SampleApp_epDesc
   \   000061   7414         MOV     A,#0x14
   \   000063   F0           MOVX    @DPTR,A
    231            SampleApp_epDesc.task_id = &SampleApp_TaskID; // 端点对应的任务
   \   000064   A3           INC     DPTR
   \   000065   74..         MOV     A,#SampleApp_TaskID & 0xff
   \   000067   F0           MOVX    @DPTR,A
   \   000068   A3           INC     DPTR
   \   000069   74..         MOV     A,#(SampleApp_TaskID >> 8) & 0xff
   \   00006B   F0           MOVX    @DPTR,A
    232            SampleApp_epDesc.simpleDesc = (SimpleDescriptionFormat_t *)&SampleApp_SimpleDesc; // 简单描述符
   \   00006C   A3           INC     DPTR
   \   00006D   74..         MOV     A,#SampleApp_SimpleDesc & 0xff
   \   00006F   F0           MOVX    @DPTR,A
   \   000070   A3           INC     DPTR
   \   000071   74..         MOV     A,#(SampleApp_SimpleDesc >> 8) & 0xff
   \   000073   F0           MOVX    @DPTR,A
    233            SampleApp_epDesc.latencyReq = noLatencyReqs;  
   \   000074   A3           INC     DPTR
   \   000075   E4           CLR     A
   \   000076   F0           MOVX    @DPTR,A
    234            afRegister( &SampleApp_epDesc ); // 注册一个应用的端点描述符，注册一个新的端点到任务，这样当有新的消息到来时直接发送到指定的任务中
   \   000077                ; Setup parameters for call to function afRegister
   \   000077   7A..         MOV     R2,#SampleApp_epDesc & 0xff
   \   000079   7B..         MOV     R3,#(SampleApp_epDesc >> 8) & 0xff
   \   00007B   12....       LCALL   ??afRegister?relay
    235            
    236            // 绑定按键事件到任务ID
    237            RegisterForKeys( SampleApp_TaskID );
   \   00007E                ; Setup parameters for call to function RegisterForKeys
   \   00007E   90....       MOV     DPTR,#SampleApp_TaskID
   \   000081   E0           MOVX    A,@DPTR
   \   000082   F9           MOV     R1,A
   \   000083   12....       LCALL   ??RegisterForKeys?relay
    238            
    239            // By default, all devices start out in Group 1
    240            SampleApp_Group.ID = 0x0001;
   \   000086   90....       MOV     DPTR,#SampleApp_Group
   \   000089   7401         MOV     A,#0x1
   \   00008B   F0           MOVX    @DPTR,A
   \   00008C   A3           INC     DPTR
   \   00008D   E4           CLR     A
   \   00008E   F0           MOVX    @DPTR,A
    241            osal_memcpy( SampleApp_Group.name, "Group 1", 7 );
   \   00008F                ; Setup parameters for call to function osal_memcpy
   \   00008F   75....       MOV     ?V0 + 0,#`?<Constant "Group 1">` & 0xff
   \   000092   75....       MOV     ?V0 + 1,#(`?<Constant "Group 1">` >> 8) & 0xff
   \   000095   F5..         MOV     ?V0 + 2,A
   \   000097   78..         MOV     R0,#?V0 + 0
   \   000099   12....       LCALL   ?PUSH_XSTACK_I_THREE
   \   00009C   7C07         MOV     R4,#0x7
   \   00009E   7D00         MOV     R5,#0x0
   \   0000A0   7A..         MOV     R2,#(SampleApp_Group + 2) & 0xff
   \   0000A2   7B..         MOV     R3,#((SampleApp_Group + 2) >> 8) & 0xff
   \   0000A4   12....       LCALL   ??osal_memcpy?relay
   \   0000A7   7403         MOV     A,#0x3
   \   0000A9   12....       LCALL   ?DEALLOC_XSTACK8
    242            aps_AddGroup( SAMPLEAPP_ENDPOINT, &SampleApp_Group );
   \   0000AC                ; Setup parameters for call to function aps_AddGroup
   \   0000AC   7A..         MOV     R2,#SampleApp_Group & 0xff
   \   0000AE   7B..         MOV     R3,#(SampleApp_Group >> 8) & 0xff
   \   0000B0   7914         MOV     R1,#0x14
   \   0000B2   12....       LCALL   ??aps_AddGroup?relay
    243            
    244            // 初始化串口
    245            MT_UartInit();                    //串口初始化
   \   0000B5                ; Setup parameters for call to function MT_UartInit
   \   0000B5   12....       LCALL   ??MT_UartInit?relay
    246            MT_UartRegisterTaskID(task_id);   //注册串口任务
   \   0000B8                ; Setup parameters for call to function MT_UartRegisterTaskID
   \   0000B8   EE           MOV     A,R6
   \   0000B9   F9           MOV     R1,A
   \   0000BA   12....       LCALL   ??MT_UartRegisterTaskID?relay
    247            myprintf("UartInit OK\n");
   \   0000BD                ; Setup parameters for call to function myprintf
   \   0000BD   7A..         MOV     R2,#`?<Constant "UartInit OK\\n">` & 0xff
   \   0000BF   7B..         MOV     R3,#(`?<Constant "UartInit OK\\n">` >> 8) & 0xff
   \   0000C1   12....       LCALL   ??myprintf?relay
    248          
    249          #ifdef ZDO_COORDINATOR   
    250            int ret = InitList_L(&LL); // 单链表初始化
    251            if(ret == OVERFLOW) {
    252              myprintf("InitList_L OVERFLOW\n");
    253            }
    254          #endif  
    255          }
   \   0000C4   02....       LJMP    ??Subroutine15_0 & 0xFFFF
   \   0000C7                REQUIRE P0SEL
   \   0000C7                REQUIRE P0DIR
   \   0000C7                REQUIRE _A_P0

   \                                 In  segment BANKED_CODE, align 1, keep-with-next
   \                     ??Subroutine15_0:
   \   000000   7F03         MOV     R7,#0x3
   \   000002   02....       LJMP    ?BANKED_LEAVE_XDATA
    256          
    257          /*********************************************************************
    258          * @fn      SampleApp_ProcessEvent
    259          *
    260          * @brief   Generic Application Task event processor.  This function
    261          *          is called to process all events for the task.  Events
    262          *          include timers, messages and any other user defined events.
    263          *          系统各种事件的处理函数
    264          *
    265          * @param   task_id  - The OSAL assigned task ID.
    266          * @param   events - events to process.  This is a bit map and can
    267          *                   contain more than one event.
    268          *
    269          * @return  none
    270          */

   \                                 In  segment BANKED_CODE, align 1, keep-with-next
    271          uint16 SampleApp_ProcessEvent( uint8 task_id, uint16 events )
   \                     SampleApp_ProcessEvent:
    272          {
   \   000000   74F4         MOV     A,#-0xc
   \   000002   12....       LCALL   ?BANKED_ENTER_XDATA
   \   000005                ; Saved register size: 12
   \   000005                ; Auto size: 3
   \   000005   74FD         MOV     A,#-0x3
   \   000007   12....       LCALL   ?ALLOC_XSTACK8
   \   00000A   8A..         MOV     ?V0 + 0,R2
   \   00000C   8B..         MOV     ?V0 + 1,R3
    273            afIncomingMSGPacket_t *MSGpkt;
    274            afDataConfirm_t *afDataConfirm;
    275            ZStatus_t sentStatus;
    276            (void)task_id;  // Intentionally unreferenced parameter
    277            
    278            if ( events & SYS_EVENT_MSG )
   \   00000E   EB           MOV     A,R3
   \   00000F   5480         ANL     A,#0x80
   \   000011   7003         JNZ     $+5
   \   000013   02....       LJMP    ??SampleApp_ProcessEvent_0 & 0xFFFF
    279            {
    280              MSGpkt = (afIncomingMSGPacket_t *)osal_msg_receive( SampleApp_TaskID );
   \   000016                ; Setup parameters for call to function osal_msg_receive
   \   000016   12....       LCALL   ?Subroutine4 & 0xFFFF
    281              uint8 coodStarted[3] = {'#', 0x45, '@'};
   \                     ??CrossCallReturnLabel_2:
   \   000019   90....       MOV     DPTR,#`?<Constant {35, 69, 64}>`
   \   00001C   C082         PUSH    DPL
   \   00001E   85..82       MOV     DPL,?XSP + 0
   \   000021   85..83       MOV     DPH,?XSP + 1
   \   000024   AC82         MOV     R4,DPL
   \   000026   AD83         MOV     R5,DPH
   \   000028   7583..       MOV     DPH,#(`?<Constant {35, 69, 64}>` >> 8) & 0xff
   \   00002B   D082         POP     DPL
   \   00002D   7403         MOV     A,#0x3
   \   00002F   12....       LCALL   ?MOVE_LONG8_XDATA_XDATA
   \   000032   801A         SJMP    ??CrossCallReturnLabel_3
    282              while ( MSGpkt )
    283              {      
    284                switch ( MSGpkt->hdr.event )
    285                {
    286                  // 系统任务事件里面的接收数据确认消息
    287                  case AF_DATA_CONFIRM_CMD:          
    288                    afDataConfirm = (afDataConfirm_t *)MSGpkt;
    289                    sentStatus = afDataConfirm->hdr.status;
    290                    // Action taken when confirmation is received.
    291                    if ( sentStatus != ZSuccess )
    292                    {
    293                      myprintf("ERROR:AF_DATA_CONFIRM_CMD failed\n");
    294                    }
    295                    break;
    296                  
    297                    // 接收到一个按键事件
    298                  case KEY_CHANGE:
    299                    SampleApp_HandleKeys( ((keyChange_t *)MSGpkt)->state, ((keyChange_t *)MSGpkt)->keys );
    300                    break;
    301                    
    302                    // 无线网络收到数据
    303                  case AF_INCOMING_MSG_CMD:
    304                    SampleApp_MessageMSGCB( MSGpkt );
    305                    break;
    306                    
    307                    // 设备组网或者入网成功，可以发送一个消息，并开启一个心跳事件的定时器
    308                  case ZDO_STATE_CHANGE:
    309                    SampleApp_NwkState = (devStates_t)(MSGpkt->hdr.status); // 另外MSGpkt->srcAddr.addr.shortAddr;可用于获取终端节点的网络短地址          
    310                    
    311                    // 判断不同的设备类型
    312                    if(SampleApp_NwkState == DEV_ZB_COORD) { // 协调器组建好网络            
    313                      mySendByteBuf(coodStarted, 3); // 向上位机发送已经启动消息            
    314                      osal_start_timerEx( SampleApp_TaskID, SAMPLEAPP_SEND_PERIODIC_MSG_EVT, SAMPLEAPP_SEND_PERIODIC_MSG_TIMEOUT ); // 开启定时器
    315                      HalLedBlink(HAL_LED_2, 3, 50, 250);
    316                    } else if(SampleApp_NwkState == DEV_ROUTER) { // 路由器加入网络
    317                      HalLedBlink(HAL_LED_2, 3, 50, 250);
    318                    } else if(SampleApp_NwkState == DEV_END_DEVICE) { // 终端加入网络
    319                      AfSendAddrInfo(0x71); // 向协调器发送入网消息
    320                      HalLedBlink(HAL_LED_2, 3, 50, 250);
    321                      osal_start_timerEx( SampleApp_TaskID, SAMPLEAPP_SEND_PERIODIC_MSG_EVT, SAMPLEAPP_SEND_PERIODIC_MSG_TIMEOUT ); // 开启定时器
    322                    }
    323                    break;
    324                    
    325                  default:        
    326                    myprintf("unknown pkg-event = 0x%x\n", MSGpkt->hdr.event);      
   \                     ??SampleApp_ProcessEvent_1:
   \   000034                ; Setup parameters for call to function myprintf
   \   000034   12....       LCALL   ?Subroutine8 & 0xFFFF
   \                     ??CrossCallReturnLabel_8:
   \   000037   12....       LCALL   ?PUSH_XSTACK_I_TWO
   \   00003A   7A..         MOV     R2,#`?<Constant "unknown pkg-event = 0...">` & 0xff
   \   00003C   7B..         MOV     R3,#(`?<Constant "unknown pkg-event = 0...">` >> 8) & 0xff
   \   00003E   12....       LCALL   ?Subroutine10 & 0xFFFF
   \                     ??CrossCallReturnLabel_12:
   \   000041   12....       LCALL   ?DEALLOC_XSTACK8
    327                    break;
    328                }      
    329                
    330                osal_msg_deallocate( (uint8 *)MSGpkt );// Release the memory
   \                     ??SampleApp_ProcessEvent_2:
   \   000044                ; Setup parameters for call to function osal_msg_deallocate
   \   000044   EE           MOV     A,R6
   \   000045   FA           MOV     R2,A
   \   000046   EF           MOV     A,R7
   \   000047   FB           MOV     R3,A
   \   000048   12....       LCALL   ??osal_msg_deallocate?relay
    331                MSGpkt = (afIncomingMSGPacket_t *)osal_msg_receive( SampleApp_TaskID );// Next - if one is available
   \   00004B                ; Setup parameters for call to function osal_msg_receive
   \   00004B   12....       LCALL   ?Subroutine4 & 0xFFFF
   \                     ??CrossCallReturnLabel_3:
   \   00004E   EE           MOV     A,R6
   \   00004F   4F           ORL     A,R7
   \   000050   7003         JNZ     $+5
   \   000052   02....       LJMP    ??SampleApp_ProcessEvent_3 & 0xFFFF
   \   000055   8E82         MOV     DPL,R6
   \   000057   8F83         MOV     DPH,R7
   \   000059   E0           MOVX    A,@DPTR
   \   00005A   24E6         ADD     A,#-0x1a
   \   00005C   602B         JZ      ??SampleApp_ProcessEvent_4
   \   00005E   245A         ADD     A,#0x5a
   \   000060   6015         JZ      ??SampleApp_ProcessEvent_5
   \   000062   24EF         ADD     A,#-0x11
   \   000064   602C         JZ      ??SampleApp_ProcessEvent_6
   \   000066   24D4         ADD     A,#-0x2c
   \   000068   70CA         JNZ     ??SampleApp_ProcessEvent_1
   \   00006A   A3           INC     DPTR
   \   00006B   E0           MOVX    A,@DPTR
   \   00006C   60D6         JZ      ??SampleApp_ProcessEvent_2
   \   00006E                ; Setup parameters for call to function myprintf
   \   00006E   7A..         MOV     R2,#`?<Constant "ERROR:AF_DATA_CONFIRM...">` & 0xff
   \   000070   7B..         MOV     R3,#(`?<Constant "ERROR:AF_DATA_CONFIRM...">` >> 8) & 0xff
   \   000072   12....       LCALL   ??myprintf?relay
   \   000075   80CD         SJMP    ??SampleApp_ProcessEvent_2
   \                     ??SampleApp_ProcessEvent_5:
   \   000077                ; Setup parameters for call to function SampleApp_HandleKeys
   \   000077   A3           INC     DPTR
   \   000078   A3           INC     DPTR
   \   000079   A3           INC     DPTR
   \   00007A   E0           MOVX    A,@DPTR
   \   00007B   FA           MOV     R2,A
   \   00007C   8E82         MOV     DPL,R6
   \   00007E   8F83         MOV     DPH,R7
   \   000080   A3           INC     DPTR
   \   000081   A3           INC     DPTR
   \   000082   E0           MOVX    A,@DPTR
   \   000083   F9           MOV     R1,A
   \   000084   12....       LCALL   ??SampleApp_HandleKeys?relay
   \   000087   80BB         SJMP    ??SampleApp_ProcessEvent_2
   \                     ??SampleApp_ProcessEvent_4:
   \   000089                ; Setup parameters for call to function SampleApp_MessageMSGCB
   \   000089   EE           MOV     A,R6
   \   00008A   FA           MOV     R2,A
   \   00008B   EF           MOV     A,R7
   \   00008C   FB           MOV     R3,A
   \   00008D   12....       LCALL   ??SampleApp_MessageMSGCB?relay
   \   000090   80B2         SJMP    ??SampleApp_ProcessEvent_2
   \                     ??SampleApp_ProcessEvent_6:
   \   000092   A3           INC     DPTR
   \   000093   E0           MOVX    A,@DPTR
   \   000094   90....       MOV     DPTR,#SampleApp_NwkState
   \   000097   F0           MOVX    @DPTR,A
   \   000098   6409         XRL     A,#0x9
   \   00009A   7023         JNZ     ??SampleApp_ProcessEvent_7
   \   00009C                ; Setup parameters for call to function mySendByteBuf
   \   00009C   7C03         MOV     R4,#0x3
   \   00009E   7D00         MOV     R5,#0x0
   \   0000A0   85..82       MOV     DPL,?XSP + 0
   \   0000A3   85..83       MOV     DPH,?XSP + 1
   \   0000A6   AA82         MOV     R2,DPL
   \   0000A8   AB83         MOV     R3,DPH
   \   0000AA   12....       LCALL   ??mySendByteBuf?relay
   \   0000AD                ; Setup parameters for call to function osal_start_timerEx
   \   0000AD   12....       LCALL   ?Subroutine5 & 0xFFFF
   \   0000B0                ; Setup parameters for call to function HalLedBlink
   \                     ??CrossCallReturnLabel_21:
   \   0000B0   7CFA         MOV     R4,#-0x6
   \   0000B2   7D00         MOV     R5,#0x0
   \   0000B4   7B32         MOV     R3,#0x32
   \   0000B6   7A03         MOV     R2,#0x3
   \   0000B8   7902         MOV     R1,#0x2
   \   0000BA   12....       LCALL   ??HalLedBlink?relay
   \   0000BD   8085         SJMP    ??SampleApp_ProcessEvent_2
   \                     ??SampleApp_ProcessEvent_7:
   \   0000BF   E0           MOVX    A,@DPTR
   \   0000C0   6407         XRL     A,#0x7
   \   0000C2   60EC         JZ      ??CrossCallReturnLabel_21
   \   0000C4                ; Setup parameters for call to function HalLedBlink
   \   0000C4   E0           MOVX    A,@DPTR
   \   0000C5   6406         XRL     A,#0x6
   \   0000C7   6003         JZ      $+5
   \   0000C9   02....       LJMP    ??SampleApp_ProcessEvent_2 & 0xFFFF
   \   0000CC                ; Setup parameters for call to function AfSendAddrInfo
   \   0000CC   7971         MOV     R1,#0x71
   \   0000CE   12....       LCALL   ??AfSendAddrInfo?relay
   \   0000D1                ; Setup parameters for call to function HalLedBlink
   \   0000D1   7CFA         MOV     R4,#-0x6
   \   0000D3   7D00         MOV     R5,#0x0
   \   0000D5   7B32         MOV     R3,#0x32
   \   0000D7   7A03         MOV     R2,#0x3
   \   0000D9   7902         MOV     R1,#0x2
   \   0000DB   12....       LCALL   ??HalLedBlink?relay
   \   0000DE                ; Setup parameters for call to function osal_start_timerEx
   \   0000DE   12....       LCALL   ?Subroutine5 & 0xFFFF
    332              }
   \                     ??CrossCallReturnLabel_22:
   \   0000E1   02....       LJMP    ??SampleApp_ProcessEvent_2 & 0xFFFF
    333              
    334              // return unprocessed events
    335              return (events ^ SYS_EVENT_MSG);
   \                     ??SampleApp_ProcessEvent_3:
   \   0000E4   AA..         MOV     R2,?V0 + 0
   \   0000E6   E5..         MOV     A,?V0 + 1
   \   0000E8   6480         XRL     A,#0x80
   \   0000EA   FB           MOV     R3,A
   \   0000EB   807C         SJMP    ??SampleApp_ProcessEvent_8
    336            }
    337            
    338            // 接收到一个定时器事件
    339            if ( events & SAMPLEAPP_SEND_PERIODIC_MSG_EVT )
   \                     ??SampleApp_ProcessEvent_0:
   \   0000ED   EA           MOV     A,R2
   \   0000EE   A2E0         MOV     C,0xE0 /* A   */.0
   \   0000F0   5015         JNC     ??SampleApp_ProcessEvent_9
    340            {
    341          #ifdef ZDO_COORDINATOR // 协调器
    342              SampleApp_SendHeartBeatMessageCoor(); // 协调器心跳功能函数，同时检测掉线的终端，将掉线信息发送到服务器
    343              osal_start_timerEx( SampleApp_TaskID, SAMPLEAPP_SEND_PERIODIC_MSG_EVT, SAMPLEAPP_SEND_PERIODIC_MSG_TIMEOUT); // 1000ms再次开启定时器
    344          #endif
    345              
    346          #ifdef END_DEVICE // 终端设备
    347              SampleApp_SendHeartBeatMessageEnd(); // 终端心跳功能函数
   \   0000F2                ; Setup parameters for call to function AfSendAddrInfo
   \   0000F2   7971         MOV     R1,#0x71
   \   0000F4   12....       LCALL   ??AfSendAddrInfo?relay
    348              osal_start_timerEx( SampleApp_TaskID, SAMPLEAPP_SEND_PERIODIC_MSG_EVT, SAMPLEAPP_SEND_PERIODIC_MSG_TIMEOUT*2); // 2000ms再次开启定时器
   \   0000F7                ; Setup parameters for call to function osal_start_timerEx
   \   0000F7   7CD0         MOV     R4,#-0x30
   \   0000F9   7D07         MOV     R5,#0x7
   \   0000FB   12....       LCALL   ??Subroutine13_0 & 0xFFFF
    349          #endif
    350              
    351              return (events ^ SAMPLEAPP_SEND_PERIODIC_MSG_EVT); // 清除此已经处理事件标志位
   \                     ??CrossCallReturnLabel_23:
   \   0000FE   E5..         MOV     A,?V0 + 0
   \   000100   6401         XRL     A,#0x1
   \                     ??SampleApp_ProcessEvent_10:
   \   000102   FA           MOV     R2,A
   \   000103   AB..         MOV     R3,?V0 + 1
   \   000105   8062         SJMP    ??SampleApp_ProcessEvent_8
    352            }  
    353          #ifdef END_DEVICE  // 接收到模拟电平变化定时器事件
    354            else if(events & SAMPLEAPP_SIMULATE_COIN_MSG_EVT) {
   \                     ??SampleApp_ProcessEvent_9:
   \   000107   5403         ANL     A,#0x3
   \   000109   604B         JZ      ??SampleApp_ProcessEvent_11
    355              myprintf("Get COIN_MSG_EVT, NeedCoinDelivered = %d\n", NeedCoinDelivered);
   \   00010B                ; Setup parameters for call to function myprintf
   \   00010B   90....       MOV     DPTR,#NeedCoinDelivered
   \   00010E   E0           MOVX    A,@DPTR
   \   00010F   F5..         MOV     ?V0 + 2,A
   \   000111   33           RLC     A
   \   000112   95E0         SUBB    A,0xE0 /* A   */
   \   000114   F5..         MOV     ?V0 + 3,A
   \   000116   78..         MOV     R0,#?V0 + 2
   \   000118   12....       LCALL   ?PUSH_XSTACK_I_TWO
   \   00011B   7A..         MOV     R2,#`?<Constant "Get COIN_MSG_EVT, Nee...">` & 0xff
   \   00011D   7B..         MOV     R3,#(`?<Constant "Get COIN_MSG_EVT, Nee...">` >> 8) & 0xff
   \   00011F   12....       LCALL   ?Subroutine10 & 0xFFFF
   \                     ??CrossCallReturnLabel_13:
   \   000122   12....       LCALL   ?DEALLOC_XSTACK8
    356              if(SIMULATE_PIN == 0) {
   \   000125   A287         MOV     C,0x80.7
   \   000127   4004         JC      ??SampleApp_ProcessEvent_12
    357                SIMULATE_PIN = 1; // 产生一个上升沿
   \   000129   D287         SETB    0x80.7
   \   00012B   800C         SJMP    ??SampleApp_ProcessEvent_13
    358              } else if(SIMULATE_PIN == 1) {
   \                     ??SampleApp_ProcessEvent_12:
   \   00012D   A287         MOV     C,0x80.7
   \   00012F   5008         JNC     ??SampleApp_ProcessEvent_13
    359                SIMULATE_PIN = 0; // 完整产生了一个脉冲
   \   000131   C287         CLR     0x80.7
    360                NeedCoinDelivered--;
   \   000133   90....       MOV     DPTR,#NeedCoinDelivered
   \   000136   E0           MOVX    A,@DPTR
   \   000137   14           DEC     A
   \   000138   F0           MOVX    @DPTR,A
    361              }
    362              if(NeedCoinDelivered > 0) { // 还需要开启定时器
   \                     ??SampleApp_ProcessEvent_13:
   \   000139   90....       MOV     DPTR,#NeedCoinDelivered
   \   00013C   E0           MOVX    A,@DPTR
   \   00013D   C3           CLR     C
   \   00013E   9401         SUBB    A,#0x1
   \   000140   A2D2         MOV     C,0xD0 /* PSW */.2
   \   000142   65D0         XRL     A,PSW
   \   000144   33           RLC     A
   \   000145   4009         JC      ??CrossCallReturnLabel_24
    363                osal_start_timerEx( SampleApp_TaskID, SAMPLEAPP_SIMULATE_COIN_MSG_EVT, 10);
   \   000147                ; Setup parameters for call to function osal_start_timerEx
   \   000147   7C0A         MOV     R4,#0xa
   \   000149   7D00         MOV     R5,#0x0
   \   00014B   7A03         MOV     R2,#0x3
   \   00014D   12....       LCALL   ??Subroutine14_0 & 0xFFFF
    364              }    
    365              return (events ^ SAMPLEAPP_SIMULATE_COIN_MSG_EVT);
   \                     ??CrossCallReturnLabel_24:
   \   000150   E5..         MOV     A,?V0 + 0
   \   000152   6403         XRL     A,#0x3
   \   000154   80AC         SJMP    ??SampleApp_ProcessEvent_10
    366            }
    367          #endif  
    368            myprintf("Discard unknown events = %d\n", events);
   \                     ??SampleApp_ProcessEvent_11:
   \   000156                ; Setup parameters for call to function myprintf
   \   000156   78..         MOV     R0,#?V0 + 0
   \   000158   12....       LCALL   ?PUSH_XSTACK_I_TWO
   \   00015B   7A..         MOV     R2,#`?<Constant "Discard unknown event...">` & 0xff
   \   00015D   7B..         MOV     R3,#(`?<Constant "Discard unknown event...">` >> 8) & 0xff
   \   00015F   12....       LCALL   ?Subroutine10 & 0xFFFF
   \                     ??CrossCallReturnLabel_14:
   \   000162   12....       LCALL   ?DEALLOC_XSTACK8
    369            return 0;
   \   000165   7A00         MOV     R2,#0x0
   \   000167   7B00         MOV     R3,#0x0
   \                     ??SampleApp_ProcessEvent_8:
   \   000169   7403         MOV     A,#0x3
   \   00016B   12....       LCALL   ?DEALLOC_XSTACK8
   \   00016E   7F04         MOV     R7,#0x4
   \   000170   02....       LJMP    ?BANKED_LEAVE_XDATA
   \   000173                REQUIRE _A_P0
    370          }

   \                                 In  segment BANKED_CODE, align 1, keep-with-next
   \                     ?Subroutine4:
   \   000000   90....       MOV     DPTR,#SampleApp_TaskID
   \   000003   E0           MOVX    A,@DPTR
   \   000004   F9           MOV     R1,A
   \   000005   12....       LCALL   ??osal_msg_receive?relay
   \   000008   8A..         MOV     ?V0 + 2,R2
   \   00000A   8B..         MOV     ?V0 + 3,R3
   \   00000C   AE..         MOV     R6,?V0 + 2
   \   00000E   AF..         MOV     R7,?V0 + 3
   \   000010   22           RET

   \                                 In  segment BANKED_CODE, align 1, keep-with-next
   \                     ?Subroutine5:
   \   000000   7CE8         MOV     R4,#-0x18
   \   000002   7D03         MOV     R5,#0x3
   \   000004                REQUIRE ??Subroutine13_0
   \   000004                ; // Fall through to label ??Subroutine13_0

   \                                 In  segment BANKED_CODE, align 1, keep-with-next
   \                     ??Subroutine13_0:
   \   000000   7A01         MOV     R2,#0x1
   \   000002                REQUIRE ??Subroutine14_0
   \   000002                ; // Fall through to label ??Subroutine14_0

   \                                 In  segment BANKED_CODE, align 1, keep-with-next
   \                     ??Subroutine14_0:
   \   000000   7B00         MOV     R3,#0x0
   \   000002   90....       MOV     DPTR,#SampleApp_TaskID
   \   000005   E0           MOVX    A,@DPTR
   \   000006   F9           MOV     R1,A
   \   000007   12....       LCALL   ??osal_start_timerEx?relay
   \   00000A   22           RET

   \                                 In  segment BANKED_CODE, align 1, keep-with-next
   \                     ?Subroutine10:
   \   000000   12....       LCALL   ??myprintf?relay
   \   000003   7402         MOV     A,#0x2
   \   000005   22           RET

   \                                 In  segment BANKED_CODE, align 1, keep-with-next
   \                     ?Subroutine8:
   \   000000   E0           MOVX    A,@DPTR
   \   000001   F5..         MOV     ?V0 + 2,A
   \   000003   75..00       MOV     ?V0 + 3,#0x0
   \   000006   78..         MOV     R0,#?V0 + 2
   \   000008   22           RET
    371          
    372          /*********************************************************************
    373          * Event Generation Functions
    374          */
    375          /*********************************************************************
    376          * @fn      SampleApp_HandleKeys
    377          *
    378          * @brief   按键事件处理函数
    379          *
    380          * @param   shift - true if in shift/alt.
    381          * @param   keys - bit field for key events. Valid entries:
    382          *                 HAL_KEY_SW_2
    383          *                 HAL_KEY_SW_1
    384          *
    385          * @return  none
    386          */

   \                                 In  segment BANKED_CODE, align 1, keep-with-next
    387          void SampleApp_HandleKeys( uint8 shift, uint8 keys )
   \                     SampleApp_HandleKeys:
    388          {
   \   000000   74F7         MOV     A,#-0x9
   \   000002   12....       LCALL   ?BANKED_ENTER_XDATA
   \   000005                ; Saved register size: 9
   \   000005                ; Auto size: 0
   \   000005   EA           MOV     A,R2
    389            (void)shift;  // Intentionally unreferenced parameter
    390          #ifdef ZDO_COORDINATOR       //按协调器S1才发数据  
    391            if ( keys & HAL_KEY_SW_6 ){ // 按键S1,以广播方式发数据    
    392              SampleApp_SendPeriodicMessage(1);
    393            } else if(keys & HAL_KEY_SW_1) { // 按键S2
    394              SampleApp_SendPeriodicMessage(2);
    395            }
    396          #endif
    397          
    398          #ifdef END_DEVICE
    399            if ( keys & HAL_KEY_SW_6 ){
   \   000006   A2E5         MOV     C,0xE0 /* A   */.5
   \   000008   5005         JNC     ??SampleApp_HandleKeys_0
    400              AfSendAddrInfo(0x51); // 只用在路由和终端设备上，向协调器上传自身地址，协调器收到此消息后打印出地址
   \   00000A                ; Setup parameters for call to function AfSendAddrInfo
   \   00000A   7951         MOV     R1,#0x51
   \   00000C   12....       LCALL   ??AfSendAddrInfo?relay
    401            }
    402          #endif
    403          }
   \                     ??SampleApp_HandleKeys_0:
   \   00000F                REQUIRE ?Subroutine1
   \   00000F                ; // Fall through to label ?Subroutine1

   \                                 In  segment BANKED_CODE, align 1, keep-with-next
   \                     ?Subroutine1:
   \   000000   7F01         MOV     R7,#0x1
   \   000002   02....       LJMP    ?BANKED_LEAVE_XDATA
    404          
    405          /*********************************************************************
    406          * LOCAL FUNCTIONS
    407          */
    408          
    409          /*********************************************************************
    410          * @fn      SampleApp_MessageMSGCB
    411          *
    412          * @brief   Data message processor callback.  This function processes
    413          *          any incoming data - probably from other devices.  So, based
    414          *          on cluster ID, perform the intended action.
    415          *
    416          * @param   none
    417          *
    418          * @return  none
    419          */
    420          #define INIT_LEFT_SEC 5

   \                                 In  segment XDATA_Z, align 1, keep-with-next
    421          uint16 recvTestMsgCount = 0;
   \                     recvTestMsgCount:
   \   000000                DS 2
   \   000002                REQUIRE __INIT_XDATA_Z

   \                                 In  segment BANKED_CODE, align 1, keep-with-next
    422          void SampleApp_MessageMSGCB( afIncomingMSGPacket_t *pkt )
   \                     SampleApp_MessageMSGCB:
    423          {
   \   000000   74F7         MOV     A,#-0x9
   \   000002   12....       LCALL   ?BANKED_ENTER_XDATA
   \   000005                ; Saved register size: 9
   \   000005                ; Auto size: 0
   \   000005   EA           MOV     A,R2
   \   000006   FE           MOV     R6,A
   \   000007   EB           MOV     A,R3
   \   000008   FF           MOV     R7,A
    424          #ifndef ROUTER_EB  
    425            uint8 data;
    426            uint8 cmd;
    427          #endif  
    428          #ifdef ZDO_COORDINATOR  
    429            int8 ret = 0;
    430          #endif  
    431            
    432            switch ( pkt->clusterId )
   \   000009   8E82         MOV     DPL,R6
   \   00000B   8F83         MOV     DPH,R7
   \   00000D   A3           INC     DPTR
   \   00000E   A3           INC     DPTR
   \   00000F   A3           INC     DPTR
   \   000010   A3           INC     DPTR
   \   000011   E0           MOVX    A,@DPTR
   \   000012   6401         XRL     A,#0x1
   \   000014   7002         JNZ     ??SampleApp_MessageMSGCB_0
   \   000016   A3           INC     DPTR
   \   000017   E0           MOVX    A,@DPTR
   \                     ??SampleApp_MessageMSGCB_0:
   \   000018   706F         JNZ     ??SampleApp_MessageMSGCB_1
   \   00001A   12....       LCALL   ?Subroutine9 & 0xFFFF
   \                     ??CrossCallReturnLabel_10:
   \   00001D   F9           MOV     R1,A
   \   00001E   8882         MOV     DPL,R0
   \   000020   8983         MOV     DPH,R1
   \   000022   A3           INC     DPTR
   \   000023   E0           MOVX    A,@DPTR
   \   000024   FA           MOV     R2,A
    433            {    
    434            case SAMPLEAPP_PERIODIC_CLUSTERID: // 协调器在发送数据的时候指定的此消息对应的命令字，即表示哪种类型的控制命令
    435          //协调器接收到终端的无线数据 
    436          #ifdef ZDO_COORDINATOR
    437              data = pkt->cmd.Data[0];
    438              cmd = pkt->cmd.Data[1];
    439              if(data == '#') {
    440                if(cmd == 0x71 && pkt->cmd.Data[12] == '@') { // 接收到终端上传的短地址和IEEE地址
    441                  ret = checkEPInList(LL, pkt->cmd.Data + 4); // 使用IEEE地址检查终端是否已经在链表中
    442                  if(ret == -1) { // 如果当前终端没有在列表中        
    443                    ListInsert_L(LL, ListLength_L(LL)+1, pkt->cmd.Data[2], pkt->cmd.Data[3], &(pkt->cmd.Data[4]), INIT_LEFT_SEC); // 添加一个线性列表元素到链表尾部 
    444                    myprintf("Insert new EP in list\n");
    445                  } else { // 更新终端所在节点的在线时长，标记为在线状态
    446                    updateListEleStatus(LL, ret, INIT_LEFT_SEC);
    447                    myprintf("Already In List, update()\n");
    448                  }
    449                  // myprintf("length = %d\n", ListLength_L(LL));
    450                } else if(cmd == 0x72 && pkt->cmd.Data[10] == '@') { // 收到终端回复的确认收到投币命令
    451                  mySendByteBuf(pkt->cmd.Data, 11); // 转发回复消息到上位机
    452                } else if(cmd == 0x51 && pkt->cmd.Data[12] == '@') { // 终端按键S1上传的长短地址信息
    453                  printAddrInfoHex(pkt->cmd.Data+2, 10);
    454                  mySendByteBuf(pkt->cmd.Data, 13);        
    455                }
    456              }
    457          #endif    
    458          #ifdef END_DEVICE //终端接收数据处理
    459              data = pkt->cmd.Data[0];
    460              cmd = pkt->cmd.Data[1];
    461              if(data == '#')
   \   000025   8882         MOV     DPL,R0
   \   000027   8983         MOV     DPH,R1
   \   000029   E0           MOVX    A,@DPTR
   \   00002A   6423         XRL     A,#0x23
   \   00002C   705B         JNZ     ??SampleApp_MessageMSGCB_1
    462              {
    463                if(cmd == 0x81 && pkt->cmd.Data[3] == '@') { // 收到投递指定币数的消息
   \   00002E   7481         MOV     A,#-0x7f
   \   000030   6A           XRL     A,R2
   \   000031   7023         JNZ     ??SampleApp_MessageMSGCB_2
   \   000033   12....       LCALL   ?Subroutine6 & 0xFFFF
   \                     ??CrossCallReturnLabel_4:
   \   000036   7051         JNZ     ??SampleApp_MessageMSGCB_1
    464                  // 回复已经收到投币命令0x72
    465                  AfReplyGetCoinCmd(); 
   \   000038                ; Setup parameters for call to function AfReplyGetCoinCmd
   \   000038   12....       LCALL   ??AfReplyGetCoinCmd?relay
    466                  
    467                  NeedCoinDelivered = pkt->cmd.Data[2]; // 开始模拟投币信号
   \   00003B   12....       LCALL   ?Subroutine9 & 0xFFFF
   \                     ??CrossCallReturnLabel_11:
   \   00003E   F583         MOV     DPH,A
   \   000040   8882         MOV     DPL,R0
   \   000042   A3           INC     DPTR
   \   000043   A3           INC     DPTR
   \   000044   E0           MOVX    A,@DPTR
   \   000045   90....       MOV     DPTR,#NeedCoinDelivered
   \   000048   F0           MOVX    @DPTR,A
    468                  SIMULATE_PIN = 0; // 初始低电平
   \   000049   C287         CLR     0x80.7
    469                  osal_start_timerEx( SampleApp_TaskID, SAMPLEAPP_SIMULATE_COIN_MSG_EVT, 10); // 产生定时器事件
   \   00004B                ; Setup parameters for call to function osal_start_timerEx
   \   00004B   7C0A         MOV     R4,#0xa
   \   00004D   7D00         MOV     R5,#0x0
   \   00004F   7A03         MOV     R2,#0x3
   \   000051   12....       LCALL   ??Subroutine14_0 & 0xFFFF
    470                } else if(cmd == 0x31 && pkt->cmd.Data[3] == '@') { // LED2闪灯测试命令
   \                     ??CrossCallReturnLabel_25:
   \   000054   8033         SJMP    ??SampleApp_MessageMSGCB_1
   \                     ??SampleApp_MessageMSGCB_2:
   \   000056   7431         MOV     A,#0x31
   \   000058   6A           XRL     A,R2
   \   000059   702E         JNZ     ??SampleApp_MessageMSGCB_1
   \   00005B   12....       LCALL   ?Subroutine6 & 0xFFFF
   \                     ??CrossCallReturnLabel_5:
   \   00005E   7029         JNZ     ??SampleApp_MessageMSGCB_1
    471                  HalLedBlink(HAL_LED_1, 1, 50, 500);
   \   000060                ; Setup parameters for call to function HalLedBlink
   \   000060   7CF4         MOV     R4,#-0xc
   \   000062   7D01         MOV     R5,#0x1
   \   000064   7B32         MOV     R3,#0x32
   \   000066   7A01         MOV     R2,#0x1
   \   000068   7901         MOV     R1,#0x1
   \   00006A   12....       LCALL   ??HalLedBlink?relay
    472          #ifdef LCD_SUPPORTED 
    473                  recvTestMsgCount++;
   \   00006D   90....       MOV     DPTR,#recvTestMsgCount
   \   000070   12....       LCALL   ?Subroutine7 & 0xFFFF
    474                  HalLcdWriteString("Recv:", HAL_LCD_LINE_5);
   \                     ??CrossCallReturnLabel_6:
   \   000073                ; Setup parameters for call to function HalLcdWriteString
   \   000073   7904         MOV     R1,#0x4
   \   000075   7A..         MOV     R2,#`?<Constant "Recv:">` & 0xff
   \   000077   7B..         MOV     R3,#(`?<Constant "Recv:">` >> 8) & 0xff
   \   000079   12....       LCALL   ??HalLcdWriteString?relay
    475                  convertHexToStr(recvTestMsgCount, HAL_LCD_LINE_6);
   \   00007C                ; Setup parameters for call to function convertHexToStr
   \   00007C   7905         MOV     R1,#0x5
   \   00007E   90....       MOV     DPTR,#recvTestMsgCount
   \   000081   E0           MOVX    A,@DPTR
   \   000082   FA           MOV     R2,A
   \   000083   A3           INC     DPTR
   \   000084   E0           MOVX    A,@DPTR
   \   000085   FB           MOV     R3,A
   \   000086   12....       LCALL   ??convertHexToStr?relay
    476          #endif        
    477                }
    478              }        
    479          #endif    
    480              break;
    481              
    482            default:
    483              break;
    484            }
    485          }
   \                     ??SampleApp_MessageMSGCB_1:
   \   000089   02....       LJMP    ?Subroutine1 & 0xFFFF
   \   00008C                REQUIRE _A_P0

   \                                 In  segment BANKED_CODE, align 1, keep-with-next
   \                     ?Subroutine9:
   \   000000   12....       LCALL   ?Subroutine12 & 0xFFFF
   \                     ??CrossCallReturnLabel_20:
   \   000003   E0           MOVX    A,@DPTR
   \   000004   F8           MOV     R0,A
   \   000005   A3           INC     DPTR
   \   000006   E0           MOVX    A,@DPTR
   \   000007   22           RET

   \                                 In  segment BANKED_CODE, align 1, keep-with-next
   \                     ?Subroutine6:
   \   000000   12....       LCALL   ?Subroutine12 & 0xFFFF
   \                     ??CrossCallReturnLabel_19:
   \   000003   A3           INC     DPTR
   \   000004   E0           MOVX    A,@DPTR
   \   000005   F583         MOV     DPH,A
   \   000007   8882         MOV     DPL,R0
   \   000009   A3           INC     DPTR
   \   00000A   A3           INC     DPTR
   \   00000B   A3           INC     DPTR
   \   00000C   E0           MOVX    A,@DPTR
   \   00000D   6440         XRL     A,#0x40
   \   00000F   22           RET

   \                                 In  segment BANKED_CODE, align 1, keep-with-next
   \                     ?Subroutine12:
   \   000000   EE           MOV     A,R6
   \   000001   2422         ADD     A,#0x22
   \   000003   F582         MOV     DPL,A
   \   000005   EF           MOV     A,R7
   \   000006   3400         ADDC    A,#0x0
   \   000008   F583         MOV     DPH,A
   \   00000A   22           RET

   \                                 In  segment BANKED_CODE, align 1, keep-with-next
   \                     ?Subroutine7:
   \   000000   E0           MOVX    A,@DPTR
   \   000001   2401         ADD     A,#0x1
   \   000003   F0           MOVX    @DPTR,A
   \   000004   A3           INC     DPTR
   \   000005   E0           MOVX    A,@DPTR
   \   000006   3400         ADDC    A,#0x0
   \   000008   F0           MOVX    @DPTR,A
   \   000009   22           RET
    486          
    487          /**
    488          * 协调器向终端发送广播类型消息
    489          */

   \                                 In  segment BANKED_CODE, align 1, keep-with-next
    490          void SampleApp_SendPeriodicMessage( int8 key )
   \                     SampleApp_SendPeriodicMessage:
    491          {
   \   000000   74F6         MOV     A,#-0xa
   \   000002   12....       LCALL   ?BANKED_ENTER_XDATA
   \   000005                ; Saved register size: 10
   \   000005                ; Auto size: 4
   \   000005   74FC         MOV     A,#-0x4
   \   000007   12....       LCALL   ?ALLOC_XSTACK8
   \   00000A   E9           MOV     A,R1
   \   00000B   FE           MOV     R6,A
    492            if(key == 1) { // 按键S1
   \   00000C   7401         MOV     A,#0x1
   \   00000E   6E           XRL     A,R6
   \   00000F   706D         JNZ     ??SampleApp_SendPeriodicMessage_0
    493              uint8 sendKeyS1Buf[4] = {'#', 0x31, 0, '@'};
   \   000011   85..82       MOV     DPL,?XSP + 0
   \   000014   85..83       MOV     DPH,?XSP + 1
   \   000017   AC82         MOV     R4,DPL
   \   000019   AD83         MOV     R5,DPH
   \   00001B   7583..       MOV     DPH,#(`?<Constant {35, 49, 0, 64}>` >> 8) & 0xff
   \   00001E   7582..       MOV     DPL,#`?<Constant {35, 49, 0, 64}>` & 0xff
   \   000021   7404         MOV     A,#0x4
   \   000023   12....       LCALL   ?MOVE_LONG8_XDATA_XDATA
    494              
    495              if ( AF_DataRequest( &SampleApp_Periodic_DstAddr, &SampleApp_epDesc,
    496                                  SAMPLEAPP_PERIODIC_CLUSTERID,
    497                                  4,
    498                                  sendKeyS1Buf,
    499                                  &SampleApp_TransID,
    500                                  AF_DISCV_ROUTE,
    501                                  AF_DEFAULT_RADIUS ) == afStatus_SUCCESS )
   \   000026                ; Setup parameters for call to function AF_DataRequest
   \   000026   75..1E       MOV     ?V0 + 0,#0x1e
   \   000029   78..         MOV     R0,#?V0 + 0
   \   00002B   12....       LCALL   ?PUSH_XSTACK_I_ONE
   \   00002E   75....       MOV     ?V0 + 0,#SampleApp_TransID & 0xff
   \   000031   75....       MOV     ?V0 + 1,#(SampleApp_TransID >> 8) & 0xff
   \   000034   78..         MOV     R0,#?V0 + 0
   \   000036   12....       LCALL   ?PUSH_XSTACK_I_TWO
   \   000039   7403         MOV     A,#0x3
   \   00003B   12....       LCALL   ?XSTACK_DISP0_8
   \   00003E   8582..       MOV     ?V0 + 0,DPL
   \   000041   8583..       MOV     ?V0 + 1,DPH
   \   000044   78..         MOV     R0,#?V0 + 0
   \   000046   12....       LCALL   ?PUSH_XSTACK_I_TWO
   \   000049   75..04       MOV     ?V0 + 0,#0x4
   \   00004C   75..00       MOV     ?V0 + 1,#0x0
   \   00004F   78..         MOV     R0,#?V0 + 0
   \   000051   12....       LCALL   ?PUSH_XSTACK_I_TWO
   \   000054   75..01       MOV     ?V0 + 0,#0x1
   \   000057   78..         MOV     R0,#?V0 + 0
   \   000059   12....       LCALL   ?PUSH_XSTACK_I_TWO
   \   00005C   7920         MOV     R1,#0x20
   \   00005E   7C..         MOV     R4,#SampleApp_epDesc & 0xff
   \   000060   7D..         MOV     R5,#(SampleApp_epDesc >> 8) & 0xff
   \   000062   7A..         MOV     R2,#SampleApp_Periodic_DstAddr & 0xff
   \   000064   7B..         MOV     R3,#(SampleApp_Periodic_DstAddr >> 8) & 0xff
   \   000066   12....       LCALL   ??AF_DataRequest?relay
   \   000069   7409         MOV     A,#0x9
   \   00006B   12....       LCALL   ?DEALLOC_XSTACK8
   \   00006E   E9           MOV     A,R1
   \   00006F   700D         JNZ     ??SampleApp_SendPeriodicMessage_0
    502              {
    503                HalLedBlink(HAL_LED_1, 1, 50, 250);
   \   000071                ; Setup parameters for call to function HalLedBlink
   \   000071   7CFA         MOV     R4,#-0x6
   \   000073   7D00         MOV     R5,#0x0
   \   000075   7B32         MOV     R3,#0x32
   \   000077   7A01         MOV     R2,#0x1
   \   000079   7901         MOV     R1,#0x1
   \   00007B   12....       LCALL   ??HalLedBlink?relay
    504              }
    505            } else if(key == 2) { // 按键S2
    506              // myprintf("press key S2\n");
    507            }
    508          }
   \                     ??SampleApp_SendPeriodicMessage_0:
   \   00007E   7404         MOV     A,#0x4
   \   000080                REQUIRE ?Subroutine2
   \   000080                ; // Fall through to label ?Subroutine2

   \                                 In  segment BANKED_CODE, align 1, keep-with-next
   \                     ?Subroutine2:
   \   000000   12....       LCALL   ?DEALLOC_XSTACK8
   \   000003   7F02         MOV     R7,#0x2
   \   000005   02....       LJMP    ?BANKED_LEAVE_XDATA
    509          
    510          /**
    511            协调器心跳功能函数，使用串口向树莓派发送心跳信息
    512          */

   \                                 In  segment XDATA_Z, align 1, keep-with-next
    513          uint16 totalSendTestCount = 0;
   \                     totalSendTestCount:
   \   000000                DS 2
   \   000002                REQUIRE __INIT_XDATA_Z

   \                                 In  segment XDATA_Z, align 1, keep-with-next
    514          uint16 sendTestCount = 0;
   \                     sendTestCount:
   \   000000                DS 2
   \   000002                REQUIRE __INIT_XDATA_Z

   \                                 In  segment BANKED_CODE, align 1, keep-with-next
    515          void SampleApp_SendHeartBeatMessageCoor(void) {
   \                     SampleApp_SendHeartBeatMessageCoor:
   \   000000   74F6         MOV     A,#-0xa
   \   000002   12....       LCALL   ?BANKED_ENTER_XDATA
   \   000005                ; Saved register size: 10
   \   000005                ; Auto size: 3
   \   000005   74FD         MOV     A,#-0x3
   \   000007   12....       LCALL   ?ALLOC_XSTACK8
    516            // 遍历终端列表，将所有节点剩余时间-1，如果小于0，则置0
    517            uint8 heartBeatBuf[3] = {'#', 0x46, '@'};
   \   00000A   85..82       MOV     DPL,?XSP + 0
   \   00000D   85..83       MOV     DPH,?XSP + 1
   \   000010   AC82         MOV     R4,DPL
   \   000012   AD83         MOV     R5,DPH
   \   000014   7583..       MOV     DPH,#(`?<Constant {35, 70, 64}>` >> 8) & 0xff
   \   000017   7582..       MOV     DPL,#`?<Constant {35, 70, 64}>` & 0xff
   \   00001A   7403         MOV     A,#0x3
   \   00001C   12....       LCALL   ?MOVE_LONG8_XDATA_XDATA
    518            mySendByteBuf(heartBeatBuf, 3);
   \   00001F                ; Setup parameters for call to function mySendByteBuf
   \   00001F   7C03         MOV     R4,#0x3
   \   000021   FD           MOV     R5,A
   \   000022   85..82       MOV     DPL,?XSP + 0
   \   000025   85..83       MOV     DPH,?XSP + 1
   \   000028   AA82         MOV     R2,DPL
   \   00002A   AB83         MOV     R3,DPH
   \   00002C   12....       LCALL   ??mySendByteBuf?relay
    519            
    520            // 将终端列表中元素在线时长-1，如果检测到超时则将IEEE发送到上位机
    521            decAllListEPLeftSec(LL); 
   \   00002F                ; Setup parameters for call to function decAllListEPLeftSec
   \   00002F   90....       MOV     DPTR,#LL
   \   000032   E0           MOVX    A,@DPTR
   \   000033   FA           MOV     R2,A
   \   000034   A3           INC     DPTR
   \   000035   E0           MOVX    A,@DPTR
   \   000036   FB           MOV     R3,A
   \   000037   12....       LCALL   ??decAllListEPLeftSec?relay
    522            HalLedBlink(HAL_LED_2, 1, 50, 500);
   \   00003A                ; Setup parameters for call to function HalLedBlink
   \   00003A   7CF4         MOV     R4,#-0xc
   \   00003C   7D01         MOV     R5,#0x1
   \   00003E   7B32         MOV     R3,#0x32
   \   000040   7A01         MOV     R2,#0x1
   \   000042   7902         MOV     R1,#0x2
   \   000044   12....       LCALL   ??HalLedBlink?relay
    523            
    524            // 发送稳定性测试数据到终端设备
    525            totalSendTestCount++;
   \   000047   90....       MOV     DPTR,#totalSendTestCount
   \   00004A   12....       LCALL   ?Subroutine7 & 0xFFFF
    526            if(totalSendTestCount % 3 == 0) {
   \                     ??CrossCallReturnLabel_7:
   \   00004D   90....       MOV     DPTR,#totalSendTestCount
   \   000050   E0           MOVX    A,@DPTR
   \   000051   F8           MOV     R0,A
   \   000052   A3           INC     DPTR
   \   000053   E0           MOVX    A,@DPTR
   \   000054   F9           MOV     R1,A
   \   000055   7A03         MOV     R2,#0x3
   \   000057   7B00         MOV     R3,#0x0
   \   000059   12....       LCALL   ?US_DIV_MOD
   \   00005C   8B..         MOV     ?V0 + 1,R3
   \   00005E   EA           MOV     A,R2
   \   00005F   45..         ORL     A,?V0 + 1
   \   000061   7015         JNZ     ??SampleApp_SendHeartBeatMessageCoor_0
    527              SampleApp_SendPeriodicMessage(1);
   \   000063                ; Setup parameters for call to function SampleApp_SendPeriodicMessage
   \   000063   7901         MOV     R1,#0x1
   \   000065   12....       LCALL   ??SampleApp_SendPeriodicMessage?relay
    528              myprintf("sendTestCount = %d\n", sendTestCount); // 串口打印发送的次数
   \   000068                ; Setup parameters for call to function myprintf
   \   000068   90....       MOV     DPTR,#sendTestCount
   \   00006B   12....       LCALL   ?PUSH_XSTACK8_X_TWO
   \   00006E   7A..         MOV     R2,#`?<Constant "sendTestCount = %d\\n">` & 0xff
   \   000070   7B..         MOV     R3,#(`?<Constant "sendTestCount = %d\\n">` >> 8) & 0xff
   \   000072   12....       LCALL   ?Subroutine10 & 0xFFFF
    529            }
   \                     ??CrossCallReturnLabel_15:
   \   000075   12....       LCALL   ?DEALLOC_XSTACK8
    530          }
   \                     ??SampleApp_SendHeartBeatMessageCoor_0:
   \   000078   7403         MOV     A,#0x3
   \   00007A   02....       LJMP    ?Subroutine2 & 0xFFFF
    531          
    532          /**
    533            终端心跳函数，用于定时向协调器发送本机地址信息
    534          */

   \                                 In  segment BANKED_CODE, align 1, keep-with-next
    535          void SampleApp_SendHeartBeatMessageEnd(void) { 
   \                     SampleApp_SendHeartBeatMessageEnd:
   \   000000   C082         PUSH    DPL
   \   000002   C083         PUSH    DPH
   \   000004                ; Saved register size: 2
   \   000004                ; Auto size: 0
    536            AfSendAddrInfo(0x71);  
   \   000004                ; Setup parameters for call to function AfSendAddrInfo
   \   000004   7971         MOV     R1,#0x71
   \   000006   12....       LCALL   ??AfSendAddrInfo?relay
    537          }
   \   000009   D083         POP     DPH
   \   00000B   D082         POP     DPL
   \   00000D   02....       LJMP    ?BRET
    538          
    539          /**
    540            发送终端地址信息到协调器
    541          */

   \                                 In  segment BANKED_CODE, align 1, keep-with-next
    542          void AfSendAddrInfo(uint8 cmd) {
   \                     AfSendAddrInfo:
   \   000000   74F5         MOV     A,#-0xb
   \   000002   12....       LCALL   ?BANKED_ENTER_XDATA
   \   000005                ; Saved register size: 11
   \   000005                ; Auto size: 13
   \   000005   74F3         MOV     A,#-0xd
   \   000007   12....       LCALL   ?ALLOC_XSTACK8
   \   00000A   E9           MOV     A,R1
   \   00000B   FE           MOV     R6,A
    543            uint16 shortAddr;
    544            uint8 strBuf[13] = {0};  
   \   00000C   85..82       MOV     DPL,?XSP + 0
   \   00000F   85..83       MOV     DPH,?XSP + 1
   \   000012   AC82         MOV     R4,DPL
   \   000014   AD83         MOV     R5,DPH
   \   000016   7583..       MOV     DPH,#(`?<Constant {0}>` >> 8) & 0xff
   \   000019   7582..       MOV     DPL,#`?<Constant {0}>` & 0xff
   \   00001C   740D         MOV     A,#0xd
   \   00001E   12....       LCALL   ?MOVE_LONG8_XDATA_XDATA
    545            
    546            shortAddr = NLME_GetShortAddr(); // 获取自身网络设备地址，获取父设备网络地址：uint16 NLME_GetCoordShortAddr( void );
   \   000021                ; Setup parameters for call to function NLME_GetShortAddr
   \   000021   12....       LCALL   ??NLME_GetShortAddr?relay
    547            strBuf[0] = '#';  // 发送数据的标识，便于协调器解析
   \   000024   85..82       MOV     DPL,?XSP + 0
   \   000027   85..83       MOV     DPH,?XSP + 1
   \   00002A   7423         MOV     A,#0x23
   \   00002C   F0           MOVX    @DPTR,A
    548            strBuf[1] = cmd; // 消息类型标识
   \   00002D   7401         MOV     A,#0x1
   \   00002F   12....       LCALL   ?XSTACK_DISP0_8
   \   000032   EE           MOV     A,R6
   \   000033   F0           MOVX    @DPTR,A
    549            strBuf[2] = HI_UINT16(shortAddr); // 存放地址的高8位
   \   000034   7402         MOV     A,#0x2
   \   000036   12....       LCALL   ?XSTACK_DISP0_8
   \   000039   EB           MOV     A,R3
   \   00003A   F0           MOVX    @DPTR,A
    550            strBuf[3] = LO_UINT16(shortAddr); // 存放低8位
   \   00003B   7403         MOV     A,#0x3
   \   00003D   12....       LCALL   ?XSTACK_DISP0_8
   \   000040   EA           MOV     A,R2
   \   000041   12....       LCALL   ?Subroutine3 & 0xFFFF
    551            osal_memcpy(&strBuf[4], NLME_GetExtAddr(), 8); // 复制IEEE地址
   \                     ??CrossCallReturnLabel_0:
   \   000044   12....       LCALL   ?PUSH_XSTACK_I_THREE
   \   000047   7C08         MOV     R4,#0x8
   \   000049   7D00         MOV     R5,#0x0
   \   00004B   7407         MOV     A,#0x7
   \   00004D   12....       LCALL   ?XSTACK_DISP0_8
   \   000050   AA82         MOV     R2,DPL
   \   000052   AB83         MOV     R3,DPH
   \   000054   12....       LCALL   ??osal_memcpy?relay
   \   000057   7403         MOV     A,#0x3
   \   000059   12....       LCALL   ?DEALLOC_XSTACK8
    552            strBuf[12] = '@'; // 尾部字节
   \   00005C   740C         MOV     A,#0xc
   \   00005E   12....       LCALL   ?XSTACK_DISP0_8
   \   000061   7440         MOV     A,#0x40
   \   000063   F0           MOVX    @DPTR,A
    553            if ( AF_DataRequest( &SampleApp_TxAddr,                  // 发送的目的地址+端点地址+传送模式
    554                                (endPointDesc_t *)&SampleApp_epDesc, // 源终端的描述
    555                                SAMPLEAPP_PERIODIC_CLUSTERID,        // 被profile指定的有效的集群号
    556                                13,                                  // 发送数据长度
    557                                strBuf,                              // 发送数据缓冲区
    558                                &SampleApp_TransID,                  // 消息发送ID
    559                                AF_DISCV_ROUTE,                      // 有效位掩码的发送选项
    560                                AF_DEFAULT_RADIUS ) != afStatus_SUCCESS ) // 传送跳数，通常设置为AF_DEFAULT_RADIUS
   \   000064                ; Setup parameters for call to function AF_DataRequest
   \   000064   75..1E       MOV     ?V0 + 0,#0x1e
   \   000067   78..         MOV     R0,#?V0 + 0
   \   000069   12....       LCALL   ?PUSH_XSTACK_I_ONE
   \   00006C   75....       MOV     ?V0 + 0,#SampleApp_TransID & 0xff
   \   00006F   75....       MOV     ?V0 + 1,#(SampleApp_TransID >> 8) & 0xff
   \   000072   78..         MOV     R0,#?V0 + 0
   \   000074   12....       LCALL   ?PUSH_XSTACK_I_TWO
   \   000077   7403         MOV     A,#0x3
   \   000079   12....       LCALL   ?XSTACK_DISP0_8
   \   00007C   8582..       MOV     ?V0 + 0,DPL
   \   00007F   8583..       MOV     ?V0 + 1,DPH
   \   000082   78..         MOV     R0,#?V0 + 0
   \   000084   12....       LCALL   ?PUSH_XSTACK_I_TWO
   \   000087   75..0D       MOV     ?V0 + 0,#0xd
   \   00008A   75..00       MOV     ?V0 + 1,#0x0
   \   00008D   78..         MOV     R0,#?V0 + 0
   \   00008F   12....       LCALL   ?PUSH_XSTACK_I_TWO
   \   000092   75..01       MOV     ?V0 + 0,#0x1
   \   000095   78..         MOV     R0,#?V0 + 0
   \   000097   12....       LCALL   ?PUSH_XSTACK_I_TWO
   \   00009A   7920         MOV     R1,#0x20
   \   00009C   7C..         MOV     R4,#SampleApp_epDesc & 0xff
   \   00009E   7D..         MOV     R5,#(SampleApp_epDesc >> 8) & 0xff
   \   0000A0   7A..         MOV     R2,#SampleApp_TxAddr & 0xff
   \   0000A2   7B..         MOV     R3,#(SampleApp_TxAddr >> 8) & 0xff
   \   0000A4   12....       LCALL   ??AF_DataRequest?relay
   \   0000A7   7409         MOV     A,#0x9
   \   0000A9   12....       LCALL   ?DEALLOC_XSTACK8
   \   0000AC   E9           MOV     A,R1
   \   0000AD   600C         JZ      ??AfSendAddrInfo_0
    561            {
    562              HalLedBlink(HAL_LED_1, 2, 50, 250); // 发送失败快速闪烁两次
   \   0000AF                ; Setup parameters for call to function HalLedBlink
   \   0000AF   7CFA         MOV     R4,#-0x6
   \   0000B1   7D00         MOV     R5,#0x0
   \   0000B3   7B32         MOV     R3,#0x32
   \   0000B5   7A02         MOV     R2,#0x2
   \   0000B7   7901         MOV     R1,#0x1
   \   0000B9   800A         SJMP    ??AfSendAddrInfo_1
    563            } else {
    564              HalLedBlink(HAL_LED_2, 1, 50, 500); // 发送成功正常闪烁一次
   \                     ??AfSendAddrInfo_0:
   \   0000BB                ; Setup parameters for call to function HalLedBlink
   \   0000BB   7CF4         MOV     R4,#-0xc
   \   0000BD   7D01         MOV     R5,#0x1
   \   0000BF   7B32         MOV     R3,#0x32
   \   0000C1   7A01         MOV     R2,#0x1
   \   0000C3   7902         MOV     R1,#0x2
   \                     ??AfSendAddrInfo_1:
   \   0000C5   12....       LCALL   ??HalLedBlink?relay
    565            }
    566          }
   \   0000C8   740D         MOV     A,#0xd
   \   0000CA   02....       LJMP    ?Subroutine0 & 0xFFFF

   \                                 In  segment BANKED_CODE, align 1, keep-with-next
   \                     ?Subroutine3:
   \   000000   F0           MOVX    @DPTR,A
   \   000001                ; Setup parameters for call to function osal_memcpy
   \   000001                ; Setup parameters for call to function NLME_GetExtAddr
   \   000001                ; Setup parameters for call to function osal_memcpy
   \   000001                ; Setup parameters for call to function NLME_GetExtAddr
   \   000001   12....       LCALL   ??NLME_GetExtAddr?relay
   \   000004   8A..         MOV     ?V0 + 0,R2
   \   000006   8B..         MOV     ?V0 + 1,R3
   \   000008   75..00       MOV     ?V0 + 2,#0x0
   \   00000B   78..         MOV     R0,#?V0 + 0
   \   00000D   22           RET

   \                                 In  segment BANKED_CODE, align 1, keep-with-next
   \                     ?Subroutine0:
   \   000000   12....       LCALL   ?DEALLOC_XSTACK8
   \   000003                REQUIRE ??Subroutine15_0
   \   000003                ; // Fall through to label ??Subroutine15_0
    567          
    568          /**
    569            终端发送已经收到投币开始游戏命令
    570          */

   \                                 In  segment BANKED_CODE, align 1, keep-with-next
    571          void AfReplyGetCoinCmd(void) {
   \                     AfReplyGetCoinCmd:
   \   000000   74F5         MOV     A,#-0xb
   \   000002   12....       LCALL   ?BANKED_ENTER_XDATA
   \   000005                ; Saved register size: 11
   \   000005                ; Auto size: 11
   \   000005   74F5         MOV     A,#-0xb
   \   000007   12....       LCALL   ?ALLOC_XSTACK8
    572            uint8 strBuf[11] = {0};  
   \   00000A   85..82       MOV     DPL,?XSP + 0
   \   00000D   85..83       MOV     DPH,?XSP + 1
   \   000010   AC82         MOV     R4,DPL
   \   000012   AD83         MOV     R5,DPH
   \   000014   7583..       MOV     DPH,#(`?<Constant {0}>_1` >> 8) & 0xff
   \   000017   7582..       MOV     DPL,#`?<Constant {0}>_1` & 0xff
   \   00001A   740B         MOV     A,#0xb
   \   00001C   12....       LCALL   ?MOVE_LONG8_XDATA_XDATA
    573            
    574            strBuf[0] = '#';  // 发送数据的标识，便于协调器解析
   \   00001F   85..82       MOV     DPL,?XSP + 0
   \   000022   85..83       MOV     DPH,?XSP + 1
   \   000025   7423         MOV     A,#0x23
   \   000027   F0           MOVX    @DPTR,A
    575            strBuf[1] = 0x72; // 消息类型标识
   \   000028   7401         MOV     A,#0x1
   \   00002A   12....       LCALL   ?XSTACK_DISP0_8
   \   00002D   7472         MOV     A,#0x72
   \   00002F   12....       LCALL   ?Subroutine3 & 0xFFFF
    576            osal_memcpy(&strBuf[2], NLME_GetExtAddr(), 8); // 复制IEEE地址
   \                     ??CrossCallReturnLabel_1:
   \   000032   12....       LCALL   ?PUSH_XSTACK_I_THREE
   \   000035   7C08         MOV     R4,#0x8
   \   000037   7D00         MOV     R5,#0x0
   \   000039   7405         MOV     A,#0x5
   \   00003B   12....       LCALL   ?XSTACK_DISP0_8
   \   00003E   AA82         MOV     R2,DPL
   \   000040   AB83         MOV     R3,DPH
   \   000042   12....       LCALL   ??osal_memcpy?relay
   \   000045   7403         MOV     A,#0x3
   \   000047   12....       LCALL   ?DEALLOC_XSTACK8
    577            strBuf[10] = '@'; // 尾部字节
   \   00004A   740A         MOV     A,#0xa
   \   00004C   12....       LCALL   ?XSTACK_DISP0_8
   \   00004F   7440         MOV     A,#0x40
   \   000051   F0           MOVX    @DPTR,A
    578            if ( AF_DataRequest( &SampleApp_TxAddr,                  // 发送的目的地址+端点地址+传送模式
    579                                (endPointDesc_t *)&SampleApp_epDesc, // 源终端的描述
    580                                SAMPLEAPP_PERIODIC_CLUSTERID,        // 被profile指定的有效的集群号
    581                                11,                                  // 发送数据长度
    582                                strBuf,                              // 发送数据缓冲区
    583                                &SampleApp_TransID,                  // 消息发送ID
    584                                AF_DISCV_ROUTE,                      // 有效位掩码的发送选项
    585                                AF_DEFAULT_RADIUS ) != afStatus_SUCCESS ) // 传送跳数，通常设置为AF_DEFAULT_RADIUS
   \   000052                ; Setup parameters for call to function AF_DataRequest
   \   000052   75..1E       MOV     ?V0 + 0,#0x1e
   \   000055   78..         MOV     R0,#?V0 + 0
   \   000057   12....       LCALL   ?PUSH_XSTACK_I_ONE
   \   00005A   75....       MOV     ?V0 + 0,#SampleApp_TransID & 0xff
   \   00005D   75....       MOV     ?V0 + 1,#(SampleApp_TransID >> 8) & 0xff
   \   000060   78..         MOV     R0,#?V0 + 0
   \   000062   12....       LCALL   ?PUSH_XSTACK_I_TWO
   \   000065   7403         MOV     A,#0x3
   \   000067   12....       LCALL   ?XSTACK_DISP0_8
   \   00006A   8582..       MOV     ?V0 + 0,DPL
   \   00006D   8583..       MOV     ?V0 + 1,DPH
   \   000070   78..         MOV     R0,#?V0 + 0
   \   000072   12....       LCALL   ?PUSH_XSTACK_I_TWO
   \   000075   75..0B       MOV     ?V0 + 0,#0xb
   \   000078   75..00       MOV     ?V0 + 1,#0x0
   \   00007B   78..         MOV     R0,#?V0 + 0
   \   00007D   12....       LCALL   ?PUSH_XSTACK_I_TWO
   \   000080   75..01       MOV     ?V0 + 0,#0x1
   \   000083   78..         MOV     R0,#?V0 + 0
   \   000085   12....       LCALL   ?PUSH_XSTACK_I_TWO
   \   000088   7920         MOV     R1,#0x20
   \   00008A   7C..         MOV     R4,#SampleApp_epDesc & 0xff
   \   00008C   7D..         MOV     R5,#(SampleApp_epDesc >> 8) & 0xff
   \   00008E   7A..         MOV     R2,#SampleApp_TxAddr & 0xff
   \   000090   7B..         MOV     R3,#(SampleApp_TxAddr >> 8) & 0xff
   \   000092   12....       LCALL   ??AF_DataRequest?relay
   \   000095   7409         MOV     A,#0x9
   \   000097   12....       LCALL   ?DEALLOC_XSTACK8
   \   00009A   E9           MOV     A,R1
   \   00009B   600A         JZ      ??AfReplyGetCoinCmd_0
    586            {
    587              HalLedBlink(HAL_LED_1, 4, 50, 250); // 发送失败快速闪烁两次
   \   00009D                ; Setup parameters for call to function HalLedBlink
   \   00009D   7CFA         MOV     R4,#-0x6
   \   00009F   7D00         MOV     R5,#0x0
   \   0000A1   7B32         MOV     R3,#0x32
   \   0000A3   7A04         MOV     R2,#0x4
   \   0000A5   8008         SJMP    ??AfReplyGetCoinCmd_1
    588            } else {
    589              HalLedBlink(HAL_LED_1, 2, 50, 500); // 发送成功正常闪烁2次
   \                     ??AfReplyGetCoinCmd_0:
   \   0000A7                ; Setup parameters for call to function HalLedBlink
   \   0000A7   7CF4         MOV     R4,#-0xc
   \   0000A9   7D01         MOV     R5,#0x1
   \   0000AB   7B32         MOV     R3,#0x32
   \   0000AD   7A02         MOV     R2,#0x2
   \                     ??AfReplyGetCoinCmd_1:
   \   0000AF   7901         MOV     R1,#0x1
   \   0000B1   12....       LCALL   ??HalLedBlink?relay
    590            }
    591          }
   \   0000B4   740B         MOV     A,#0xb
   \   0000B6   02....       LJMP    ?Subroutine0 & 0xFFFF
    592          
    593          /**
    594            协调器打印终端上传的长短地址
    595          */

   \                                 In  segment BANKED_CODE, align 1, keep-with-next
    596          void printAddrInfoHex(uint8* buf, uint8 dataLen) {
   \                     printAddrInfoHex:
   \   000000   74F3         MOV     A,#-0xd
   \   000002   12....       LCALL   ?BANKED_ENTER_XDATA
   \   000005                ; Saved register size: 13
   \   000005                ; Auto size: 0
   \   000005   EA           MOV     A,R2
   \   000006   FE           MOV     R6,A
   \   000007   EB           MOV     A,R3
   \   000008   FF           MOV     R7,A
   \   000009   89..         MOV     ?V0 + 4,R1
    597            int i = 0;
    598            
    599            myprintf("\n");
   \   00000B                ; Setup parameters for call to function myprintf
   \   00000B   7A..         MOV     R2,#`?<Constant "\\n">` & 0xff
   \   00000D   7B..         MOV     R3,#(`?<Constant "\\n">` >> 8) & 0xff
   \   00000F   12....       LCALL   ??myprintf?relay
    600            for(i = 0; i < dataLen; i++) {
   \   000012   75..00       MOV     ?V0 + 0,#0x0
   \   000015   75..00       MOV     ?V0 + 1,#0x0
   \   000018   8037         SJMP    ??printAddrInfoHex_0
    601              if(i == 2) {
   \                     ??printAddrInfoHex_1:
   \   00001A   7402         MOV     A,#0x2
   \   00001C   65..         XRL     A,?V0 + 0
   \   00001E   7002         JNZ     ??printAddrInfoHex_2
   \   000020   E5..         MOV     A,?V0 + 1
   \                     ??printAddrInfoHex_2:
   \   000022   7007         JNZ     ??printAddrInfoHex_3
    602                myprintf("; IEEE = ");
   \   000024                ; Setup parameters for call to function myprintf
   \   000024   7A..         MOV     R2,#`?<Constant "; IEEE = ">` & 0xff
   \   000026   7B..         MOV     R3,#(`?<Constant "; IEEE = ">` >> 8) & 0xff
   \   000028   12....       LCALL   ??myprintf?relay
    603              }
    604              myprintf("0x%x,", buf[i]);
   \                     ??printAddrInfoHex_3:
   \   00002B                ; Setup parameters for call to function myprintf
   \   00002B   EE           MOV     A,R6
   \   00002C   25..         ADD     A,?V0 + 0
   \   00002E   F582         MOV     DPL,A
   \   000030   EF           MOV     A,R7
   \   000031   35..         ADDC    A,?V0 + 1
   \   000033   F583         MOV     DPH,A
   \   000035   12....       LCALL   ?Subroutine8 & 0xFFFF
    605            }
   \                     ??CrossCallReturnLabel_9:
   \   000038   12....       LCALL   ?PUSH_XSTACK_I_TWO
   \   00003B   7A..         MOV     R2,#`?<Constant "0x%x,">` & 0xff
   \   00003D   7B..         MOV     R3,#(`?<Constant "0x%x,">` >> 8) & 0xff
   \   00003F   12....       LCALL   ?Subroutine10 & 0xFFFF
   \                     ??CrossCallReturnLabel_16:
   \   000042   12....       LCALL   ?DEALLOC_XSTACK8
   \   000045   E5..         MOV     A,?V0 + 0
   \   000047   2401         ADD     A,#0x1
   \   000049   F5..         MOV     ?V0 + 0,A
   \   00004B   E5..         MOV     A,?V0 + 1
   \   00004D   3400         ADDC    A,#0x0
   \   00004F   F5..         MOV     ?V0 + 1,A
   \                     ??printAddrInfoHex_0:
   \   000051   85....       MOV     ?V0 + 2,?V0 + 4
   \   000054   C3           CLR     C
   \   000055   E5..         MOV     A,?V0 + 0
   \   000057   95..         SUBB    A,?V0 + 2
   \   000059   E5..         MOV     A,?V0 + 1
   \   00005B   9400         SUBB    A,#0x0
   \   00005D   A2D2         MOV     C,0xD0 /* PSW */.2
   \   00005F   65D0         XRL     A,PSW
   \   000061   33           RLC     A
   \   000062   40B6         JC      ??printAddrInfoHex_1
    606            myprintf("\n");
   \   000064                ; Setup parameters for call to function myprintf
   \   000064   7A..         MOV     R2,#`?<Constant "\\n">` & 0xff
   \   000066   7B..         MOV     R3,#(`?<Constant "\\n">` >> 8) & 0xff
   \   000068   12....       LCALL   ??myprintf?relay
    607          }
   \   00006B   7F05         MOV     R7,#0x5
   \   00006D   02....       LJMP    ?BANKED_LEAVE_XDATA
    608          
    609          /**
    610            将十六进制数转变成字符
    611          */

   \                                 In  segment BANKED_CODE, align 1, keep-with-next
    612          void convertHexToStr(uint16 addr, uint8 lcdLineNum) {
   \                     convertHexToStr:
   \   000000   74F5         MOV     A,#-0xb
   \   000002   12....       LCALL   ?BANKED_ENTER_XDATA
   \   000005                ; Saved register size: 11
   \   000005                ; Auto size: 7
   \   000005   74F9         MOV     A,#-0x7
   \   000007   12....       LCALL   ?ALLOC_XSTACK8
   \   00000A   7405         MOV     A,#0x5
   \   00000C   12....       LCALL   ?XSTACK_DISP0_8
   \   00000F   EA           MOV     A,R2
   \   000010   F0           MOVX    @DPTR,A
   \   000011   A3           INC     DPTR
   \   000012   EB           MOV     A,R3
   \   000013   F0           MOVX    @DPTR,A
   \   000014   E9           MOV     A,R1
   \   000015   FE           MOV     R6,A
    613            uint8 i;
    614            uint8 *xad;
    615            uint8 lcd_buf[2*2+1];
    616          
    617            // Display the extended address.
    618            xad = (uint8*)&addr + 2 - 1;
   \   000016   A882         MOV     R0,DPL
   \   000018   A983         MOV     R1,DPH
    619          
    620            for (i = 0; i < 2*2; xad--)
   \   00001A   7C00         MOV     R4,#0x0
    621            {
    622              uint8 ch;
    623              ch = (*xad >> 4) & 0x0F;
   \                     ??convertHexToStr_0:
   \   00001C   8882         MOV     DPL,R0
   \   00001E   8983         MOV     DPH,R1
   \   000020   E0           MOVX    A,@DPTR
   \   000021   C4           SWAP    A
   \   000022   540F         ANL     A,#0xf
   \   000024   FD           MOV     R5,A
    624              lcd_buf[i++] = ch + (( ch < 10 ) ? '0' : '7'); // +7可以转变成大写字符ABCDEF
   \   000025   EC           MOV     A,R4
   \   000026   FF           MOV     R7,A
   \   000027   0C           INC     R4
   \   000028   ED           MOV     A,R5
   \   000029   C3           CLR     C
   \   00002A   940A         SUBB    A,#0xa
   \   00002C   5004         JNC     ??convertHexToStr_1
   \   00002E   7A30         MOV     R2,#0x30
   \   000030   8002         SJMP    ??convertHexToStr_2
   \                     ??convertHexToStr_1:
   \   000032   7A37         MOV     R2,#0x37
   \                     ??convertHexToStr_2:
   \   000034   EA           MOV     A,R2
   \   000035   2D           ADD     A,R5
   \   000036   C0E0         PUSH    A
   \   000038   8F..         MOV     ?V0 + 0,R7
   \   00003A   12....       LCALL   ?Subroutine11 & 0xFFFF
   \                     ??CrossCallReturnLabel_17:
   \   00003D   D0E0         POP     A
   \   00003F   F0           MOVX    @DPTR,A
    625              ch = *xad & 0x0F;
   \   000040   8882         MOV     DPL,R0
   \   000042   8983         MOV     DPH,R1
   \   000044   E0           MOVX    A,@DPTR
   \   000045   540F         ANL     A,#0xf
   \   000047   FD           MOV     R5,A
    626              lcd_buf[i++] = ch + (( ch < 10 ) ? '0' : '7');
   \   000048   8C..         MOV     ?V0 + 2,R4
   \   00004A   0C           INC     R4
   \   00004B   C3           CLR     C
   \   00004C   940A         SUBB    A,#0xa
   \   00004E   5004         JNC     ??convertHexToStr_3
   \   000050   7A30         MOV     R2,#0x30
   \   000052   8002         SJMP    ??convertHexToStr_4
   \                     ??convertHexToStr_3:
   \   000054   7A37         MOV     R2,#0x37
   \                     ??convertHexToStr_4:
   \   000056   EA           MOV     A,R2
   \   000057   2D           ADD     A,R5
   \   000058   C0E0         PUSH    A
   \   00005A   85....       MOV     ?V0 + 0,?V0 + 2
   \   00005D   12....       LCALL   ?Subroutine11 & 0xFFFF
    627            }
   \                     ??CrossCallReturnLabel_18:
   \   000060   D0E0         POP     A
   \   000062   F0           MOVX    @DPTR,A
   \   000063   E8           MOV     A,R0
   \   000064   24FF         ADD     A,#-0x1
   \   000066   18           DEC     R0
   \   000067   E9           MOV     A,R1
   \   000068   34FF         ADDC    A,#-0x1
   \   00006A   F9           MOV     R1,A
   \   00006B   EC           MOV     A,R4
   \   00006C   C3           CLR     C
   \   00006D   9404         SUBB    A,#0x4
   \   00006F   40AB         JC      ??convertHexToStr_0
    628            lcd_buf[2*2] = '\0';
   \   000071   7404         MOV     A,#0x4
   \   000073   12....       LCALL   ?XSTACK_DISP0_8
   \   000076   E4           CLR     A
   \   000077   F0           MOVX    @DPTR,A
    629            HalLcdWriteString( (char*)lcd_buf, lcdLineNum);
   \   000078                ; Setup parameters for call to function HalLcdWriteString
   \   000078   EE           MOV     A,R6
   \   000079   F9           MOV     R1,A
   \   00007A   85..82       MOV     DPL,?XSP + 0
   \   00007D   85..83       MOV     DPH,?XSP + 1
   \   000080   AA82         MOV     R2,DPL
   \   000082   AB83         MOV     R3,DPH
   \   000084   12....       LCALL   ??HalLcdWriteString?relay
    630          }
   \   000087   7407         MOV     A,#0x7
   \   000089                REQUIRE ?Subroutine0
   \   000089                ; // Fall through to label ?Subroutine0

   \                                 In  segment BANKED_CODE, align 1, keep-with-next
   \                     ?Subroutine11:
   \   000000   85..82       MOV     DPL,?XSP + 0
   \   000003   85..83       MOV     DPH,?XSP + 1
   \   000006   E582         MOV     A,DPL
   \   000008   25..         ADD     A,?V0 + 0
   \   00000A   F582         MOV     DPL,A
   \   00000C   E583         MOV     A,DPH
   \   00000E   3400         ADDC    A,#0x0
   \   000010   F583         MOV     DPH,A
   \   000012   22           RET

   \                                 In  segment INTVEC, offset 0x6b, root
   \                     `??coinPort0Isr??INTVEC 107`:
   \   00006B   02....       LJMP       (coinPort0Isr)

   \                                 In  segment BANK_RELAYS, align 1
   \                     ??SampleApp_Init?relay:
   \   000000   12....       LCALL   ?BDISPATCH
   \   000003   ......       DC24    SampleApp_Init

   \                                 In  segment BANK_RELAYS, align 1
   \                     ??SampleApp_ProcessEvent?relay:
   \   000000   12....       LCALL   ?BDISPATCH
   \   000003   ......       DC24    SampleApp_ProcessEvent

   \                                 In  segment BANK_RELAYS, align 1
   \                     ??SampleApp_HandleKeys?relay:
   \   000000   12....       LCALL   ?BDISPATCH
   \   000003   ......       DC24    SampleApp_HandleKeys

   \                                 In  segment BANK_RELAYS, align 1
   \                     ??SampleApp_MessageMSGCB?relay:
   \   000000   12....       LCALL   ?BDISPATCH
   \   000003   ......       DC24    SampleApp_MessageMSGCB

   \                                 In  segment BANK_RELAYS, align 1
   \                     ??SampleApp_SendPeriodicMessage?relay:
   \   000000   12....       LCALL   ?BDISPATCH
   \   000003   ......       DC24    SampleApp_SendPeriodicMessage

   \                                 In  segment BANK_RELAYS, align 1
   \                     ??SampleApp_SendHeartBeatMessageCoor?relay:
   \   000000   12....       LCALL   ?BDISPATCH
   \   000003   ......       DC24    SampleApp_SendHeartBeatMessageCoor

   \                                 In  segment BANK_RELAYS, align 1
   \                     ??SampleApp_SendHeartBeatMessageEnd?relay:
   \   000000   12....       LCALL   ?BDISPATCH
   \   000003   ......       DC24    SampleApp_SendHeartBeatMessageEnd

   \                                 In  segment BANK_RELAYS, align 1
   \                     ??AfSendAddrInfo?relay:
   \   000000   12....       LCALL   ?BDISPATCH
   \   000003   ......       DC24    AfSendAddrInfo

   \                                 In  segment BANK_RELAYS, align 1
   \                     ??AfReplyGetCoinCmd?relay:
   \   000000   12....       LCALL   ?BDISPATCH
   \   000003   ......       DC24    AfReplyGetCoinCmd

   \                                 In  segment BANK_RELAYS, align 1
   \                     ??printAddrInfoHex?relay:
   \   000000   12....       LCALL   ?BDISPATCH
   \   000003   ......       DC24    printAddrInfoHex

   \                                 In  segment BANK_RELAYS, align 1
   \                     ??convertHexToStr?relay:
   \   000000   12....       LCALL   ?BDISPATCH
   \   000003   ......       DC24    convertHexToStr

   \                                 In  segment XDATA_ROM_C, align 1
   \                     `?<Constant "P0 interrupt\\n">`:
   \   000000   50302069     DB "P0 interrupt\012"
   \            6E746572
   \            72757074
   \            0A00    

   \                                 In  segment XDATA_ROM_C, align 1
   \                     `?<Constant "Group 1">`:
   \   000000   47726F75     DB "Group 1"
   \            70203100

   \                                 In  segment XDATA_ROM_C, align 1
   \                     `?<Constant "UartInit OK\\n">`:
   \   000000   55617274     DB "UartInit OK\012"
   \            496E6974
   \            204F4B0A
   \            00      

   \                                 In  segment XDATA_ROM_C, align 1
   \                     `?<Constant {35, 69, 64}>`:
   \   000000   23           DB 35
   \   000001   45           DB 69
   \   000002   40           DB 64

   \                                 In  segment XDATA_ROM_C, align 1
   \                     `?<Constant "ERROR:AF_DATA_CONFIRM...">`:
   \   000000   4552524F     DB "ERROR:AF_DATA_CONFIRM_CMD failed\012"
   \            523A4146
   \            5F444154
   \            415F434F
   \            4E464952
   \            4D5F434D
   \            44206661
   \            696C6564
   \            0A00    

   \                                 In  segment XDATA_ROM_C, align 1
   \                     `?<Constant "unknown pkg-event = 0...">`:
   \   000000   756E6B6E     DB "unknown pkg-event = 0x%x\012"
   \            6F776E20
   \            706B672D
   \            6576656E
   \            74203D20
   \            30782578
   \            0A00    

   \                                 In  segment XDATA_ROM_C, align 1
   \                     `?<Constant "Get COIN_MSG_EVT, Nee...">`:
   \   000000   47657420     DB "Get COIN_MSG_EVT, NeedCoinDelivered = %d\012"
   \            434F494E
   \            5F4D5347
   \            5F455654
   \            2C204E65
   \            6564436F
   \            696E4465
   \            6C697665
   \            72656420
   \            3D202564
   \            0A00    

   \                                 In  segment XDATA_ROM_C, align 1
   \                     `?<Constant "Discard unknown event...">`:
   \   000000   44697363     DB "Discard unknown events = %d\012"
   \            61726420
   \            756E6B6E
   \            6F776E20
   \            6576656E
   \            7473203D
   \            2025640A
   \            00      

   \                                 In  segment XDATA_ROM_C, align 1
   \                     `?<Constant "Recv:">`:
   \   000000   52656376     DB "Recv:"
   \            3A00    

   \                                 In  segment XDATA_ROM_C, align 1
   \                     `?<Constant {35, 49, 0, 64}>`:
   \   000000   23           DB 35
   \   000001   31           DB 49
   \   000002   00           DB 0
   \   000003   40           DB 64

   \                                 In  segment XDATA_ROM_C, align 1
   \                     `?<Constant {35, 70, 64}>`:
   \   000000   23           DB 35
   \   000001   46           DB 70
   \   000002   40           DB 64

   \                                 In  segment XDATA_ROM_C, align 1
   \                     `?<Constant "sendTestCount = %d\\n">`:
   \   000000   73656E64     DB "sendTestCount = %d\012"
   \            54657374
   \            436F756E
   \            74203D20
   \            25640A00

   \                                 In  segment XDATA_ROM_C, align 1
   \                     `?<Constant {0}>`:
   \   000000   00           DB 0
   \   000001   00000000     DB 0, 0, 0, 0, 0, 0, 0, 0
   \            00000000
   \   000009   00000000     DB 0, 0, 0, 0

   \                                 In  segment XDATA_ROM_C, align 1
   \                     `?<Constant {0}>_1`:
   \   000000   00           DB 0
   \   000001   00000000     DB 0, 0, 0, 0, 0, 0, 0, 0
   \            00000000
   \   000009   0000         DB 0, 0

   \                                 In  segment XDATA_ROM_C, align 1
   \                     `?<Constant "\\n">`:
   \   000000   0A00         DB "\012"

   \                                 In  segment XDATA_ROM_C, align 1
   \                     `?<Constant "; IEEE = ">`:
   \   000000   3B204945     DB "; IEEE = "
   \            4545203D
   \            2000    

   \                                 In  segment XDATA_ROM_C, align 1
   \                     `?<Constant "0x%x,">`:
   \   000000   30782578     DB "0x%x,"
   \            2C00    

   Maximum stack usage in bytes:

     Function                       ISTACK PSTACK XSTACK
     --------                       ------ ------ ------
     AfReplyGetCoinCmd                  2      0     40
       -> NLME_GetExtAddr               0      0     44
       -> osal_memcpy                   0      0     50
       -> AF_DataRequest                0      0     62
       -> HalLedBlink                   0      0     44
       -> HalLedBlink                   0      0     44
     AfSendAddrInfo                     2      0     48
       -> NLME_GetShortAddr             0      0     48
       -> NLME_GetExtAddr               0      0     48
       -> osal_memcpy                   0      0     54
       -> AF_DataRequest                0      0     66
       -> HalLedBlink                   0      0     48
       -> HalLedBlink                   0      0     48
     SampleApp_HandleKeys               0      0     24
       -> AfSendAddrInfo                0      0     18
     SampleApp_Init                     0      0     14
       -> afRegister                    0      0     22
       -> RegisterForKeys               0      0     22
       -> osal_memcpy                   0      0     28
       -> aps_AddGroup                  0      0     22
       -> MT_UartInit                   0      0     22
       -> MT_UartRegisterTaskID         0      0     22
       -> myprintf                      0      0     22
     SampleApp_MessageMSGCB             0      0     24
       -> AfReplyGetCoinCmd             0      0     18
       -> osal_start_timerEx            0      0     18
       -> HalLedBlink                   0      0     18
       -> HalLcdWriteString             0      0     18
       -> convertHexToStr               0      0     18
     SampleApp_ProcessEvent             2      0     17
       -> osal_msg_receive              0      0     30
       -> myprintf                      0      0     34
       -> osal_msg_deallocate           0      0     30
       -> osal_msg_receive              0      0     30
       -> myprintf                      0      0     30
       -> SampleApp_HandleKeys          0      0     30
       -> SampleApp_MessageMSGCB        0      0     30
       -> mySendByteBuf                 0      0     30
       -> osal_start_timerEx            0      0     30
       -> HalLedBlink                   0      0     30
       -> HalLedBlink                   0      0     30
       -> AfSendAddrInfo                0      0     30
       -> HalLedBlink                   0      0     30
       -> osal_start_timerEx            0      0     30
       -> AfSendAddrInfo                0      0     30
       -> osal_start_timerEx            0      0     30
       -> myprintf                      0      0     34
       -> osal_start_timerEx            0      0     30
       -> myprintf                      0      0     34
     SampleApp_SendHeartBeatMessageCoor
                                        2      0     15
       -> mySendByteBuf                 0      0     26
       -> decAllListEPLeftSec           0      0     26
       -> HalLedBlink                   0      0     26
       -> SampleApp_SendPeriodicMessage
                                        0      0     26
       -> myprintf                      0      0     30
     SampleApp_SendHeartBeatMessageEnd
                                        2      0      0
       -> AfSendAddrInfo                4      0      0
     SampleApp_SendPeriodicMessage      2      0     36
       -> AF_DataRequest                0      0     46
       -> HalLedBlink                   0      0     28
     coinPort0Isr                       0      0     14
       -> myprintf                      0      0     28
       -> HalLedBlink                   0      0     28
     convertHexToStr                    1      0     27
       -> HalLcdWriteString             0      0     36
     printAddrInfoHex                   0      0     15
       -> myprintf                      0      0     26
       -> myprintf                      0      0     26
       -> myprintf                      0      0     30
       -> myprintf                      0      0     26


   Segment part sizes:

     Function/Label                             Bytes
     --------------                             -----
     _A_P0                                         1
     P0IFG                                         1
     _A_IRCON                                      1
     P0SEL                                         1
     P0DIR                                         1
     SampleApp_ClusterList                         8
     SampleApp_SimpleDesc                         12
     SampleApp_epDesc                              6
     GenericApp_DstAddr                           12
     EndPoint_DstAddr                             12
     SampleApp_TaskID                              1
     SampleApp_NwkState                            1
     SampleApp_TransID                             1
     SampleApp_Periodic_DstAddr                   12
     SampleApp_TxAddr                             12
     SampleApp_Group                              18
     SampleAppPeriodicCounter                      1
     SampleAppFlashCounter                         1
     LL                                            2
     NeedCoinDelivered                             1
     coinPort0Isr                                 37
     SampleApp_Init                              199
     ??Subroutine15_0                              5
     SampleApp_ProcessEvent                      371
     ?Subroutine4                                 17
     ?Subroutine5                                  4
     ??Subroutine13_0                              2
     ??Subroutine14_0                             11
     ?Subroutine10                                 6
     ?Subroutine8                                  9
     SampleApp_HandleKeys                         15
     ?Subroutine1                                  5
     recvTestMsgCount                              2
     SampleApp_MessageMSGCB                      140
     ?Subroutine9                                  8
     ?Subroutine6                                 16
     ?Subroutine12                                11
     ?Subroutine7                                 10
     SampleApp_SendPeriodicMessage               128
     ?Subroutine2                                  8
     totalSendTestCount                            2
     sendTestCount                                 2
     SampleApp_SendHeartBeatMessageCoor
                                                 125
     SampleApp_SendHeartBeatMessageEnd
                                                  16
     AfSendAddrInfo                              205
     ?Subroutine3                                 14
     ?Subroutine0                                  3
     AfReplyGetCoinCmd                           185
     printAddrInfoHex                            112
     convertHexToStr                             137
     ?Subroutine11                                19
     ??coinPort0Isr??INTVEC 107                    3
     ??SampleApp_Init?relay                        6
     ??SampleApp_ProcessEvent?relay                6
     ??SampleApp_HandleKeys?relay                  6
     ??SampleApp_MessageMSGCB?relay                6
     ??SampleApp_SendPeriodicMessage?relay         6
     ??SampleApp_SendHeartBeatMessageCoor?relay    6
     ??SampleApp_SendHeartBeatMessageEnd?relay     6
     ??AfSendAddrInfo?relay                        6
     ??AfReplyGetCoinCmd?relay                     6
     ??printAddrInfoHex?relay                      6
     ??convertHexToStr?relay                       6
     ?<Constant "P0 interrupt\n">                 14
     ?<Constant "Group 1">                         8
     ?<Constant "UartInit OK\n">                  13
     ?<Constant {35, 69, 64}>                      3
     ?<Constant "ERROR:AF_DATA_CONFIRM...">       34
     ?<Constant "unknown pkg-event = 0...">       26
     ?<Constant "Get COIN_MSG_EVT, Nee...">       42
     ?<Constant "Discard unknown event...">       29
     ?<Constant "Recv:">                           6
     ?<Constant {35, 49, 0, 64}>                   4
     ?<Constant {35, 70, 64}>                      3
     ?<Constant "sendTestCount = %d\n">           20
     ?<Constant {0}>                              13
     ?<Constant {0}>_1                            11
     ?<Constant "\n">                              2
     ?<Constant "; IEEE = ">                      10
     ?<Constant "0x%x,">                           6

 
 1 781 bytes in segment BANKED_CODE
    66 bytes in segment BANK_RELAYS
     3 bytes in segment INTVEC
    37 bytes in segment NEAR_CODE
     5 bytes in segment SFR_AN
   264 bytes in segment XDATA_ROM_C
    86 bytes in segment XDATA_Z
 
 1 884 bytes of CODE  memory (+ 3 bytes shared)
   264 bytes of CONST memory
     0 bytes of DATA  memory (+ 5 bytes shared)
    86 bytes of XDATA memory

Errors: none
Warnings: none
