###############################################################################
#                                                                             #
# IAR C/C++ Compiler V8.10.3.10338/W32 for 8051         18/Jun/2019  09:27:00 #
# Copyright 2004-2011 IAR Systems AB.                                         #
#                                                                             #
#    Core               =  plain                                              #
#    Code model         =  banked                                             #
#    Data model         =  large                                              #
#    Calling convention =  xdata reentrant                                    #
#    Constant location  =  data_rom                                           #
#    Dptr setup         =  1,16                                               #
#    Source file        =  E:\Github_Repository\zigbee-net-tech\ZStack-2.5.1a #
#                          \Projects\zstack\Samples\SampleApp\Source\SampleAp #
#                          p.c                                                #
#    Command line       =  -f E:\Github_Repository\zigbee-net-tech\ZStack-2.5 #
#                          .1a\Projects\zstack\Samples\SampleApp\CC2530DB\..\ #
#                          ..\..\Tools\CC2530DB\f8wEndev.cfg (-DCPU32MHZ      #
#                          -DROOT=__near_func -DMAC_CFG_TX_DATA_MAX=3         #
#                          -DMAC_CFG_TX_MAX=6 -DMAC_CFG_RX_MAX=3              #
#                          -DEND_DEVICE) -f E:\Github_Repository\zigbee-net-t #
#                          ech\ZStack-2.5.1a\Projects\zstack\Samples\SampleAp #
#                          p\CC2530DB\..\..\..\Tools\CC2530DB\f8wConfig.cfg   #
#                          (-DZIGBEEPRO -DSECURE=0 -DZG_SECURE_DYNAMIC=0      #
#                          -DREFLECTOR -DDEFAULT_CHANLIST=0x00000800          #
#                          -DZDAPP_CONFIG_PAN_ID=0xFFF1                       #
#                          -DNWK_START_DELAY=100 -DEXTENDED_JOINING_RANDOM_MA #
#                          SK=0x007F -DBEACON_REQUEST_DELAY=100               #
#                          -DBEACON_REQ_DELAY_MASK=0x00FF                     #
#                          -DLINK_STATUS_JITTER_MASK=0x007F                   #
#                          -DROUTE_EXPIRY_TIME=30 -DAPSC_ACK_WAIT_DURATION_PO #
#                          LLED=3000 -DNWK_INDIRECT_MSG_TIMEOUT=7             #
#                          -DMAX_RREQ_ENTRIES=8 -DAPSC_MAX_FRAME_RETRIES=3    #
#                          -DNWK_MAX_DATA_RETRIES=2                           #
#                          -DMAX_POLL_FAILURE_RETRIES=2 -DMAX_BCAST=9         #
#                          -DAPS_MAX_GROUPS=16 -DMAX_RTG_ENTRIES=40           #
#                          -DNWK_MAX_BINDING_ENTRIES=4                        #
#                          -DMAX_BINDING_CLUSTER_IDS=4 "-DDEFAULT_KEY={0x01,  #
#                          0x03, 0x05, 0x07, 0x09, 0x0B, 0x0D, 0x0F, 0x00,    #
#                          0x02, 0x04, 0x06, 0x08, 0x0A, 0x0C, 0x0D}"         #
#                          -DMAC_MAX_FRAME_SIZE=116                           #
#                          -DZDNWKMGR_MIN_TRANSMISSIONS=20 "-DCONST=const     #
#                          __code" -DGENERIC=__generic                        #
#                          -DRFD_RCVC_ALWAYS_ON=FALSE -DPOLL_RATE=1000        #
#                          -DQUEUED_POLL_RATE=100 -DRESPONSE_POLL_RATE=100)   #
#                          -DREJOIN_POLL_RATE=440 E:\Github_Repository\zigbee #
#                          -net-tech\ZStack-2.5.1a\Projects\zstack\Samples\Sa #
#                          mpleApp\Source\SampleApp.c -D NWK_AUTO_POLL -D     #
#                          ZTOOL_P1 -D MT_TASK -D MT_SYS_FUNC -D MT_ZDO_FUNC  #
#                          -lC E:\Github_Repository\zigbee-net-tech\ZStack-2. #
#                          5.1a\Projects\zstack\Samples\SampleApp\CC2530DB\En #
#                          dDeviceEB\List\ -lA E:\Github_Repository\zigbee-ne #
#                          t-tech\ZStack-2.5.1a\Projects\zstack\Samples\Sampl #
#                          eApp\CC2530DB\EndDeviceEB\List\ --diag_suppress    #
#                          Pe001,Pa010 -o E:\Github_Repository\zigbee-net-tec #
#                          h\ZStack-2.5.1a\Projects\zstack\Samples\SampleApp\ #
#                          CC2530DB\EndDeviceEB\Obj\ -e --no_code_motion      #
#                          --debug --core=plain --dptr=16,1                   #
#                          --data_model=large --code_model=banked             #
#                          --calling_convention=xdata_reentrant               #
#                          --place_constants=data_rom --nr_virtual_regs 16    #
#                          -I E:\Github_Repository\zigbee-net-tech\ZStack-2.5 #
#                          .1a\Projects\zstack\Samples\SampleApp\CC2530DB\    #
#                          -I E:\Github_Repository\zigbee-net-tech\ZStack-2.5 #
#                          .1a\Projects\zstack\Samples\SampleApp\CC2530DB\..\ #
#                          Source\ -I E:\Github_Repository\zigbee-net-tech\ZS #
#                          tack-2.5.1a\Projects\zstack\Samples\SampleApp\CC25 #
#                          30DB\..\..\..\ZMain\TI2530DB\ -I                   #
#                          E:\Github_Repository\zigbee-net-tech\ZStack-2.5.1a #
#                          \Projects\zstack\Samples\SampleApp\CC2530DB\..\..\ #
#                          ..\..\..\Components\hal\include\ -I                #
#                          E:\Github_Repository\zigbee-net-tech\ZStack-2.5.1a #
#                          \Projects\zstack\Samples\SampleApp\CC2530DB\..\..\ #
#                          ..\..\..\Components\hal\target\CC2530EB\ -I        #
#                          E:\Github_Repository\zigbee-net-tech\ZStack-2.5.1a #
#                          \Projects\zstack\Samples\SampleApp\CC2530DB\..\..\ #
#                          ..\..\..\Components\mac\include\ -I                #
#                          E:\Github_Repository\zigbee-net-tech\ZStack-2.5.1a #
#                          \Projects\zstack\Samples\SampleApp\CC2530DB\..\..\ #
#                          ..\..\..\Components\mac\high_level\ -I             #
#                          E:\Github_Repository\zigbee-net-tech\ZStack-2.5.1a #
#                          \Projects\zstack\Samples\SampleApp\CC2530DB\..\..\ #
#                          ..\..\..\Components\mac\low_level\srf04\ -I        #
#                          E:\Github_Repository\zigbee-net-tech\ZStack-2.5.1a #
#                          \Projects\zstack\Samples\SampleApp\CC2530DB\..\..\ #
#                          ..\..\..\Components\mac\low_level\srf04\single_chi #
#                          p\ -I E:\Github_Repository\zigbee-net-tech\ZStack- #
#                          2.5.1a\Projects\zstack\Samples\SampleApp\CC2530DB\ #
#                          ..\..\..\..\..\Components\mt\ -I                   #
#                          E:\Github_Repository\zigbee-net-tech\ZStack-2.5.1a #
#                          \Projects\zstack\Samples\SampleApp\CC2530DB\..\..\ #
#                          ..\..\..\Components\osal\include\ -I               #
#                          E:\Github_Repository\zigbee-net-tech\ZStack-2.5.1a #
#                          \Projects\zstack\Samples\SampleApp\CC2530DB\..\..\ #
#                          ..\..\..\Components\services\saddr\ -I             #
#                          E:\Github_Repository\zigbee-net-tech\ZStack-2.5.1a #
#                          \Projects\zstack\Samples\SampleApp\CC2530DB\..\..\ #
#                          ..\..\..\Components\services\sdata\ -I             #
#                          E:\Github_Repository\zigbee-net-tech\ZStack-2.5.1a #
#                          \Projects\zstack\Samples\SampleApp\CC2530DB\..\..\ #
#                          ..\..\..\Components\stack\af\ -I                   #
#                          E:\Github_Repository\zigbee-net-tech\ZStack-2.5.1a #
#                          \Projects\zstack\Samples\SampleApp\CC2530DB\..\..\ #
#                          ..\..\..\Components\stack\nwk\ -I                  #
#                          E:\Github_Repository\zigbee-net-tech\ZStack-2.5.1a #
#                          \Projects\zstack\Samples\SampleApp\CC2530DB\..\..\ #
#                          ..\..\..\Components\stack\sapi\ -I                 #
#                          E:\Github_Repository\zigbee-net-tech\ZStack-2.5.1a #
#                          \Projects\zstack\Samples\SampleApp\CC2530DB\..\..\ #
#                          ..\..\..\Components\stack\sec\ -I                  #
#                          E:\Github_Repository\zigbee-net-tech\ZStack-2.5.1a #
#                          \Projects\zstack\Samples\SampleApp\CC2530DB\..\..\ #
#                          ..\..\..\Components\stack\sys\ -I                  #
#                          E:\Github_Repository\zigbee-net-tech\ZStack-2.5.1a #
#                          \Projects\zstack\Samples\SampleApp\CC2530DB\..\..\ #
#                          ..\..\..\Components\stack\zdo\ -I                  #
#                          E:\Github_Repository\zigbee-net-tech\ZStack-2.5.1a #
#                          \Projects\zstack\Samples\SampleApp\CC2530DB\..\..\ #
#                          ..\..\..\Components\zmac\ -I                       #
#                          E:\Github_Repository\zigbee-net-tech\ZStack-2.5.1a #
#                          \Projects\zstack\Samples\SampleApp\CC2530DB\..\..\ #
#                          ..\..\..\Components\zmac\f8w\ -Ohz                 #
#                          --require_prototypes                               #
#    List file          =  E:\Github_Repository\zigbee-net-tech\ZStack-2.5.1a #
#                          \Projects\zstack\Samples\SampleApp\CC2530DB\EndDev #
#                          iceEB\List\SampleApp.lst                           #
#    Object file        =  E:\Github_Repository\zigbee-net-tech\ZStack-2.5.1a #
#                          \Projects\zstack\Samples\SampleApp\CC2530DB\EndDev #
#                          iceEB\Obj\SampleApp.r51                            #
#                                                                             #
#                                                                             #
###############################################################################

E:\Github_Repository\zigbee-net-tech\ZStack-2.5.1a\Projects\zstack\Samples\SampleApp\Source\SampleApp.c
      1          /**************************************************************************************************
      2          Filename:       SampleApp.c
      3          Revised:        $Date: 2009-03-18 15:56:27 -0700 (Wed, 18 Mar 2009) $
      4          Revision:       $Revision: 19453 $
      5          
      6          Description:    Sample Application (no Profile).
      7          **************************************************************************************************/
      8          
      9          /*********************************************************************
     10          需要修改的文件包含功能如下：
     11          ZMain/ZMain.c是主函数
     12          HAL/hal_drivers.c进行外部中断的初始化
     13          MT/MT_UART.c中进行串口消息的接收
     14          SampleApp.c中定义中断响应函数，以及事件消息处理函数等
     15          SingleLinkedList.c中定义了单链表的实现
     16          *********************************************************************/
     17          
     18          /*********************************************************************
     19          * INCLUDES
     20          */
     21          #include "OSAL.h"
     22          #include "ZGlobals.h"
     23          #include "AF.h"
     24          #include "aps_groups.h"
     25          #include "ZDObject.h"
     26          #include "ZDProfile.h"
     27          #include "ZDApp.h"
     28          
     29          #include "SampleApp.h"
     30          #include "SampleAppHw.h"
     31          #include "SinglyLinkedList.h"
     32          
     33          #include "OnBoard.h"

   \                                 In  segment SFR_AN, at 0x89
   \   unsigned char volatile __sfr P0IFG
   \                     P0IFG:
   \   000000                DS 1

   \                                 In  segment SFR_AN, at 0x90
   \   union <unnamed> volatile __sfr _A_P1
   \                     _A_P1:
   \   000000                DS 1

   \                                 In  segment SFR_AN, at 0xc0
   \   union <unnamed> volatile __sfr _A_IRCON
   \                     _A_IRCON:
   \   000000                DS 1

   \                                 In  segment SFR_AN, at 0xf4
   \   unsigned char volatile __sfr P1SEL
   \                     P1SEL:
   \   000000                DS 1

   \                                 In  segment SFR_AN, at 0xfe
   \   unsigned char volatile __sfr P1DIR
   \                     P1DIR:
   \   000000                DS 1
     34          
     35          /* HAL */
     36          #include "hal_lcd.h"
     37          #include "hal_led.h"
     38          #include "hal_key.h"
     39          
     40          #include "MT_UART.h"
     41          #include "MT_APP.h"
     42          #include "MT.h"
     43          
     44          /*******
     45            一些测试用的宏开关
     46          */
     47          // #define NEED_TEST_DIStANCE
     48          
     49          /*********************************************************************
     50          * MACROS
     51          */
     52          #define COIN_RECV_PIN      P0_4      //中断输入下降沿触发，定义P0.7口为中断方式接收投币器信号引脚40ms
     53          #define REWARD_OUTPUT_PIN  P0_6      //中断输入下降沿触发，彩票奖励输出个数信号引脚，输出一个彩票奖励则产生一个40ms的低电平
     54          
     55          #define COIN_SIMULATE_PIN  P1_2      //输出，定义P1.2口为替换投币器模拟信号发生引脚
     56          #define REWARD_RECV_PIN    P1_3      //输入，定义彩票机动作触发引脚，初始高电平，变成低电平表示游戏结束进行出彩票动作
     57          #define REWARD_CTL_PIN     P1_4      //输出，代替彩票机的动作控制引脚，输出低电平开始出彩票
     58          #define REWARD_BACK_PIN    P1_5      //输出，向游戏机反馈彩票纸的出票个数，模拟产生一个40ms的低电平脉冲
     59          
     60          #define UART0        0x00
     61          #define COIN_SIGNAL_HALF_TIME 40 // Ms
     62          #define REWARD_SIGNAL_HALF_TIME 40
     63          
     64          // This list should be filled with Application specific Cluster IDs.

   \                                 In  segment XDATA_ROM_C, align 1
     65          const cId_t SampleApp_ClusterList[SAMPLEAPP_MAX_CLUSTERS] =
   \                     SampleApp_ClusterList:
   \   000000   0100         DW 1
   \   000002   0200         DW 2
   \   000004   0000         DW 0
   \   000006   0000         DW 0
     66          {
     67            SAMPLEAPP_PERIODIC_CLUSTERID,
     68            SAMPLEAPP_FLASH_CLUSTERID
     69          };
     70          

   \                                 In  segment XDATA_ROM_C, align 1
     71          const SimpleDescriptionFormat_t SampleApp_SimpleDesc =
   \                     SampleApp_SimpleDesc:
   \   000000   14           DB 20
   \   000001   080F         DW 3848
   \   000003   0100         DW 1
   \   000005   00           DB 0
   \   000006   04           DB 4
   \   000007   ....         DW SampleApp_ClusterList
   \   000009   04           DB 4
   \   00000A   ....         DW SampleApp_ClusterList
     72          {
     73            SAMPLEAPP_ENDPOINT,              //  int Endpoint;
     74            SAMPLEAPP_PROFID,                //  uint16 AppProfId[2];
     75            SAMPLEAPP_DEVICEID,              //  uint16 AppDeviceId[2];
     76            SAMPLEAPP_DEVICE_VERSION,        //  int   AppDevVer:4;
     77            SAMPLEAPP_FLAGS,                 //  int   AppFlags:4;
     78            SAMPLEAPP_MAX_CLUSTERS,          //  uint8  AppNumInClusters;
     79            (cId_t *)SampleApp_ClusterList,  //  uint8 *pAppInClusterList;
     80            SAMPLEAPP_MAX_CLUSTERS,          //  uint8  AppNumInClusters;
     81            (cId_t *)SampleApp_ClusterList   //  uint8 *pAppInClusterList;
     82          };
     83          
     84          // This is the Endpoint/Interface description.  It is defined here, but
     85          // filled-in in SampleApp_Init().  Another way to go would be to fill
     86          // in the structure here and make it a "const" (in code space).  The
     87          // way it's defined in this sample app it is define in RAM.

   \                                 In  segment XDATA_Z, align 1, keep-with-next
     88          endPointDesc_t SampleApp_epDesc;
   \                     SampleApp_epDesc:
   \   000000                DS 6
   \   000006                REQUIRE __INIT_XDATA_Z

   \                                 In  segment XDATA_Z, align 1, keep-with-next
     89          afAddrType_t GenericApp_DstAddr;
   \                     GenericApp_DstAddr:
   \   000000                DS 12
   \   00000C                REQUIRE __INIT_XDATA_Z

   \                                 In  segment XDATA_Z, align 1, keep-with-next
     90          afAddrType_t EndPoint_DstAddr;
   \                     EndPoint_DstAddr:
   \   000000                DS 12
   \   00000C                REQUIRE __INIT_XDATA_Z
     91          
     92          /*********************************************************************
     93          * LOCAL VARIABLES
     94          */

   \                                 In  segment XDATA_Z, align 1, keep-with-next
     95          uint8 SampleApp_TaskID;   // Task ID for internal task/event processing
   \                     SampleApp_TaskID:
   \   000000                DS 1
   \   000001                REQUIRE __INIT_XDATA_Z
     96          // This variable will be received when
     97          // SampleApp_Init() is called.

   \                                 In  segment XDATA_Z, align 1, keep-with-next
     98          devStates_t SampleApp_NwkState;
   \                     SampleApp_NwkState:
   \   000000                DS 1
   \   000001                REQUIRE __INIT_XDATA_Z
     99          

   \                                 In  segment XDATA_Z, align 1, keep-with-next
    100          uint8 SampleApp_TransID;  // This is the unique message ID (counter)
   \                     SampleApp_TransID:
   \   000000                DS 1
   \   000001                REQUIRE __INIT_XDATA_Z
    101          

   \                                 In  segment XDATA_Z, align 1, keep-with-next
    102          afAddrType_t SampleApp_Periodic_DstAddr; // 用于协调器广播消息
   \                     SampleApp_Periodic_DstAddr:
   \   000000                DS 12
   \   00000C                REQUIRE __INIT_XDATA_Z

   \                                 In  segment XDATA_Z, align 1, keep-with-next
    103          afAddrType_t SampleApp_TxAddr; // 用于终端设备向协调器报告短地址信息
   \                     SampleApp_TxAddr:
   \   000000                DS 12
   \   00000C                REQUIRE __INIT_XDATA_Z
    104          

   \                                 In  segment XDATA_Z, align 1, keep-with-next
    105          aps_Group_t SampleApp_Group;
   \                     SampleApp_Group:
   \   000000                DS 18
   \   000012                REQUIRE __INIT_XDATA_Z

   \                                 In  segment XDATA_Z, align 1, keep-with-next
    106          uint8 SampleAppPeriodicCounter = 0;
   \                     SampleAppPeriodicCounter:
   \   000000                DS 1
   \   000001                REQUIRE __INIT_XDATA_Z

   \                                 In  segment XDATA_Z, align 1, keep-with-next
    107          uint8 SampleAppFlashCounter = 0;
   \                     SampleAppFlashCounter:
   \   000000                DS 1
   \   000001                REQUIRE __INIT_XDATA_Z
    108          

   \                                 In  segment XDATA_Z, align 1, keep-with-next
    109          LinkList LL; // 定义线性链表存储终端地址以及心跳信息
   \                     LL:
   \   000000                DS 2
   \   000002                REQUIRE __INIT_XDATA_Z
    110          
    111          /*********************************************************************
    112          * LOCAL FUNCTIONS
    113          */
    114          void AfSendAddrInfo(uint8 cmd);
    115          void AfReplyGetCoinCmd(void);
    116          void SampleApp_HandleKeys( uint8 shift, uint8 keys );
    117          void SampleApp_MessageMSGCB( afIncomingMSGPacket_t *pckt );
    118          void SampleApp_SendPeriodicMessage( int8 whichKey );
    119          void SampleApp_SendHeartBeatMessageCoor(void);
    120          void SampleApp_SendHeartBeatMessageEnd(void);
    121          void printAddrInfoHex(uint8* buf, uint8 dataLen);
    122          void convertHexToStr(uint16 addr, uint8 lcdLineNum);
    123          void checkGameIsOverReward(void);
    124          

   \                                 In  segment XDATA_Z, align 1, keep-with-next
    125          int8 NeedCoinDelivered = 0; // 定义终端需要处理的投币个数
   \                     NeedCoinDelivered:
   \   000000                DS 1
   \   000001                REQUIRE __INIT_XDATA_Z

   \                                 In  segment XDATA_Z, align 1, keep-with-next
    126          int8 NeedCoinTransport = 0; // 需要转发的投币器信号数量
   \                     NeedCoinTransport:
   \   000000                DS 1
   \   000001                REQUIRE __INIT_XDATA_Z

   \                                 In  segment XDATA_Z, align 1, keep-with-next
    127          uint8 gameWillOver = 0; // 是否游戏结束开始出彩票
   \                     gameWillOver:
   \   000000                DS 1
   \   000001                REQUIRE __INIT_XDATA_Z

   \                                 In  segment XDATA_Z, align 1, keep-with-next
    128          uint8 rewardCount = 0;  // 一次游戏出彩票个数统计
   \                     rewardCount:
   \   000000                DS 1
   \   000001                REQUIRE __INIT_XDATA_Z
    129          
    130          /**
    131            终端设备P1端口中断处理函数，用来接收投币器的信号
    132          */
    133          #ifdef END_DEVICE

   \                                 In  segment NEAR_CODE, align 1, keep-with-next
    134          HAL_ISR_FUNCTION( port0Isr, P0INT_VECTOR ) // P0_5配置为投币器电平变化中断引脚，在HAL/Common/hal_drivers.c中进行的引脚初始化
   \                     port0Isr:
    135          { 
   \   000000   C0E0         PUSH    A
   \   000002   74F2         MOV     A,#-0xe
   \   000004   12....       LCALL   ?INTERRUPT_ENTER_XSP
   \   000007                ; Saved register size: 14
   \   000007                ; Auto size: 0
    136            if((P0IFG >> 4) & 0x1 == 1) { // 中断p0_4引脚产生中断，投币信号
   \   000007   E589         MOV     A,0x89
   \   000009   A2E4         MOV     C,0xE0 /* A   */.4
   \   00000B   5020         JNC     ??port0Isr_0
    137              P0IFG &= ~(0x1 << 4);       //端口0中断状态标志
   \   00000D   5389EF       ANL     0x89,#0xef
    138              NeedCoinTransport = 1;
   \   000010   90....       MOV     DPTR,#NeedCoinTransport
   \   000013   7401         MOV     A,#0x1
   \   000015   F0           MOVX    @DPTR,A
    139              osal_start_timerEx( SampleApp_TaskID, SAMPLEAPP_TRANSPORT_COIN_MSG_EVT, COIN_SIGNAL_HALF_TIME); // 产生一个定时器事件
   \   000016                ; Setup parameters for call to function osal_start_timerEx
   \   000016   7C28         MOV     R4,#0x28
   \   000018   7D00         MOV     R5,#0x0
   \   00001A   7A04         MOV     R2,#0x4
   \   00001C   7B00         MOV     R3,#0x0
   \   00001E   90....       MOV     DPTR,#SampleApp_TaskID
   \   000021   E0           MOVX    A,@DPTR
   \   000022   F9           MOV     R1,A
   \   000023   12....       LCALL   ??osal_start_timerEx?relay
    140              myprintf("get p0_4 coin input interrupt\n");
   \   000026                ; Setup parameters for call to function myprintf
   \   000026   7A..         MOV     R2,#`?<Constant "get p0_4 coin input i...">` & 0xff
   \   000028   7B..         MOV     R3,#(`?<Constant "get p0_4 coin input i...">` >> 8) & 0xff
   \   00002A   12....       LCALL   ??myprintf?relay
    141            } 
    142            if((P0IFG >> 6) & 0x1 == 1) { // P0_6引脚，彩票机出一个彩票中断信号，转发到游戏机并上传服务器
   \                     ??port0Isr_0:
   \   00002D   E589         MOV     A,0x89
   \   00002F   A2E6         MOV     C,0xE0 /* A   */.6
   \   000031   501A         JNC     ??port0Isr_1
    143              P0IFG &= ~(0x1 << 6);    
   \   000033   5389BF       ANL     0x89,#0xbf
    144              osal_start_timerEx( SampleApp_TaskID, SAMPLEAPP_TRANSPORT_REWARD_MSG_EVT, REWARD_SIGNAL_HALF_TIME); // 产生一个定时器事件
   \   000036                ; Setup parameters for call to function osal_start_timerEx
   \   000036   7C28         MOV     R4,#0x28
   \   000038   7D00         MOV     R5,#0x0
   \   00003A   7A08         MOV     R2,#0x8
   \   00003C   7B00         MOV     R3,#0x0
   \   00003E   90....       MOV     DPTR,#SampleApp_TaskID
   \   000041   E0           MOVX    A,@DPTR
   \   000042   F9           MOV     R1,A
   \   000043   12....       LCALL   ??osal_start_timerEx?relay
    145              myprintf("Get p0_6 one reward interrupt\n");
   \   000046                ; Setup parameters for call to function myprintf
   \   000046   7A..         MOV     R2,#`?<Constant "Get p0_6 one reward i...">` & 0xff
   \   000048   7B..         MOV     R3,#(`?<Constant "Get p0_6 one reward i...">` >> 8) & 0xff
   \   00004A   12....       LCALL   ??myprintf?relay
    146            }
    147            
    148            P0IF = 0;        //端口0中断标志，0表示无中断未决，1表示有中断未决，需要每次触发之后置0，不然会一直触发中断 
   \                     ??port0Isr_1:
   \   00004D   C2C5         CLR     0xc0.5
    149          }
   \   00004F   7F01         MOV     R7,#0x1
   \   000051   02....       LJMP    ?INTERRUPT_LEAVE_XSP
   \   000054                REQUIRE P0IFG
   \   000054                REQUIRE _A_IRCON
    150          #endif
    151          
    152          /**
    153          * 自定义任务初始化函数
    154          */

   \                                 In  segment BANKED_CODE, align 1, keep-with-next
    155          void SampleApp_Init( uint8 task_id )
   \                     SampleApp_Init:
    156          {
   \   000000   74F5         MOV     A,#-0xb
   \   000002   12....       LCALL   ?BANKED_ENTER_XDATA
   \   000005                ; Saved register size: 11
   \   000005                ; Auto size: 0
   \   000005   E9           MOV     A,R1
   \   000006   FE           MOV     R6,A
    157            halUARTCfg_t uartConfig;
    158            
    159            SampleApp_TaskID = task_id;
   \   000007   90....       MOV     DPTR,#SampleApp_TaskID
   \   00000A   F0           MOVX    @DPTR,A
    160            SampleApp_NwkState = DEV_INIT;
   \   00000B   90....       MOV     DPTR,#SampleApp_NwkState
   \   00000E   7401         MOV     A,#0x1
   \   000010   F0           MOVX    @DPTR,A
    161            SampleApp_TransID = 0;
   \   000011   90....       MOV     DPTR,#SampleApp_TransID
   \   000014   E4           CLR     A
   \   000015   F0           MOVX    @DPTR,A
    162            
    163          #ifdef END_DEVICE
    164            //P1_2输出，投币器模拟信号产生引脚
    165            P1SEL &= ~(0x01 << 2);         //设置P1.2口为普通IO
   \   000016   53F4FB       ANL     0xf4,#0xfb
    166            P1DIR |= (0x01 << 2);          //设置P1.2口为输出
   \   000019   43FE04       ORL     0xfe,#0x4
    167            COIN_SIMULATE_PIN = 1;       // 投币器信号模拟输出引脚
   \   00001C   D292         SETB    0x90.2
    168            
    169            //P1_3输入，彩票机动作触发引脚，检测到变成低电平开始出彩票，在主函数中需要不停的读取P1.3引脚状态
    170            P1SEL &= ~(0x01 << 3);
   \   00001E   53F4F7       ANL     0xf4,#0xf7
    171            P1DIR &= ~(0x01 << 3);
   \   000021   53FEF7       ANL     0xfe,#0xf7
    172          
    173            // P1_4输出，代替彩票机的动作控制引脚
    174            P1SEL &= ~(0x01 << 4);
   \   000024   53F4EF       ANL     0xf4,#0xef
    175            P1DIR |= (0x01 << 4);
   \   000027   43FE10       ORL     0xfe,#0x10
    176            REWARD_CTL_PIN = 1; // 初始高电平，低电平彩票机开始动作
   \   00002A   D294         SETB    0x90.4
    177            
    178            // P1_5输出，向游戏机模拟反馈出了一个彩票信号，低电平40Ms
    179            P1SEL &= ~(0x01 << 5);
   \   00002C   53F4DF       ANL     0xf4,#0xdf
    180            P1DIR |= (0x01 << 5);
   \   00002F   43FE20       ORL     0xfe,#0x20
    181            REWARD_BACK_PIN = 1;  
   \   000032   D295         SETB    0x90.5
    182          #endif
    183            
    184          #if defined ( BUILD_ALL_DEVICES )
    185            // The "Demo" target is setup to have BUILD_ALL_DEVICES and HOLD_AUTO_START
    186            // We are looking at a jumper (defined in SampleAppHw.c) to be jumpered
    187            // together - if they are - we will start up a coordinator. Otherwise,
    188            // the device will start as a router.
    189            if ( readCoordinatorJumper() )
    190              zgDeviceLogicalType = ZG_DEVICETYPE_COORDINATOR;
    191            else
    192              zgDeviceLogicalType = ZG_DEVICETYPE_ROUTER;
    193          #endif // BUILD_ALL_DEVICES
    194            
    195          #if defined ( HOLD_AUTO_START )
    196            // HOLD_AUTO_START is a compile option that will surpress ZDApp
    197            //  from starting the device and wait for the application to
    198            //  start the device.
    199            ZDOInitDevice(0);
    200          #endif
    201            
    202            GenericApp_DstAddr.addrMode = (afAddrMode_t)AddrNotPresent;
   \   000034   90....       MOV     DPTR,#GenericApp_DstAddr + 8
   \   000037   F0           MOVX    @DPTR,A
    203            GenericApp_DstAddr.endPoint = 0;
   \   000038   A3           INC     DPTR
   \   000039   F0           MOVX    @DPTR,A
    204            GenericApp_DstAddr.addr.shortAddr = 0;
   \   00003A   90....       MOV     DPTR,#GenericApp_DstAddr
   \   00003D   F0           MOVX    @DPTR,A
   \   00003E   A3           INC     DPTR
   \   00003F   F0           MOVX    @DPTR,A
    205            
    206            // Setup for the periodic message's destination address
    207            // Broadcast to everyone
    208            // 协调器广播发送数据到终端
    209            SampleApp_Periodic_DstAddr.addrMode = (afAddrMode_t)AddrBroadcast;
   \   000040   90....       MOV     DPTR,#SampleApp_Periodic_DstAddr + 8
   \   000043   740F         MOV     A,#0xf
   \   000045   F0           MOVX    @DPTR,A
    210            SampleApp_Periodic_DstAddr.endPoint = SAMPLEAPP_ENDPOINT;
   \   000046   A3           INC     DPTR
   \   000047   7414         MOV     A,#0x14
   \   000049   F0           MOVX    @DPTR,A
    211            SampleApp_Periodic_DstAddr.addr.shortAddr = 0xFFFF; // 广播地址
   \   00004A   90....       MOV     DPTR,#SampleApp_Periodic_DstAddr
   \   00004D   74FF         MOV     A,#-0x1
   \   00004F   F0           MOVX    @DPTR,A
   \   000050   A3           INC     DPTR
   \   000051   F0           MOVX    @DPTR,A
    212            
    213            // 终端单播发送数据到协调器
    214            SampleApp_TxAddr.addrMode = (afAddrMode_t)Addr16Bit;
   \   000052   90....       MOV     DPTR,#SampleApp_TxAddr + 8
   \   000055   7402         MOV     A,#0x2
   \   000057   F0           MOVX    @DPTR,A
    215            SampleApp_TxAddr.endPoint = SAMPLEAPP_ENDPOINT;
   \   000058   A3           INC     DPTR
   \   000059   7414         MOV     A,#0x14
   \   00005B   F0           MOVX    @DPTR,A
    216            SampleApp_TxAddr.addr.shortAddr = 0x00; // 单播协调器地址
   \   00005C   90....       MOV     DPTR,#SampleApp_TxAddr
   \   00005F   E4           CLR     A
   \   000060   F0           MOVX    @DPTR,A
   \   000061   A3           INC     DPTR
   \   000062   F0           MOVX    @DPTR,A
    217            
    218            // 协调器单播发送到指定地址的终端上  
    219            EndPoint_DstAddr.addrMode = (afAddrMode_t)Addr16Bit;
   \   000063   90....       MOV     DPTR,#EndPoint_DstAddr + 8
   \   000066   7402         MOV     A,#0x2
   \   000068   F0           MOVX    @DPTR,A
    220            EndPoint_DstAddr.endPoint = SAMPLEAPP_ENDPOINT;
   \   000069   A3           INC     DPTR
   \   00006A   7414         MOV     A,#0x14
   \   00006C   F0           MOVX    @DPTR,A
    221            EndPoint_DstAddr.addr.shortAddr = 0x00; // 在发送的时候动态修改终端地址
   \   00006D   90....       MOV     DPTR,#EndPoint_DstAddr
   \   000070   E4           CLR     A
   \   000071   F0           MOVX    @DPTR,A
   \   000072   A3           INC     DPTR
   \   000073   F0           MOVX    @DPTR,A
    222            
    223            // Fill out the endpoint description.
    224            SampleApp_epDesc.endPoint = SAMPLEAPP_ENDPOINT; // 端点号
   \   000074   90....       MOV     DPTR,#SampleApp_epDesc
   \   000077   7414         MOV     A,#0x14
   \   000079   F0           MOVX    @DPTR,A
    225            SampleApp_epDesc.task_id = &SampleApp_TaskID; // 端点对应的任务
   \   00007A   A3           INC     DPTR
   \   00007B   74..         MOV     A,#SampleApp_TaskID & 0xff
   \   00007D   F0           MOVX    @DPTR,A
   \   00007E   A3           INC     DPTR
   \   00007F   74..         MOV     A,#(SampleApp_TaskID >> 8) & 0xff
   \   000081   F0           MOVX    @DPTR,A
    226            SampleApp_epDesc.simpleDesc = (SimpleDescriptionFormat_t *)&SampleApp_SimpleDesc; // 简单描述符
   \   000082   A3           INC     DPTR
   \   000083   74..         MOV     A,#SampleApp_SimpleDesc & 0xff
   \   000085   F0           MOVX    @DPTR,A
   \   000086   A3           INC     DPTR
   \   000087   74..         MOV     A,#(SampleApp_SimpleDesc >> 8) & 0xff
   \   000089   F0           MOVX    @DPTR,A
    227            SampleApp_epDesc.latencyReq = noLatencyReqs;  
   \   00008A   A3           INC     DPTR
   \   00008B   E4           CLR     A
   \   00008C   F0           MOVX    @DPTR,A
    228            afRegister( &SampleApp_epDesc ); // 注册一个应用的端点描述符，注册一个新的端点到任务，这样当有新的消息到来时直接发送到指定的任务中
   \   00008D                ; Setup parameters for call to function afRegister
   \   00008D   7A..         MOV     R2,#SampleApp_epDesc & 0xff
   \   00008F   7B..         MOV     R3,#(SampleApp_epDesc >> 8) & 0xff
   \   000091   12....       LCALL   ??afRegister?relay
    229            
    230            // 绑定按键事件到任务ID
    231            RegisterForKeys( SampleApp_TaskID );
   \   000094                ; Setup parameters for call to function RegisterForKeys
   \   000094   90....       MOV     DPTR,#SampleApp_TaskID
   \   000097   E0           MOVX    A,@DPTR
   \   000098   F9           MOV     R1,A
   \   000099   12....       LCALL   ??RegisterForKeys?relay
    232            
    233            // By default, all devices start out in Group 1
    234            SampleApp_Group.ID = 0x0001;
   \   00009C   90....       MOV     DPTR,#SampleApp_Group
   \   00009F   7401         MOV     A,#0x1
   \   0000A1   F0           MOVX    @DPTR,A
   \   0000A2   A3           INC     DPTR
   \   0000A3   E4           CLR     A
   \   0000A4   F0           MOVX    @DPTR,A
    235            osal_memcpy( SampleApp_Group.name, "Group 1", 7 );
   \   0000A5                ; Setup parameters for call to function osal_memcpy
   \   0000A5   75....       MOV     ?V0 + 0,#`?<Constant "Group 1">` & 0xff
   \   0000A8   75....       MOV     ?V0 + 1,#(`?<Constant "Group 1">` >> 8) & 0xff
   \   0000AB   F5..         MOV     ?V0 + 2,A
   \   0000AD   78..         MOV     R0,#?V0 + 0
   \   0000AF   12....       LCALL   ?PUSH_XSTACK_I_THREE
   \   0000B2   7C07         MOV     R4,#0x7
   \   0000B4   7D00         MOV     R5,#0x0
   \   0000B6   7A..         MOV     R2,#(SampleApp_Group + 2) & 0xff
   \   0000B8   7B..         MOV     R3,#((SampleApp_Group + 2) >> 8) & 0xff
   \   0000BA   12....       LCALL   ??Subroutine20_0 & 0xFFFF
   \                     ??CrossCallReturnLabel_42:
   \   0000BD   12....       LCALL   ?DEALLOC_XSTACK8
    236            aps_AddGroup( SAMPLEAPP_ENDPOINT, &SampleApp_Group );
   \   0000C0                ; Setup parameters for call to function aps_AddGroup
   \   0000C0   7A..         MOV     R2,#SampleApp_Group & 0xff
   \   0000C2   7B..         MOV     R3,#(SampleApp_Group >> 8) & 0xff
   \   0000C4   7914         MOV     R1,#0x14
   \   0000C6   12....       LCALL   ??aps_AddGroup?relay
    237            
    238            // 初始化串口
    239            MT_UartInit();                    //串口初始化
   \   0000C9                ; Setup parameters for call to function MT_UartInit
   \   0000C9   12....       LCALL   ??MT_UartInit?relay
    240            MT_UartRegisterTaskID(task_id);   //注册串口任务
   \   0000CC                ; Setup parameters for call to function MT_UartRegisterTaskID
   \   0000CC   EE           MOV     A,R6
   \   0000CD   F9           MOV     R1,A
   \   0000CE   12....       LCALL   ??MT_UartRegisterTaskID?relay
    241            myprintf("UartInit OK\n");
   \   0000D1                ; Setup parameters for call to function myprintf
   \   0000D1   7A..         MOV     R2,#`?<Constant "UartInit OK\\n">` & 0xff
   \   0000D3   7B..         MOV     R3,#(`?<Constant "UartInit OK\\n">` >> 8) & 0xff
   \   0000D5   12....       LCALL   ??myprintf?relay
    242          
    243          #ifdef ZDO_COORDINATOR   
    244            int ret = InitList_L(&LL); // 单链表初始化
    245            if(ret == OVERFLOW) {
    246              myprintf("InitList_L OVERFLOW\n");
    247            }
    248          #endif  
    249          }
   \   0000D8   02....       LJMP    ??Subroutine21_0 & 0xFFFF
   \   0000DB                REQUIRE P1SEL
   \   0000DB                REQUIRE P1DIR
   \   0000DB                REQUIRE _A_P1

   \                                 In  segment BANKED_CODE, align 1, keep-with-next
   \                     ??Subroutine20_0:
   \   000000   12....       LCALL   ??osal_memcpy?relay
   \   000003   7403         MOV     A,#0x3
   \   000005   22           RET

   \                                 In  segment BANKED_CODE, align 1, keep-with-next
   \                     ??Subroutine21_0:
   \   000000   7F03         MOV     R7,#0x3
   \   000002   02....       LJMP    ?BANKED_LEAVE_XDATA
    250          
    251          /*********************************************************************
    252          * @fn      SampleApp_ProcessEvent
    253          *
    254          * @brief   Generic Application Task event processor.  This function
    255          *          is called to process all events for the task.  Events
    256          *          include timers, messages and any other user defined events.
    257          *          系统各种事件的处理函数
    258          *
    259          * @param   task_id  - The OSAL assigned task ID.
    260          * @param   events - events to process.  This is a bit map and can
    261          *                   contain more than one event.
    262          *
    263          * @return  none
    264          */

   \                                 In  segment BANKED_CODE, align 1, keep-with-next
    265          uint16 SampleApp_ProcessEvent( uint8 task_id, uint16 events )
   \                     SampleApp_ProcessEvent:
    266          {
   \   000000   74F4         MOV     A,#-0xc
   \   000002   12....       LCALL   ?BANKED_ENTER_XDATA
   \   000005                ; Saved register size: 12
   \   000005                ; Auto size: 3
   \   000005   74FD         MOV     A,#-0x3
   \   000007   12....       LCALL   ?ALLOC_XSTACK8
   \   00000A   8A..         MOV     ?V0 + 0,R2
   \   00000C   8B..         MOV     ?V0 + 1,R3
    267            afIncomingMSGPacket_t *MSGpkt;
    268            afDataConfirm_t *afDataConfirm;
    269            ZStatus_t sentStatus;
    270            (void)task_id;  // Intentionally unreferenced parameter
    271            
    272            if ( events & SYS_EVENT_MSG )
   \   00000E   EB           MOV     A,R3
   \   00000F   5480         ANL     A,#0x80
   \   000011   7003         JNZ     $+5
   \   000013   02....       LJMP    ??SampleApp_ProcessEvent_0 & 0xFFFF
    273            {
    274              MSGpkt = (afIncomingMSGPacket_t *)osal_msg_receive( SampleApp_TaskID );
   \   000016                ; Setup parameters for call to function osal_msg_receive
   \   000016   12....       LCALL   ?Subroutine5 & 0xFFFF
    275              uint8 coodStarted[3] = {'#', 0x45, '@'};
   \                     ??CrossCallReturnLabel_3:
   \   000019   90....       MOV     DPTR,#`?<Constant {35, 69, 64}>`
   \   00001C   C082         PUSH    DPL
   \   00001E   85..82       MOV     DPL,?XSP + 0
   \   000021   85..83       MOV     DPH,?XSP + 1
   \   000024   AC82         MOV     R4,DPL
   \   000026   AD83         MOV     R5,DPH
   \   000028   7583..       MOV     DPH,#(`?<Constant {35, 69, 64}>` >> 8) & 0xff
   \   00002B   D082         POP     DPL
   \   00002D   7403         MOV     A,#0x3
   \   00002F   12....       LCALL   ?MOVE_LONG8_XDATA_XDATA
   \   000032   801A         SJMP    ??CrossCallReturnLabel_4
    276              while ( MSGpkt )
    277              {      
    278                switch ( MSGpkt->hdr.event )
    279                {
    280                  // 系统任务事件里面的接收数据确认消息
    281                  case AF_DATA_CONFIRM_CMD:          
    282                    afDataConfirm = (afDataConfirm_t *)MSGpkt;
    283                    sentStatus = afDataConfirm->hdr.status;
    284                    // Action taken when confirmation is received.
    285                    if ( sentStatus != ZSuccess )
    286                    {
    287                      myprintf("ERROR:AF_DATA_CONFIRM_CMD failed\n");
    288                    }
    289                    break;
    290                  
    291                    // 接收到一个按键事件
    292                  case KEY_CHANGE:
    293                    SampleApp_HandleKeys( ((keyChange_t *)MSGpkt)->state, ((keyChange_t *)MSGpkt)->keys );
    294                    break;
    295                    
    296                    // 无线网络收到数据
    297                  case AF_INCOMING_MSG_CMD:
    298                    SampleApp_MessageMSGCB( MSGpkt );
    299                    break;
    300                    
    301                    // 设备组网或者入网成功，可以发送一个消息，并开启一个心跳事件的定时器
    302                  case ZDO_STATE_CHANGE:
    303                    SampleApp_NwkState = (devStates_t)(MSGpkt->hdr.status); // 另外MSGpkt->srcAddr.addr.shortAddr;可用于获取终端节点的网络短地址          
    304                    
    305                    // 判断不同的设备类型
    306                    if(SampleApp_NwkState == DEV_ZB_COORD) { // 协调器组建好网络            
    307                      mySendByteBuf(coodStarted, 3); // 向上位机发送已经启动消息            
    308                      osal_start_timerEx( SampleApp_TaskID, SAMPLEAPP_SEND_PERIODIC_MSG_EVT, SAMPLEAPP_SEND_PERIODIC_MSG_TIMEOUT ); // 开启定时器
    309                      HalLedBlink(HAL_LED_2, 3, 50, 250);
    310                    } else if(SampleApp_NwkState == DEV_ROUTER) { // 路由器加入网络
    311                      HalLedBlink(HAL_LED_2, 3, 50, 250);
    312                    } else if(SampleApp_NwkState == DEV_END_DEVICE) { // 终端加入网络
    313                      AfSendAddrInfo(0x71); // 向协调器发送入网消息
    314                      HalLedBlink(HAL_LED_2, 3, 50, 250);
    315                      osal_start_timerEx( SampleApp_TaskID, SAMPLEAPP_SEND_PERIODIC_MSG_EVT, SAMPLEAPP_SEND_PERIODIC_MSG_TIMEOUT ); // 开启定时器
    316                    }
    317                    break;
    318                    
    319                  default:        
    320                    myprintf("unknown pkg-event = 0x%x\n", MSGpkt->hdr.event);      
   \                     ??SampleApp_ProcessEvent_1:
   \   000034                ; Setup parameters for call to function myprintf
   \   000034   12....       LCALL   ?Subroutine10 & 0xFFFF
   \                     ??CrossCallReturnLabel_14:
   \   000037   12....       LCALL   ?PUSH_XSTACK_I_TWO
   \   00003A   7A..         MOV     R2,#`?<Constant "unknown pkg-event = 0...">` & 0xff
   \   00003C   7B..         MOV     R3,#(`?<Constant "unknown pkg-event = 0...">` >> 8) & 0xff
   \   00003E   12....       LCALL   ?Subroutine11 & 0xFFFF
   \                     ??CrossCallReturnLabel_16:
   \   000041   12....       LCALL   ?DEALLOC_XSTACK8
    321                    break;
    322                }      
    323                
    324                osal_msg_deallocate( (uint8 *)MSGpkt );// Release the memory
   \                     ??SampleApp_ProcessEvent_2:
   \   000044                ; Setup parameters for call to function osal_msg_deallocate
   \   000044   EE           MOV     A,R6
   \   000045   FA           MOV     R2,A
   \   000046   EF           MOV     A,R7
   \   000047   FB           MOV     R3,A
   \   000048   12....       LCALL   ??osal_msg_deallocate?relay
    325                MSGpkt = (afIncomingMSGPacket_t *)osal_msg_receive( SampleApp_TaskID );// Next - if one is available
   \   00004B                ; Setup parameters for call to function osal_msg_receive
   \   00004B   12....       LCALL   ?Subroutine5 & 0xFFFF
   \                     ??CrossCallReturnLabel_4:
   \   00004E   EE           MOV     A,R6
   \   00004F   4F           ORL     A,R7
   \   000050   7003         JNZ     $+5
   \   000052   02....       LJMP    ??SampleApp_ProcessEvent_3 & 0xFFFF
   \   000055   8E82         MOV     DPL,R6
   \   000057   8F83         MOV     DPH,R7
   \   000059   E0           MOVX    A,@DPTR
   \   00005A   24E6         ADD     A,#-0x1a
   \   00005C   602B         JZ      ??SampleApp_ProcessEvent_4
   \   00005E   245A         ADD     A,#0x5a
   \   000060   6015         JZ      ??SampleApp_ProcessEvent_5
   \   000062   24EF         ADD     A,#-0x11
   \   000064   602C         JZ      ??SampleApp_ProcessEvent_6
   \   000066   24D4         ADD     A,#-0x2c
   \   000068   70CA         JNZ     ??SampleApp_ProcessEvent_1
   \   00006A   A3           INC     DPTR
   \   00006B   E0           MOVX    A,@DPTR
   \   00006C   60D6         JZ      ??SampleApp_ProcessEvent_2
   \   00006E                ; Setup parameters for call to function myprintf
   \   00006E   7A..         MOV     R2,#`?<Constant "ERROR:AF_DATA_CONFIRM...">` & 0xff
   \   000070   7B..         MOV     R3,#(`?<Constant "ERROR:AF_DATA_CONFIRM...">` >> 8) & 0xff
   \   000072   12....       LCALL   ??myprintf?relay
   \   000075   80CD         SJMP    ??SampleApp_ProcessEvent_2
   \                     ??SampleApp_ProcessEvent_5:
   \   000077                ; Setup parameters for call to function SampleApp_HandleKeys
   \   000077   A3           INC     DPTR
   \   000078   A3           INC     DPTR
   \   000079   A3           INC     DPTR
   \   00007A   E0           MOVX    A,@DPTR
   \   00007B   FA           MOV     R2,A
   \   00007C   8E82         MOV     DPL,R6
   \   00007E   8F83         MOV     DPH,R7
   \   000080   A3           INC     DPTR
   \   000081   A3           INC     DPTR
   \   000082   E0           MOVX    A,@DPTR
   \   000083   F9           MOV     R1,A
   \   000084   12....       LCALL   ??SampleApp_HandleKeys?relay
   \   000087   80BB         SJMP    ??SampleApp_ProcessEvent_2
   \                     ??SampleApp_ProcessEvent_4:
   \   000089                ; Setup parameters for call to function SampleApp_MessageMSGCB
   \   000089   EE           MOV     A,R6
   \   00008A   FA           MOV     R2,A
   \   00008B   EF           MOV     A,R7
   \   00008C   FB           MOV     R3,A
   \   00008D   12....       LCALL   ??SampleApp_MessageMSGCB?relay
   \   000090   80B2         SJMP    ??SampleApp_ProcessEvent_2
   \                     ??SampleApp_ProcessEvent_6:
   \   000092   A3           INC     DPTR
   \   000093   E0           MOVX    A,@DPTR
   \   000094   90....       MOV     DPTR,#SampleApp_NwkState
   \   000097   F0           MOVX    @DPTR,A
   \   000098   6409         XRL     A,#0x9
   \   00009A   7023         JNZ     ??SampleApp_ProcessEvent_7
   \   00009C                ; Setup parameters for call to function mySendByteBuf
   \   00009C   7C03         MOV     R4,#0x3
   \   00009E   7D00         MOV     R5,#0x0
   \   0000A0   85..82       MOV     DPL,?XSP + 0
   \   0000A3   85..83       MOV     DPH,?XSP + 1
   \   0000A6   AA82         MOV     R2,DPL
   \   0000A8   AB83         MOV     R3,DPH
   \   0000AA   12....       LCALL   ??mySendByteBuf?relay
   \   0000AD                ; Setup parameters for call to function osal_start_timerEx
   \   0000AD   12....       LCALL   ?Subroutine4 & 0xFFFF
   \   0000B0                ; Setup parameters for call to function HalLedBlink
   \                     ??CrossCallReturnLabel_28:
   \   0000B0   7CFA         MOV     R4,#-0x6
   \   0000B2   7D00         MOV     R5,#0x0
   \   0000B4   7B32         MOV     R3,#0x32
   \   0000B6   7A03         MOV     R2,#0x3
   \   0000B8   7902         MOV     R1,#0x2
   \   0000BA   12....       LCALL   ??HalLedBlink?relay
   \   0000BD   8085         SJMP    ??SampleApp_ProcessEvent_2
   \                     ??SampleApp_ProcessEvent_7:
   \   0000BF   E0           MOVX    A,@DPTR
   \   0000C0   6407         XRL     A,#0x7
   \   0000C2   60EC         JZ      ??CrossCallReturnLabel_28
   \   0000C4                ; Setup parameters for call to function HalLedBlink
   \   0000C4   E0           MOVX    A,@DPTR
   \   0000C5   6406         XRL     A,#0x6
   \   0000C7   6003         JZ      $+5
   \   0000C9   02....       LJMP    ??SampleApp_ProcessEvent_2 & 0xFFFF
   \   0000CC                ; Setup parameters for call to function AfSendAddrInfo
   \   0000CC   7971         MOV     R1,#0x71
   \   0000CE   12....       LCALL   ??AfSendAddrInfo?relay
   \   0000D1                ; Setup parameters for call to function HalLedBlink
   \   0000D1   7CFA         MOV     R4,#-0x6
   \   0000D3   7D00         MOV     R5,#0x0
   \   0000D5   7B32         MOV     R3,#0x32
   \   0000D7   7A03         MOV     R2,#0x3
   \   0000D9   7902         MOV     R1,#0x2
   \   0000DB   12....       LCALL   ??HalLedBlink?relay
   \   0000DE                ; Setup parameters for call to function osal_start_timerEx
   \   0000DE   12....       LCALL   ?Subroutine4 & 0xFFFF
    326              }
   \                     ??CrossCallReturnLabel_29:
   \   0000E1   02....       LJMP    ??SampleApp_ProcessEvent_2 & 0xFFFF
    327              
    328              // return unprocessed events
    329              return (events ^ SYS_EVENT_MSG);
   \                     ??SampleApp_ProcessEvent_3:
   \   0000E4   AA..         MOV     R2,?V0 + 0
   \   0000E6   E5..         MOV     A,?V0 + 1
   \   0000E8   6480         XRL     A,#0x80
   \   0000EA   FB           MOV     R3,A
   \   0000EB   02....       LJMP    ??SampleApp_ProcessEvent_8 & 0xFFFF
    330            }
    331            
    332            //myprintf("events = 0x%x\n", events);
    333            // 接收到一个定时器事件
    334            if ( events & SAMPLEAPP_SEND_PERIODIC_MSG_EVT )
   \                     ??SampleApp_ProcessEvent_0:
   \   0000EE   EA           MOV     A,R2
   \   0000EF   A2E0         MOV     C,0xE0 /* A   */.0
   \   0000F1   5014         JNC     ??SampleApp_ProcessEvent_9
    335            {
    336          #ifdef ZDO_COORDINATOR // 协调器
    337              SampleApp_SendHeartBeatMessageCoor(); // 协调器心跳功能函数，同时检测掉线的终端，将掉线信息发送到服务器
    338              osal_start_timerEx( SampleApp_TaskID, SAMPLEAPP_SEND_PERIODIC_MSG_EVT, SAMPLEAPP_SEND_PERIODIC_MSG_TIMEOUT); // 1000ms再次开启定时器
    339          #endif
    340              
    341          #ifdef END_DEVICE // 终端设备
    342              SampleApp_SendHeartBeatMessageEnd(); // 终端心跳功能函数
   \   0000F3                ; Setup parameters for call to function SampleApp_SendHeartBeatMessageEnd
   \   0000F3   12....       LCALL   ??SampleApp_SendHeartBeatMessageEnd?relay
    343              osal_start_timerEx( SampleApp_TaskID, SAMPLEAPP_SEND_PERIODIC_MSG_EVT, SAMPLEAPP_SEND_PERIODIC_MSG_TIMEOUT*2); // 2000ms再次开启定时器
   \   0000F6                ; Setup parameters for call to function osal_start_timerEx
   \   0000F6   7CD0         MOV     R4,#-0x30
   \   0000F8   7D07         MOV     R5,#0x7
   \   0000FA   12....       LCALL   ??Subroutine17_0 & 0xFFFF
    344          #endif
    345              
    346              return (events ^ SAMPLEAPP_SEND_PERIODIC_MSG_EVT); // 清除此已经处理事件标志位
   \                     ??CrossCallReturnLabel_30:
   \   0000FD   E5..         MOV     A,?V0 + 0
   \   0000FF   6401         XRL     A,#0x1
   \                     ??SampleApp_ProcessEvent_10:
   \   000101   FA           MOV     R2,A
   \   000102   AB..         MOV     R3,?V0 + 1
   \   000104   02....       LJMP    ??SampleApp_ProcessEvent_8 & 0xFFFF
    347            }  
    348          
    349          #ifdef END_DEVICE  // 接收到线上金币的开启信号，模拟电平变化的定时器事件
    350            else if(events & SAMPLEAPP_SIMULATE_COIN_MSG_EVT) {
   \                     ??SampleApp_ProcessEvent_9:
   \   000107   5402         ANL     A,#0x2
   \   000109   6045         JZ      ??SampleApp_ProcessEvent_11
    351              myprintf("Get COIN_MSG_EVT, NeedCoinDelivered = %d, events = 0x%x\n", NeedCoinDelivered, events);    
   \   00010B                ; Setup parameters for call to function myprintf
   \   00010B   78..         MOV     R0,#?V0 + 0
   \   00010D   12....       LCALL   ?PUSH_XSTACK_I_TWO
   \   000110   90....       MOV     DPTR,#NeedCoinDelivered
   \   000113   12....       LCALL   ?Subroutine7 & 0xFFFF
   \                     ??CrossCallReturnLabel_7:
   \   000116   12....       LCALL   ?PUSH_XSTACK_I_TWO
   \   000119   7A..         MOV     R2,#`?<Constant "Get COIN_MSG_EVT, Nee...">` & 0xff
   \   00011B   7B..         MOV     R3,#(`?<Constant "Get COIN_MSG_EVT, Nee...">` >> 8) & 0xff
   \   00011D   12....       LCALL   ??myprintf?relay
   \   000120   7404         MOV     A,#0x4
   \   000122   12....       LCALL   ?DEALLOC_XSTACK8
    352              if(COIN_SIMULATE_PIN == 1) {
   \   000125   A292         MOV     C,0x90.2
   \   000127   5004         JNC     ??SampleApp_ProcessEvent_12
    353                COIN_SIMULATE_PIN = 0; // 产生一个下降沿
   \   000129   C292         CLR     0x90.2
   \   00012B   800C         SJMP    ??SampleApp_ProcessEvent_13
    354              } else if(COIN_SIMULATE_PIN == 0) {
   \                     ??SampleApp_ProcessEvent_12:
   \   00012D   A292         MOV     C,0x90.2
   \   00012F   4008         JC      ??SampleApp_ProcessEvent_13
    355                COIN_SIMULATE_PIN = 1; // 完整产生了一个脉冲
   \   000131   D292         SETB    0x90.2
    356                NeedCoinDelivered--;
   \   000133   90....       MOV     DPTR,#NeedCoinDelivered
   \   000136   E0           MOVX    A,@DPTR
   \   000137   14           DEC     A
   \   000138   F0           MOVX    @DPTR,A
    357              }
    358              if(NeedCoinDelivered > 0) { // 还需要开启定时器
   \                     ??SampleApp_ProcessEvent_13:
   \   000139   90....       MOV     DPTR,#NeedCoinDelivered
   \   00013C   12....       LCALL   ?Subroutine9 & 0xFFFF
   \                     ??CrossCallReturnLabel_12:
   \   00013F   4009         JC      ??CrossCallReturnLabel_31
    359                osal_start_timerEx( SampleApp_TaskID, SAMPLEAPP_SIMULATE_COIN_MSG_EVT, COIN_SIGNAL_HALF_TIME); // 低电平和高电平至少保持50ms
   \   000141                ; Setup parameters for call to function osal_start_timerEx
   \   000141   7C28         MOV     R4,#0x28
   \   000143   7D00         MOV     R5,#0x0
   \   000145   7A02         MOV     R2,#0x2
   \   000147   12....       LCALL   ??Subroutine18_0 & 0xFFFF
    360              } 
    361              
    362              return (events ^ SAMPLEAPP_SIMULATE_COIN_MSG_EVT);
   \                     ??CrossCallReturnLabel_31:
   \   00014A   E5..         MOV     A,?V0 + 0
   \   00014C   6402         XRL     A,#0x2
   \   00014E   80B1         SJMP    ??SampleApp_ProcessEvent_10
    363            } 
    364            else if(events & SAMPLEAPP_TRANSPORT_COIN_MSG_EVT) { // 需要转发投币器的投币信号
   \                     ??SampleApp_ProcessEvent_11:
   \   000150   EA           MOV     A,R2
   \   000151   5404         ANL     A,#0x4
   \   000153   603F         JZ      ??SampleApp_ProcessEvent_14
    365              myprintf("Get transport coin EVT, NeedCoinTransport = %d\n", NeedCoinTransport);
   \   000155                ; Setup parameters for call to function myprintf
   \   000155   90....       MOV     DPTR,#NeedCoinTransport
   \   000158   12....       LCALL   ?Subroutine7 & 0xFFFF
   \                     ??CrossCallReturnLabel_8:
   \   00015B   12....       LCALL   ?PUSH_XSTACK_I_TWO
   \   00015E   7A..         MOV     R2,#`?<Constant "Get transport coin EV...">` & 0xff
   \   000160   7B..         MOV     R3,#(`?<Constant "Get transport coin EV...">` >> 8) & 0xff
   \   000162   12....       LCALL   ?Subroutine11 & 0xFFFF
   \                     ??CrossCallReturnLabel_17:
   \   000165   12....       LCALL   ?DEALLOC_XSTACK8
    366              
    367              if(COIN_SIMULATE_PIN == 1) {
   \   000168   A292         MOV     C,0x90.2
   \   00016A   5004         JNC     ??SampleApp_ProcessEvent_15
    368                COIN_SIMULATE_PIN = 0; // 产生一个下降沿
   \   00016C   C292         CLR     0x90.2
   \   00016E   800C         SJMP    ??SampleApp_ProcessEvent_16
    369              } else if(COIN_SIMULATE_PIN == 0) {
   \                     ??SampleApp_ProcessEvent_15:
   \   000170   A292         MOV     C,0x90.2
   \   000172   4008         JC      ??SampleApp_ProcessEvent_16
    370                COIN_SIMULATE_PIN = 1; // 完整产生了一个脉冲
   \   000174   D292         SETB    0x90.2
    371                NeedCoinTransport--;
   \   000176   90....       MOV     DPTR,#NeedCoinTransport
   \   000179   E0           MOVX    A,@DPTR
   \   00017A   14           DEC     A
   \   00017B   F0           MOVX    @DPTR,A
    372              }
    373              if(NeedCoinTransport > 0) { // 还需要开启定时器
   \                     ??SampleApp_ProcessEvent_16:
   \   00017C   90....       MOV     DPTR,#NeedCoinTransport
   \   00017F   12....       LCALL   ?Subroutine9 & 0xFFFF
   \                     ??CrossCallReturnLabel_13:
   \   000182   4009         JC      ??CrossCallReturnLabel_32
    374                osal_start_timerEx( SampleApp_TaskID, SAMPLEAPP_TRANSPORT_COIN_MSG_EVT, COIN_SIGNAL_HALF_TIME); // 低电平和高电平至少保持50ms
   \   000184                ; Setup parameters for call to function osal_start_timerEx
   \   000184   7C28         MOV     R4,#0x28
   \   000186   7D00         MOV     R5,#0x0
   \   000188   7A04         MOV     R2,#0x4
   \   00018A   12....       LCALL   ??Subroutine18_0 & 0xFFFF
    375              }
    376              return (events ^ SAMPLEAPP_TRANSPORT_COIN_MSG_EVT);
   \                     ??CrossCallReturnLabel_32:
   \   00018D   E5..         MOV     A,?V0 + 0
   \   00018F   6404         XRL     A,#0x4
   \   000191   02....       LJMP    ??SampleApp_ProcessEvent_10 & 0xFFFF
    377            } 
    378            else if(events & SAMPLEAPP_TRANSPORT_REWARD_MSG_EVT) { // 需要向游戏机转发产生的出了一个彩票信息
   \                     ??SampleApp_ProcessEvent_14:
   \   000194   EA           MOV     A,R2
   \   000195   5408         ANL     A,#0x8
   \   000197   603C         JZ      ??SampleApp_ProcessEvent_17
    379              myprintf("get trans reward msg event, REWARD_BACK_PIN = %d\n", REWARD_BACK_PIN);
   \   000199                ; Setup parameters for call to function myprintf
   \   000199   A295         MOV     C,0x90.5
   \   00019B   E4           CLR     A
   \   00019C   33           RLC     A
   \   00019D   F5..         MOV     ?V0 + 2,A
   \   00019F   75..00       MOV     ?V0 + 3,#0x0
   \   0001A2   78..         MOV     R0,#?V0 + 2
   \   0001A4   12....       LCALL   ?PUSH_XSTACK_I_TWO
   \   0001A7   7A..         MOV     R2,#`?<Constant "get trans reward msg ...">` & 0xff
   \   0001A9   7B..         MOV     R3,#(`?<Constant "get trans reward msg ...">` >> 8) & 0xff
   \   0001AB   12....       LCALL   ?Subroutine11 & 0xFFFF
   \                     ??CrossCallReturnLabel_18:
   \   0001AE   12....       LCALL   ?DEALLOC_XSTACK8
    380              if(REWARD_BACK_PIN == 1) {
   \   0001B1   A295         MOV     C,0x90.5
   \   0001B3   500D         JNC     ??SampleApp_ProcessEvent_18
    381                REWARD_BACK_PIN = 0; // 只产生一个下降沿
   \   0001B5   C295         CLR     0x90.5
    382                osal_start_timerEx( SampleApp_TaskID, SAMPLEAPP_TRANSPORT_REWARD_MSG_EVT, REWARD_SIGNAL_HALF_TIME);
   \   0001B7                ; Setup parameters for call to function osal_start_timerEx
   \   0001B7   7C28         MOV     R4,#0x28
   \   0001B9   7D00         MOV     R5,#0x0
   \   0001BB   7A08         MOV     R2,#0x8
   \   0001BD   12....       LCALL   ??Subroutine18_0 & 0xFFFF
    383              } else if(REWARD_BACK_PIN == 0) {
   \                     ??CrossCallReturnLabel_33:
   \   0001C0   800C         SJMP    ??SampleApp_ProcessEvent_19
   \                     ??SampleApp_ProcessEvent_18:
   \   0001C2   A295         MOV     C,0x90.5
   \   0001C4   4008         JC      ??SampleApp_ProcessEvent_19
    384                REWARD_BACK_PIN = 1;
   \   0001C6   D295         SETB    0x90.5
    385                rewardCount++; // 累计本次游戏出彩票个数，在出彩票结束之后再上传个数
   \   0001C8   90....       MOV     DPTR,#rewardCount
   \   0001CB   E0           MOVX    A,@DPTR
   \   0001CC   04           INC     A
   \   0001CD   F0           MOVX    @DPTR,A
    386              }
    387              return (events ^ SAMPLEAPP_TRANSPORT_REWARD_MSG_EVT);
   \                     ??SampleApp_ProcessEvent_19:
   \   0001CE   E5..         MOV     A,?V0 + 0
   \   0001D0   6408         XRL     A,#0x8
   \   0001D2   02....       LJMP    ??SampleApp_ProcessEvent_10 & 0xFFFF
    388            }
    389          #endif  
    390          
    391            return 0;
   \                     ??SampleApp_ProcessEvent_17:
   \   0001D5   7A00         MOV     R2,#0x0
   \   0001D7   7B00         MOV     R3,#0x0
   \                     ??SampleApp_ProcessEvent_8:
   \   0001D9   7403         MOV     A,#0x3
   \   0001DB   12....       LCALL   ?DEALLOC_XSTACK8
   \   0001DE   7F04         MOV     R7,#0x4
   \   0001E0   02....       LJMP    ?BANKED_LEAVE_XDATA
   \   0001E3                REQUIRE _A_P1
    392          }

   \                                 In  segment BANKED_CODE, align 1, keep-with-next
   \                     ?Subroutine9:
   \   000000   E0           MOVX    A,@DPTR
   \   000001   C3           CLR     C
   \   000002   9401         SUBB    A,#0x1
   \   000004   A2D2         MOV     C,0xD0 /* PSW */.2
   \   000006   65D0         XRL     A,PSW
   \   000008   33           RLC     A
   \   000009   22           RET

   \                                 In  segment BANKED_CODE, align 1, keep-with-next
   \                     ?Subroutine7:
   \   000000   E0           MOVX    A,@DPTR
   \   000001   F5..         MOV     ?V0 + 2,A
   \   000003   33           RLC     A
   \   000004   95E0         SUBB    A,0xE0 /* A   */
   \   000006   F5..         MOV     ?V0 + 3,A
   \   000008   78..         MOV     R0,#?V0 + 2
   \   00000A   22           RET

   \                                 In  segment BANKED_CODE, align 1, keep-with-next
   \                     ?Subroutine5:
   \   000000   90....       MOV     DPTR,#SampleApp_TaskID
   \   000003   E0           MOVX    A,@DPTR
   \   000004   F9           MOV     R1,A
   \   000005   12....       LCALL   ??osal_msg_receive?relay
   \   000008   8A..         MOV     ?V0 + 2,R2
   \   00000A   8B..         MOV     ?V0 + 3,R3
   \   00000C   AE..         MOV     R6,?V0 + 2
   \   00000E   AF..         MOV     R7,?V0 + 3
   \   000010   22           RET

   \                                 In  segment BANKED_CODE, align 1, keep-with-next
   \                     ?Subroutine4:
   \   000000   7CE8         MOV     R4,#-0x18
   \   000002   7D03         MOV     R5,#0x3
   \   000004                REQUIRE ??Subroutine17_0
   \   000004                ; // Fall through to label ??Subroutine17_0

   \                                 In  segment BANKED_CODE, align 1, keep-with-next
   \                     ??Subroutine17_0:
   \   000000   7A01         MOV     R2,#0x1
   \   000002                REQUIRE ??Subroutine18_0
   \   000002                ; // Fall through to label ??Subroutine18_0

   \                                 In  segment BANKED_CODE, align 1, keep-with-next
   \                     ??Subroutine18_0:
   \   000000   7B00         MOV     R3,#0x0
   \   000002   90....       MOV     DPTR,#SampleApp_TaskID
   \   000005   E0           MOVX    A,@DPTR
   \   000006   F9           MOV     R1,A
   \   000007   12....       LCALL   ??osal_start_timerEx?relay
   \   00000A   22           RET

   \                                 In  segment BANKED_CODE, align 1, keep-with-next
   \                     ?Subroutine11:
   \   000000   12....       LCALL   ??myprintf?relay
   \   000003   7402         MOV     A,#0x2
   \   000005   22           RET

   \                                 In  segment BANKED_CODE, align 1, keep-with-next
   \                     ?Subroutine10:
   \   000000   E0           MOVX    A,@DPTR
   \   000001   F5..         MOV     ?V0 + 2,A
   \   000003   75..00       MOV     ?V0 + 3,#0x0
   \   000006   78..         MOV     R0,#?V0 + 2
   \   000008   22           RET
    393          
    394          /*********************************************************************
    395          * Event Generation Functions
    396          */
    397          /*********************************************************************
    398          * @fn      SampleApp_HandleKeys
    399          *
    400          * @brief   按键事件处理函数
    401          *
    402          * @param   shift - true if in shift/alt.
    403          * @param   keys - bit field for key events. Valid entries:
    404          *                 HAL_KEY_SW_2
    405          *                 HAL_KEY_SW_1
    406          *
    407          * @return  none
    408          */

   \                                 In  segment BANKED_CODE, align 1, keep-with-next
    409          void SampleApp_HandleKeys( uint8 shift, uint8 keys )
   \                     SampleApp_HandleKeys:
    410          {
   \   000000   74F7         MOV     A,#-0x9
   \   000002   12....       LCALL   ?BANKED_ENTER_XDATA
   \   000005                ; Saved register size: 9
   \   000005                ; Auto size: 0
   \   000005   EA           MOV     A,R2
    411            (void)shift;  // Intentionally unreferenced parameter
    412          #ifdef ZDO_COORDINATOR       //按协调器S1才发数据  
    413            if ( keys & HAL_KEY_SW_6 ){ // 按键S1,以广播方式发数据    
    414              SampleApp_SendPeriodicMessage(1);
    415            } else if(keys & HAL_KEY_SW_1) { // 按键S2
    416              SampleApp_SendPeriodicMessage(2);
    417            }
    418          #endif
    419          
    420          #ifdef END_DEVICE
    421            if ( keys & HAL_KEY_SW_6 ){
   \   000006   A2E5         MOV     C,0xE0 /* A   */.5
   \   000008   5005         JNC     ??SampleApp_HandleKeys_0
    422              AfSendAddrInfo(0x51); // 只用在路由和终端设备上，向协调器上传自身地址，协调器收到此消息后打印出地址
   \   00000A                ; Setup parameters for call to function AfSendAddrInfo
   \   00000A   7951         MOV     R1,#0x51
   \   00000C   12....       LCALL   ??AfSendAddrInfo?relay
    423            }
    424          #endif
    425          }
   \                     ??SampleApp_HandleKeys_0:
   \   00000F   7F01         MOV     R7,#0x1
   \   000011   02....       LJMP    ?BANKED_LEAVE_XDATA
    426          
    427          /*********************************************************************
    428          * LOCAL FUNCTIONS
    429          */
    430          
    431          /*********************************************************************
    432          * @fn      SampleApp_MessageMSGCB
    433          *
    434          * @brief   Data message processor callback.  This function processes
    435          *          any incoming data - probably from other devices.  So, based
    436          *          on cluster ID, perform the intended action.
    437          *
    438          * @param   none
    439          *
    440          * @return  none
    441          */
    442          #define INIT_LEFT_SEC 5
    443          #ifdef NEED_TEST_DIStANCE
    444          uint16 recvTestMsgCount = 0;
    445          #endif

   \                                 In  segment BANKED_CODE, align 1, keep-with-next
    446          void SampleApp_MessageMSGCB( afIncomingMSGPacket_t *pkt )
   \                     SampleApp_MessageMSGCB:
    447          {
   \   000000   74F6         MOV     A,#-0xa
   \   000002   12....       LCALL   ?BANKED_ENTER_XDATA
   \   000005                ; Saved register size: 10
   \   000005                ; Auto size: 0
    448          #ifndef ROUTER_EB  
    449            uint8 data;
    450            uint8 cmd;
    451          #endif  
    452          #ifdef ZDO_COORDINATOR  
    453            int8 ret = 0;
    454          #endif  
    455            
    456            switch ( pkt->clusterId )
   \   000005   8A82         MOV     DPL,R2
   \   000007   8B83         MOV     DPH,R3
   \   000009   A3           INC     DPTR
   \   00000A   A3           INC     DPTR
   \   00000B   A3           INC     DPTR
   \   00000C   A3           INC     DPTR
   \   00000D   E0           MOVX    A,@DPTR
   \   00000E   6401         XRL     A,#0x1
   \   000010   7002         JNZ     ??SampleApp_MessageMSGCB_0
   \   000012   A3           INC     DPTR
   \   000013   E0           MOVX    A,@DPTR
   \                     ??SampleApp_MessageMSGCB_0:
   \   000014   7073         JNZ     ??SampleApp_MessageMSGCB_1
    457            {    
    458            case SAMPLEAPP_PERIODIC_CLUSTERID: // 协调器在发送数据的时候指定的此消息对应的命令字，即表示哪种类型的控制命令
    459          //协调器接收到终端的无线数据 
    460          #ifdef ZDO_COORDINATOR
    461              data = pkt->cmd.Data[0];
    462              cmd = pkt->cmd.Data[1];
    463              if(data == '#') {
    464                if(cmd == 0x71 && pkt->cmd.Data[12] == '@') { // 接收到终端上传的短地址和IEEE地址
    465                  ret = checkEPInList(LL, pkt->cmd.Data + 4); // 使用IEEE地址检查终端是否已经在链表中
    466                  if(ret == -1) { // 如果当前终端没有在列表中        
    467                    ListInsert_L(LL, ListLength_L(LL)+1, pkt->cmd.Data[2], pkt->cmd.Data[3], &(pkt->cmd.Data[4]), INIT_LEFT_SEC); // 添加一个线性列表元素到链表尾部 
    468                    myprintf("Insert new EP in list\n");
    469                    printAddrInfoHex(pkt->cmd.Data+2, 10); // 打印中断的长短地址信息
    470                  } else { // 更新终端所在节点的在线时长，标记为在线状态
    471                    updateListEleStatus(LL, ret, INIT_LEFT_SEC);
    472                    myprintf("Already In List, update()\n");
    473                  }
    474                  // myprintf("length = %d\n", ListLength_L(LL));
    475                } else if(cmd == 0x72 && pkt->cmd.Data[10] == '@') { // 收到终端回复的确认收到投币命令
    476                  mySendByteBuf(pkt->cmd.Data, 11); // 转发回复消息到上位机        
    477                } else if(cmd == 0x51 && pkt->cmd.Data[12] == '@') { // 终端按键S1上传的长短地址信息
    478                  printAddrInfoHex(pkt->cmd.Data+2, 10);
    479                  mySendByteBuf(pkt->cmd.Data, 13);
    480                }
    481              }
    482          #endif    
    483          #ifdef END_DEVICE //终端接收数据处理
    484              data = pkt->cmd.Data[0];
    485              cmd = pkt->cmd.Data[1];
   \   000016   12....       LCALL   ?Subroutine14 & 0xFFFF
   \                     ??CrossCallReturnLabel_24:
   \   000019   E0           MOVX    A,@DPTR
   \   00001A   F8           MOV     R0,A
   \   00001B   A3           INC     DPTR
   \   00001C   E0           MOVX    A,@DPTR
   \   00001D   F9           MOV     R1,A
   \   00001E   8882         MOV     DPL,R0
   \   000020   8983         MOV     DPH,R1
   \   000022   A3           INC     DPTR
   \   000023   E0           MOVX    A,@DPTR
   \   000024   FC           MOV     R4,A
    486              if(data == '#')
   \   000025   8882         MOV     DPL,R0
   \   000027   8983         MOV     DPH,R1
   \   000029   E0           MOVX    A,@DPTR
   \   00002A   6423         XRL     A,#0x23
   \   00002C   705B         JNZ     ??SampleApp_MessageMSGCB_1
    487              {
    488                if(cmd == 0x81 && pkt->cmd.Data[3] == '@') { // 收到投递指定币数的消息
   \   00002E   7481         MOV     A,#-0x7f
   \   000030   6C           XRL     A,R4
   \   000031   703F         JNZ     ??SampleApp_MessageMSGCB_2
   \   000033   12....       LCALL   ?Subroutine6 & 0xFFFF
   \                     ??CrossCallReturnLabel_5:
   \   000036   7051         JNZ     ??SampleApp_MessageMSGCB_1
    489                  NeedCoinDelivered = pkt->cmd.Data[2]; // 开始模拟投币信号
   \   000038   12....       LCALL   ?Subroutine14 & 0xFFFF
   \                     ??CrossCallReturnLabel_25:
   \   00003B   A3           INC     DPTR
   \   00003C   E0           MOVX    A,@DPTR
   \   00003D   F583         MOV     DPH,A
   \   00003F   8882         MOV     DPL,R0
   \   000041   A3           INC     DPTR
   \   000042   A3           INC     DPTR
   \   000043   E0           MOVX    A,@DPTR
   \   000044   90....       MOV     DPTR,#NeedCoinDelivered
   \   000047   F0           MOVX    @DPTR,A
    490                  COIN_SIMULATE_PIN = 1; // 初始高电平
   \   000048   D292         SETB    0x90.2
    491                  osal_start_timerEx( SampleApp_TaskID, SAMPLEAPP_SIMULATE_COIN_MSG_EVT, COIN_SIGNAL_HALF_TIME); // 产生定时器事件                
   \   00004A                ; Setup parameters for call to function osal_start_timerEx
   \   00004A   7C28         MOV     R4,#0x28
   \   00004C   7D00         MOV     R5,#0x0
   \   00004E   7A02         MOV     R2,#0x2
   \   000050   12....       LCALL   ??Subroutine18_0 & 0xFFFF
    492                  AfReplyGetCoinCmd();  // 回复已经收到投币命令0x72
   \                     ??CrossCallReturnLabel_34:
   \   000053                ; Setup parameters for call to function AfReplyGetCoinCmd
   \   000053   12....       LCALL   ??AfReplyGetCoinCmd?relay
    493                  myprintf("NeedCoinDelivered = %d\n", NeedCoinDelivered);
   \   000056                ; Setup parameters for call to function myprintf
   \   000056   90....       MOV     DPTR,#NeedCoinDelivered
   \   000059   E0           MOVX    A,@DPTR
   \   00005A   F5..         MOV     ?V0 + 0,A
   \   00005C   33           RLC     A
   \   00005D   95E0         SUBB    A,0xE0 /* A   */
   \   00005F   F5..         MOV     ?V0 + 1,A
   \   000061   78..         MOV     R0,#?V0 + 0
   \   000063   12....       LCALL   ?PUSH_XSTACK_I_TWO
   \   000066   7A..         MOV     R2,#`?<Constant "NeedCoinDelivered = %d\\n">` & 0xff
   \   000068   7B..         MOV     R3,#(`?<Constant "NeedCoinDelivered = %d\\n">` >> 8) & 0xff
   \   00006A   12....       LCALL   ?Subroutine11 & 0xFFFF
    494                } else if(cmd == 0x31 && pkt->cmd.Data[3] == '@') { // LED2闪灯测试命令
   \                     ??CrossCallReturnLabel_19:
   \   00006D   12....       LCALL   ?DEALLOC_XSTACK8
   \   000070   8017         SJMP    ??SampleApp_MessageMSGCB_1
   \                     ??SampleApp_MessageMSGCB_2:
   \   000072   7431         MOV     A,#0x31
   \   000074   6C           XRL     A,R4
   \   000075   7012         JNZ     ??SampleApp_MessageMSGCB_1
   \   000077   12....       LCALL   ?Subroutine6 & 0xFFFF
   \                     ??CrossCallReturnLabel_6:
   \   00007A   700D         JNZ     ??SampleApp_MessageMSGCB_1
    495                  HalLedBlink(HAL_LED_1, 1, 50, 500);
   \   00007C                ; Setup parameters for call to function HalLedBlink
   \   00007C   7CF4         MOV     R4,#-0xc
   \   00007E   7D01         MOV     R5,#0x1
   \   000080   7B32         MOV     R3,#0x32
   \   000082   7A01         MOV     R2,#0x1
   \   000084   7901         MOV     R1,#0x1
   \   000086   12....       LCALL   ??HalLedBlink?relay
    496          #ifdef NEED_TEST_DIStANCE
    497                  recvTestMsgCount++;
    498                  HalLcdWriteString("Recv:", HAL_LCD_LINE_5);
    499                  convertHexToStr(recvTestMsgCount, HAL_LCD_LINE_6);
    500          #endif        
    501                }
    502              }        
    503          #endif    
    504              break;
    505              
    506            default:
    507              break;
    508            }
    509          }
   \                     ??SampleApp_MessageMSGCB_1:
   \   000089                REQUIRE ?Subroutine1
   \   000089                REQUIRE _A_P1
   \   000089                ; // Fall through to label ?Subroutine1

   \                                 In  segment BANKED_CODE, align 1, keep-with-next
   \                     ?Subroutine1:
   \   000000   7F02         MOV     R7,#0x2
   \   000002   02....       LJMP    ?BANKED_LEAVE_XDATA

   \                                 In  segment BANKED_CODE, align 1, keep-with-next
   \                     ?Subroutine14:
   \   000000   12....       LCALL   ?Subroutine16 & 0xFFFF
   \                     ??CrossCallReturnLabel_27:
   \   000003   22           RET

   \                                 In  segment BANKED_CODE, align 1, keep-with-next
   \                     ?Subroutine16:
   \   000000   EA           MOV     A,R2
   \   000001   2422         ADD     A,#0x22
   \   000003   F582         MOV     DPL,A
   \   000005   EB           MOV     A,R3
   \   000006   3400         ADDC    A,#0x0
   \   000008   F583         MOV     DPH,A
   \   00000A   22           RET

   \                                 In  segment BANKED_CODE, align 1, keep-with-next
   \                     ?Subroutine6:
   \   000000   12....       LCALL   ?Subroutine16 & 0xFFFF
   \                     ??CrossCallReturnLabel_26:
   \   000003   A3           INC     DPTR
   \   000004   E0           MOVX    A,@DPTR
   \   000005   F583         MOV     DPH,A
   \   000007   8882         MOV     DPL,R0
   \   000009   A3           INC     DPTR
   \   00000A   A3           INC     DPTR
   \   00000B   A3           INC     DPTR
   \   00000C   E0           MOVX    A,@DPTR
   \   00000D   6440         XRL     A,#0x40
   \   00000F   22           RET
    510          
    511          /**
    512          * 协调器向终端发送广播类型消息
    513          */

   \                                 In  segment BANKED_CODE, align 1, keep-with-next
    514          void SampleApp_SendPeriodicMessage( int8 key )
   \                     SampleApp_SendPeriodicMessage:
    515          {
   \   000000   74F6         MOV     A,#-0xa
   \   000002   12....       LCALL   ?BANKED_ENTER_XDATA
   \   000005                ; Saved register size: 10
   \   000005                ; Auto size: 4
   \   000005   74FC         MOV     A,#-0x4
   \   000007   12....       LCALL   ?ALLOC_XSTACK8
   \   00000A   E9           MOV     A,R1
   \   00000B   FE           MOV     R6,A
    516            if(key == 1) { // 按键S1
   \   00000C   7401         MOV     A,#0x1
   \   00000E   6E           XRL     A,R6
   \   00000F   706B         JNZ     ??SampleApp_SendPeriodicMessage_0
    517              uint8 sendKeyS1Buf[4] = {'#', 0x31, 0, '@'};
   \   000011   85..82       MOV     DPL,?XSP + 0
   \   000014   85..83       MOV     DPH,?XSP + 1
   \   000017   AC82         MOV     R4,DPL
   \   000019   AD83         MOV     R5,DPH
   \   00001B   7583..       MOV     DPH,#(`?<Constant {35, 49, 0, 64}>` >> 8) & 0xff
   \   00001E   7582..       MOV     DPL,#`?<Constant {35, 49, 0, 64}>` & 0xff
   \   000021   7404         MOV     A,#0x4
   \   000023   12....       LCALL   ?MOVE_LONG8_XDATA_XDATA
    518              
    519              if ( AF_DataRequest( &SampleApp_Periodic_DstAddr, &SampleApp_epDesc,
    520                                  SAMPLEAPP_PERIODIC_CLUSTERID,
    521                                  4,
    522                                  sendKeyS1Buf,
    523                                  &SampleApp_TransID,
    524                                  AF_DISCV_ROUTE,
    525                                  AF_DEFAULT_RADIUS ) == afStatus_SUCCESS )
   \   000026                ; Setup parameters for call to function AF_DataRequest
   \   000026   75..1E       MOV     ?V0 + 0,#0x1e
   \   000029   78..         MOV     R0,#?V0 + 0
   \   00002B   12....       LCALL   ?PUSH_XSTACK_I_ONE
   \   00002E   75....       MOV     ?V0 + 0,#SampleApp_TransID & 0xff
   \   000031   75....       MOV     ?V0 + 1,#(SampleApp_TransID >> 8) & 0xff
   \   000034   78..         MOV     R0,#?V0 + 0
   \   000036   12....       LCALL   ?PUSH_XSTACK_I_TWO
   \   000039   7403         MOV     A,#0x3
   \   00003B   12....       LCALL   ?XSTACK_DISP0_8
   \   00003E   8582..       MOV     ?V0 + 0,DPL
   \   000041   8583..       MOV     ?V0 + 1,DPH
   \   000044   78..         MOV     R0,#?V0 + 0
   \   000046   12....       LCALL   ?PUSH_XSTACK_I_TWO
   \   000049   75..04       MOV     ?V0 + 0,#0x4
   \   00004C   75..00       MOV     ?V0 + 1,#0x0
   \   00004F   78..         MOV     R0,#?V0 + 0
   \   000051   12....       LCALL   ?PUSH_XSTACK_I_TWO
   \   000054   75..01       MOV     ?V0 + 0,#0x1
   \   000057   78..         MOV     R0,#?V0 + 0
   \   000059   12....       LCALL   ?PUSH_XSTACK_I_TWO
   \   00005C   7920         MOV     R1,#0x20
   \   00005E   7C..         MOV     R4,#SampleApp_epDesc & 0xff
   \   000060   7D..         MOV     R5,#(SampleApp_epDesc >> 8) & 0xff
   \   000062   7A..         MOV     R2,#SampleApp_Periodic_DstAddr & 0xff
   \   000064   7B..         MOV     R3,#(SampleApp_Periodic_DstAddr >> 8) & 0xff
   \   000066   12....       LCALL   ??Subroutine19_0 & 0xFFFF
   \                     ??CrossCallReturnLabel_38:
   \   000069   12....       LCALL   ?DEALLOC_XSTACK8
   \   00006C   E9           MOV     A,R1
   \   00006D   700D         JNZ     ??SampleApp_SendPeriodicMessage_0
    526              {
    527                HalLedBlink(HAL_LED_1, 1, 50, 250);
   \   00006F                ; Setup parameters for call to function HalLedBlink
   \   00006F   7CFA         MOV     R4,#-0x6
   \   000071   7D00         MOV     R5,#0x0
   \   000073   7B32         MOV     R3,#0x32
   \   000075   7A01         MOV     R2,#0x1
   \   000077   7901         MOV     R1,#0x1
   \   000079   12....       LCALL   ??HalLedBlink?relay
    528              }
    529            } else if(key == 2) { // 按键S2
    530              // myprintf("press key S2\n");
    531            }
    532          }
   \                     ??SampleApp_SendPeriodicMessage_0:
   \   00007C   7404         MOV     A,#0x4
   \   00007E   12....       LCALL   ?DEALLOC_XSTACK8
   \   000081   02....       LJMP    ?Subroutine1 & 0xFFFF

   \                                 In  segment BANKED_CODE, align 1, keep-with-next
   \                     ??Subroutine19_0:
   \   000000   12....       LCALL   ??AF_DataRequest?relay
   \   000003   7409         MOV     A,#0x9
   \   000005   22           RET
    533          
    534          /**
    535            协调器心跳功能函数，使用串口向树莓派发送心跳信息
    536          */
    537          #ifdef NEED_TEST_DIStANCE
    538            uint16 totalSendTestCount = 0;
    539            uint16 sendTestCount = 0;
    540          #endif  

   \                                 In  segment BANKED_CODE, align 1, keep-with-next
    541          void SampleApp_SendHeartBeatMessageCoor(void) {
   \                     SampleApp_SendHeartBeatMessageCoor:
   \   000000   C082         PUSH    DPL
   \   000002   C083         PUSH    DPH
   \   000004                ; Saved register size: 2
   \   000004                ; Auto size: 3
   \   000004   74FD         MOV     A,#-0x3
   \   000006   12....       LCALL   ?ALLOC_XSTACK8
    542            // 遍历终端列表，将所有节点剩余时间-1，如果小于0，则置0
    543            uint8 heartBeatBuf[3] = {'#', 0x46, '@'};
   \   000009   85..82       MOV     DPL,?XSP + 0
   \   00000C   85..83       MOV     DPH,?XSP + 1
   \   00000F   AC82         MOV     R4,DPL
   \   000011   AD83         MOV     R5,DPH
   \   000013   7583..       MOV     DPH,#(`?<Constant {35, 70, 64}>` >> 8) & 0xff
   \   000016   7582..       MOV     DPL,#`?<Constant {35, 70, 64}>` & 0xff
   \   000019   7403         MOV     A,#0x3
   \   00001B   12....       LCALL   ?MOVE_LONG8_XDATA_XDATA
    544            mySendByteBuf(heartBeatBuf, 3);
   \   00001E                ; Setup parameters for call to function mySendByteBuf
   \   00001E   7C03         MOV     R4,#0x3
   \   000020   FD           MOV     R5,A
   \   000021   85..82       MOV     DPL,?XSP + 0
   \   000024   85..83       MOV     DPH,?XSP + 1
   \   000027   AA82         MOV     R2,DPL
   \   000029   AB83         MOV     R3,DPH
   \   00002B   12....       LCALL   ??mySendByteBuf?relay
    545            
    546            // 将终端列表中元素在线时长-1，如果检测到超时则将IEEE发送到上位机
    547            decAllListEPLeftSec(LL); 
   \   00002E                ; Setup parameters for call to function decAllListEPLeftSec
   \   00002E   90....       MOV     DPTR,#LL
   \   000031   E0           MOVX    A,@DPTR
   \   000032   FA           MOV     R2,A
   \   000033   A3           INC     DPTR
   \   000034   E0           MOVX    A,@DPTR
   \   000035   FB           MOV     R3,A
   \   000036   12....       LCALL   ??decAllListEPLeftSec?relay
    548            HalLedBlink(HAL_LED_2, 1, 50, 500);
   \   000039                ; Setup parameters for call to function HalLedBlink
   \   000039   7CF4         MOV     R4,#-0xc
   \   00003B   7D01         MOV     R5,#0x1
   \   00003D   7B32         MOV     R3,#0x32
   \   00003F   7A01         MOV     R2,#0x1
   \   000041   7902         MOV     R1,#0x2
   \   000043   12....       LCALL   ??HalLedBlink?relay
    549          #ifdef NEED_TEST_DIStANCE  
    550            // 发送稳定性测试数据到终端设备
    551            totalSendTestCount++;
    552            if(totalSendTestCount % 3 == 0) {
    553              SampleApp_SendPeriodicMessage(1);
    554              myprintf("sendTestCount = %d\n", totalSendTestCount); // 串口打印发送的次数
    555            }
    556          #endif  
    557          }
   \   000046   7403         MOV     A,#0x3
   \   000048   12....       LCALL   ?DEALLOC_XSTACK8
   \   00004B                REQUIRE ?Subroutine2
   \   00004B                ; // Fall through to label ?Subroutine2

   \                                 In  segment BANKED_CODE, align 1, keep-with-next
   \                     ?Subroutine2:
   \   000000   D083         POP     DPH
   \   000002   D082         POP     DPL
   \   000004   02....       LJMP    ?BRET
    558          
    559          /**
    560            终端心跳函数，用于定时向协调器发送本机地址信息
    561          */

   \                                 In  segment BANKED_CODE, align 1, keep-with-next
    562          void SampleApp_SendHeartBeatMessageEnd(void) { 
   \                     SampleApp_SendHeartBeatMessageEnd:
   \   000000   C082         PUSH    DPL
   \   000002   C083         PUSH    DPH
   \   000004                ; Saved register size: 2
   \   000004                ; Auto size: 0
    563            AfSendAddrInfo(0x71);  
   \   000004                ; Setup parameters for call to function AfSendAddrInfo
   \   000004   7971         MOV     R1,#0x71
   \   000006   12....       LCALL   ??AfSendAddrInfo?relay
    564            myprintf("send heart_beat\n");
   \   000009                ; Setup parameters for call to function myprintf
   \   000009   7A..         MOV     R2,#`?<Constant "send heart_beat\\n">` & 0xff
   \   00000B   7B..         MOV     R3,#(`?<Constant "send heart_beat\\n">` >> 8) & 0xff
   \   00000D   12....       LCALL   ??myprintf?relay
    565          }
   \   000010   80..         SJMP    ?Subroutine2
    566          
    567          /**
    568            发送终端地址信息到协调器
    569          */

   \                                 In  segment BANKED_CODE, align 1, keep-with-next
    570          void AfSendAddrInfo(uint8 cmd) {
   \                     AfSendAddrInfo:
   \   000000   74F5         MOV     A,#-0xb
   \   000002   12....       LCALL   ?BANKED_ENTER_XDATA
   \   000005                ; Saved register size: 11
   \   000005                ; Auto size: 13
   \   000005   74F3         MOV     A,#-0xd
   \   000007   12....       LCALL   ?ALLOC_XSTACK8
   \   00000A   E9           MOV     A,R1
   \   00000B   FE           MOV     R6,A
    571            uint16 shortAddr;
    572            uint8 strBuf[13] = {0};
   \   00000C   85..82       MOV     DPL,?XSP + 0
   \   00000F   85..83       MOV     DPH,?XSP + 1
   \   000012   AC82         MOV     R4,DPL
   \   000014   AD83         MOV     R5,DPH
   \   000016   7583..       MOV     DPH,#(`?<Constant {0}>` >> 8) & 0xff
   \   000019   7582..       MOV     DPL,#`?<Constant {0}>` & 0xff
   \   00001C   740D         MOV     A,#0xd
   \   00001E   12....       LCALL   ?MOVE_LONG8_XDATA_XDATA
    573            
    574            shortAddr = NLME_GetShortAddr(); // 获取自身网络设备地址，获取父设备网络地址：uint16 NLME_GetCoordShortAddr( void );
   \   000021                ; Setup parameters for call to function NLME_GetShortAddr
   \   000021   12....       LCALL   ??NLME_GetShortAddr?relay
    575            strBuf[0] = '#';  // 发送数据的标识，便于协调器解析
   \   000024   85..82       MOV     DPL,?XSP + 0
   \   000027   85..83       MOV     DPH,?XSP + 1
   \   00002A   7423         MOV     A,#0x23
   \   00002C   F0           MOVX    @DPTR,A
    576            strBuf[1] = cmd; // 消息类型标识
   \   00002D   7401         MOV     A,#0x1
   \   00002F   12....       LCALL   ?XSTACK_DISP0_8
   \   000032   EE           MOV     A,R6
   \   000033   F0           MOVX    @DPTR,A
    577            strBuf[2] = HI_UINT16(shortAddr); // 存放地址的高8位
   \   000034   7402         MOV     A,#0x2
   \   000036   12....       LCALL   ?XSTACK_DISP0_8
   \   000039   EB           MOV     A,R3
   \   00003A   F0           MOVX    @DPTR,A
    578            strBuf[3] = LO_UINT16(shortAddr); // 存放低8位
   \   00003B   7403         MOV     A,#0x3
   \   00003D   12....       LCALL   ?XSTACK_DISP0_8
   \   000040   EA           MOV     A,R2
   \   000041   12....       LCALL   ?Subroutine3 & 0xFFFF
    579            osal_memcpy(&strBuf[4], NLME_GetExtAddr(), 8); // 复制IEEE地址
   \                     ??CrossCallReturnLabel_0:
   \   000044   12....       LCALL   ?PUSH_XSTACK_I_THREE
   \   000047   7C08         MOV     R4,#0x8
   \   000049   7D00         MOV     R5,#0x0
   \   00004B   7407         MOV     A,#0x7
   \   00004D   12....       LCALL   ?XSTACK_DISP0_8
   \   000050   12....       LCALL   ?Subroutine13 & 0xFFFF
   \                     ??CrossCallReturnLabel_39:
   \   000053   12....       LCALL   ?DEALLOC_XSTACK8
    580            strBuf[12] = '@'; // 尾部字节
   \   000056   740C         MOV     A,#0xc
   \   000058   12....       LCALL   ?XSTACK_DISP0_8
   \   00005B   12....       LCALL   ?Subroutine8 & 0xFFFF
    581            if ( AF_DataRequest( &SampleApp_TxAddr,                  // 发送的目的地址+端点地址+传送模式
    582                                (endPointDesc_t *)&SampleApp_epDesc, // 源终端的描述
    583                                SAMPLEAPP_PERIODIC_CLUSTERID,        // 被profile指定的有效的集群号
    584                                13,                                  // 发送数据长度
    585                                strBuf,                              // 发送数据缓冲区
    586                                &SampleApp_TransID,                  // 消息发送ID
    587                                AF_DISCV_ROUTE,                      // 有效位掩码的发送选项
    588                                AF_DEFAULT_RADIUS ) != afStatus_SUCCESS ) // 传送跳数，通常设置为AF_DEFAULT_RADIUS
   \                     ??CrossCallReturnLabel_9:
   \   00005E   12....       LCALL   ?PUSH_XSTACK_I_ONE
   \   000061   75....       MOV     ?V0 + 0,#SampleApp_TransID & 0xff
   \   000064   75....       MOV     ?V0 + 1,#(SampleApp_TransID >> 8) & 0xff
   \   000067   78..         MOV     R0,#?V0 + 0
   \   000069   12....       LCALL   ?PUSH_XSTACK_I_TWO
   \   00006C   7403         MOV     A,#0x3
   \   00006E   12....       LCALL   ?XSTACK_DISP0_8
   \   000071   8582..       MOV     ?V0 + 0,DPL
   \   000074   8583..       MOV     ?V0 + 1,DPH
   \   000077   78..         MOV     R0,#?V0 + 0
   \   000079   12....       LCALL   ?PUSH_XSTACK_I_TWO
   \   00007C   75..0D       MOV     ?V0 + 0,#0xd
   \   00007F   75..00       MOV     ?V0 + 1,#0x0
   \   000082   78..         MOV     R0,#?V0 + 0
   \   000084   12....       LCALL   ?PUSH_XSTACK_I_TWO
   \   000087   75..01       MOV     ?V0 + 0,#0x1
   \   00008A   78..         MOV     R0,#?V0 + 0
   \   00008C   12....       LCALL   ?PUSH_XSTACK_I_TWO
   \   00008F   12....       LCALL   ?Subroutine15 & 0xFFFF
   \                     ??CrossCallReturnLabel_35:
   \   000092   12....       LCALL   ?DEALLOC_XSTACK8
   \   000095   E9           MOV     A,R1
   \   000096   600A         JZ      ??AfSendAddrInfo_0
    589            {
    590              HalLedBlink(HAL_LED_1, 2, 50, 250); // 发送失败快速闪烁两次
   \   000098                ; Setup parameters for call to function HalLedBlink
   \   000098   7CFA         MOV     R4,#-0x6
   \   00009A   7D00         MOV     R5,#0x0
   \   00009C   7B32         MOV     R3,#0x32
   \   00009E   7A02         MOV     R2,#0x2
   \   0000A0   8008         SJMP    ??AfSendAddrInfo_1
    591            } else {
    592              HalLedBlink(HAL_LED_1, 1, 50, 500); // 发送成功正常闪烁一次
   \                     ??AfSendAddrInfo_0:
   \   0000A2                ; Setup parameters for call to function HalLedBlink
   \   0000A2   7CF4         MOV     R4,#-0xc
   \   0000A4   7D01         MOV     R5,#0x1
   \   0000A6   7B32         MOV     R3,#0x32
   \   0000A8   7A01         MOV     R2,#0x1
   \                     ??AfSendAddrInfo_1:
   \   0000AA   7901         MOV     R1,#0x1
   \   0000AC   12....       LCALL   ??HalLedBlink?relay
    593            }
    594          }
   \   0000AF   740D         MOV     A,#0xd
   \   0000B1   02....       LJMP    ?Subroutine0 & 0xFFFF

   \                                 In  segment BANKED_CODE, align 1, keep-with-next
   \                     ?Subroutine15:
   \   000000   7920         MOV     R1,#0x20
   \   000002   7C..         MOV     R4,#SampleApp_epDesc & 0xff
   \   000004   7D..         MOV     R5,#(SampleApp_epDesc >> 8) & 0xff
   \   000006   7A..         MOV     R2,#SampleApp_TxAddr & 0xff
   \   000008   7B..         MOV     R3,#(SampleApp_TxAddr >> 8) & 0xff
   \   00000A                REQUIRE ??Subroutine19_0
   \   00000A                ; // Fall through to label ??Subroutine19_0

   \                                 In  segment BANKED_CODE, align 1, keep-with-next
   \                     ?Subroutine13:
   \   000000   AA82         MOV     R2,DPL
   \   000002   AB83         MOV     R3,DPH
   \   000004                REQUIRE ??Subroutine20_0
   \   000004                ; // Fall through to label ??Subroutine20_0

   \                                 In  segment BANKED_CODE, align 1, keep-with-next
   \                     ?Subroutine8:
   \   000000   7440         MOV     A,#0x40
   \   000002   F0           MOVX    @DPTR,A
   \   000003                ; Setup parameters for call to function AF_DataRequest
   \   000003                ; Setup parameters for call to function AF_DataRequest
   \   000003                ; Setup parameters for call to function AF_DataRequest
   \   000003   75..1E       MOV     ?V0 + 0,#0x1e
   \   000006   78..         MOV     R0,#?V0 + 0
   \   000008   22           RET

   \                                 In  segment BANKED_CODE, align 1, keep-with-next
   \                     ?Subroutine3:
   \   000000   F0           MOVX    @DPTR,A
   \   000001                ; Setup parameters for call to function osal_memcpy
   \   000001                ; Setup parameters for call to function NLME_GetExtAddr
   \   000001                ; Setup parameters for call to function osal_memcpy
   \   000001                ; Setup parameters for call to function NLME_GetExtAddr
   \   000001                ; Setup parameters for call to function osal_memcpy
   \   000001                ; Setup parameters for call to function NLME_GetExtAddr
   \   000001   12....       LCALL   ??NLME_GetExtAddr?relay
   \   000004   8A..         MOV     ?V0 + 0,R2
   \   000006   8B..         MOV     ?V0 + 1,R3
   \   000008   75..00       MOV     ?V0 + 2,#0x0
   \   00000B   78..         MOV     R0,#?V0 + 0
   \   00000D   22           RET

   \                                 In  segment BANKED_CODE, align 1, keep-with-next
   \                     ?Subroutine0:
   \   000000   12....       LCALL   ?DEALLOC_XSTACK8
   \   000003                REQUIRE ??Subroutine21_0
   \   000003                ; // Fall through to label ??Subroutine21_0
    595          
    596          /**
    597            终端发送已经收到投币开始游戏命令
    598          */

   \                                 In  segment BANKED_CODE, align 1, keep-with-next
    599          void AfReplyGetCoinCmd(void) {
   \                     AfReplyGetCoinCmd:
   \   000000   74F5         MOV     A,#-0xb
   \   000002   12....       LCALL   ?BANKED_ENTER_XDATA
   \   000005                ; Saved register size: 11
   \   000005                ; Auto size: 11
   \   000005   74F5         MOV     A,#-0xb
   \   000007   12....       LCALL   ?ALLOC_XSTACK8
    600            uint8 strBuf[11] = {0};  
   \   00000A   85..82       MOV     DPL,?XSP + 0
   \   00000D   85..83       MOV     DPH,?XSP + 1
   \   000010   AC82         MOV     R4,DPL
   \   000012   AD83         MOV     R5,DPH
   \   000014   7583..       MOV     DPH,#(`?<Constant {0}>_1` >> 8) & 0xff
   \   000017   7582..       MOV     DPL,#`?<Constant {0}>_1` & 0xff
   \   00001A   740B         MOV     A,#0xb
   \   00001C   12....       LCALL   ?MOVE_LONG8_XDATA_XDATA
    601            
    602            strBuf[0] = '#';  // 发送数据的标识，便于协调器解析
   \   00001F   85..82       MOV     DPL,?XSP + 0
   \   000022   85..83       MOV     DPH,?XSP + 1
   \   000025   7423         MOV     A,#0x23
   \   000027   F0           MOVX    @DPTR,A
    603            strBuf[1] = 0x72; // 消息类型标识
   \   000028   7401         MOV     A,#0x1
   \   00002A   12....       LCALL   ?XSTACK_DISP0_8
   \   00002D   7472         MOV     A,#0x72
   \   00002F   12....       LCALL   ?Subroutine3 & 0xFFFF
    604            osal_memcpy(&strBuf[2], NLME_GetExtAddr(), 8); // 复制IEEE地址
   \                     ??CrossCallReturnLabel_1:
   \   000032   12....       LCALL   ?PUSH_XSTACK_I_THREE
   \   000035   7C08         MOV     R4,#0x8
   \   000037   7D00         MOV     R5,#0x0
   \   000039   7405         MOV     A,#0x5
   \   00003B   12....       LCALL   ?XSTACK_DISP0_8
   \   00003E   12....       LCALL   ?Subroutine13 & 0xFFFF
   \                     ??CrossCallReturnLabel_40:
   \   000041   12....       LCALL   ?DEALLOC_XSTACK8
    605            strBuf[10] = '@'; // 尾部字节
   \   000044   740A         MOV     A,#0xa
   \   000046   12....       LCALL   ?XSTACK_DISP0_8
   \   000049   12....       LCALL   ?Subroutine8 & 0xFFFF
    606            if ( AF_DataRequest( &SampleApp_TxAddr,                  // 发送的目的地址+端点地址+传送模式
    607                                (endPointDesc_t *)&SampleApp_epDesc, // 源终端的描述
    608                                SAMPLEAPP_PERIODIC_CLUSTERID,        // 被profile指定的有效的集群号
    609                                11,                                  // 发送数据长度
    610                                strBuf,                              // 发送数据缓冲区
    611                                &SampleApp_TransID,                  // 消息发送ID
    612                                AF_DISCV_ROUTE,                      // 有效位掩码的发送选项
    613                                AF_DEFAULT_RADIUS ) != afStatus_SUCCESS ) // 传送跳数，通常设置为AF_DEFAULT_RADIUS
   \                     ??CrossCallReturnLabel_10:
   \   00004C   12....       LCALL   ?PUSH_XSTACK_I_ONE
   \   00004F   75....       MOV     ?V0 + 0,#SampleApp_TransID & 0xff
   \   000052   75....       MOV     ?V0 + 1,#(SampleApp_TransID >> 8) & 0xff
   \   000055   78..         MOV     R0,#?V0 + 0
   \   000057   12....       LCALL   ?PUSH_XSTACK_I_TWO
   \   00005A   7403         MOV     A,#0x3
   \   00005C   12....       LCALL   ?XSTACK_DISP0_8
   \   00005F   8582..       MOV     ?V0 + 0,DPL
   \   000062   8583..       MOV     ?V0 + 1,DPH
   \   000065   78..         MOV     R0,#?V0 + 0
   \   000067   12....       LCALL   ?PUSH_XSTACK_I_TWO
   \   00006A   75..0B       MOV     ?V0 + 0,#0xb
   \   00006D   75..00       MOV     ?V0 + 1,#0x0
   \   000070   78..         MOV     R0,#?V0 + 0
   \   000072   12....       LCALL   ?PUSH_XSTACK_I_TWO
   \   000075   75..01       MOV     ?V0 + 0,#0x1
   \   000078   78..         MOV     R0,#?V0 + 0
   \   00007A   12....       LCALL   ?PUSH_XSTACK_I_TWO
   \   00007D   12....       LCALL   ?Subroutine15 & 0xFFFF
   \                     ??CrossCallReturnLabel_36:
   \   000080   12....       LCALL   ?DEALLOC_XSTACK8
   \   000083   E9           MOV     A,R1
   \   000084   600C         JZ      ??AfReplyGetCoinCmd_0
    614            {
    615              HalLedBlink(HAL_LED_1, 4, 50, 250); // 发送失败快速闪烁两次
   \   000086                ; Setup parameters for call to function HalLedBlink
   \   000086   7CFA         MOV     R4,#-0x6
   \   000088   7D00         MOV     R5,#0x0
   \   00008A   7B32         MOV     R3,#0x32
   \   00008C   7A04         MOV     R2,#0x4
   \   00008E   7901         MOV     R1,#0x1
   \   000090   800A         SJMP    ??AfReplyGetCoinCmd_1
    616            } else {
    617              HalLedBlink(HAL_LED_2, 2, 50, 200); // 发送成功正常闪烁2次
   \                     ??AfReplyGetCoinCmd_0:
   \   000092                ; Setup parameters for call to function HalLedBlink
   \   000092   7CC8         MOV     R4,#-0x38
   \   000094   7D00         MOV     R5,#0x0
   \   000096   7B32         MOV     R3,#0x32
   \   000098   7A02         MOV     R2,#0x2
   \   00009A   7902         MOV     R1,#0x2
   \                     ??AfReplyGetCoinCmd_1:
   \   00009C   12....       LCALL   ??HalLedBlink?relay
    618            }
    619          }
   \   00009F   740B         MOV     A,#0xb
   \   0000A1   02....       LJMP    ?Subroutine0 & 0xFFFF
    620          
    621          /**
    622            协调器打印终端上传的长短地址
    623          */

   \                                 In  segment BANKED_CODE, align 1, keep-with-next
    624          void printAddrInfoHex(uint8* buf, uint8 dataLen) {
   \                     printAddrInfoHex:
   \   000000   74F3         MOV     A,#-0xd
   \   000002   12....       LCALL   ?BANKED_ENTER_XDATA
   \   000005                ; Saved register size: 13
   \   000005                ; Auto size: 0
   \   000005   EA           MOV     A,R2
   \   000006   FE           MOV     R6,A
   \   000007   EB           MOV     A,R3
   \   000008   FF           MOV     R7,A
   \   000009   89..         MOV     ?V0 + 4,R1
    625            int i = 0;
    626            
    627            myprintf("\n");
   \   00000B                ; Setup parameters for call to function myprintf
   \   00000B   7A..         MOV     R2,#`?<Constant "\\n">` & 0xff
   \   00000D   7B..         MOV     R3,#(`?<Constant "\\n">` >> 8) & 0xff
   \   00000F   12....       LCALL   ??myprintf?relay
    628            for(i = 0; i < dataLen; i++) {
   \   000012   75..00       MOV     ?V0 + 0,#0x0
   \   000015   75..00       MOV     ?V0 + 1,#0x0
   \   000018   8037         SJMP    ??printAddrInfoHex_0
    629              if(i == 2) {
   \                     ??printAddrInfoHex_1:
   \   00001A   7402         MOV     A,#0x2
   \   00001C   65..         XRL     A,?V0 + 0
   \   00001E   7002         JNZ     ??printAddrInfoHex_2
   \   000020   E5..         MOV     A,?V0 + 1
   \                     ??printAddrInfoHex_2:
   \   000022   7007         JNZ     ??printAddrInfoHex_3
    630                myprintf("; IEEE = ");
   \   000024                ; Setup parameters for call to function myprintf
   \   000024   7A..         MOV     R2,#`?<Constant "; IEEE = ">` & 0xff
   \   000026   7B..         MOV     R3,#(`?<Constant "; IEEE = ">` >> 8) & 0xff
   \   000028   12....       LCALL   ??myprintf?relay
    631              }
    632              myprintf("0x%x,", buf[i]);
   \                     ??printAddrInfoHex_3:
   \   00002B                ; Setup parameters for call to function myprintf
   \   00002B   EE           MOV     A,R6
   \   00002C   25..         ADD     A,?V0 + 0
   \   00002E   F582         MOV     DPL,A
   \   000030   EF           MOV     A,R7
   \   000031   35..         ADDC    A,?V0 + 1
   \   000033   F583         MOV     DPH,A
   \   000035   12....       LCALL   ?Subroutine10 & 0xFFFF
    633            }
   \                     ??CrossCallReturnLabel_15:
   \   000038   12....       LCALL   ?PUSH_XSTACK_I_TWO
   \   00003B   7A..         MOV     R2,#`?<Constant "0x%x,">` & 0xff
   \   00003D   7B..         MOV     R3,#(`?<Constant "0x%x,">` >> 8) & 0xff
   \   00003F   12....       LCALL   ?Subroutine11 & 0xFFFF
   \                     ??CrossCallReturnLabel_20:
   \   000042   12....       LCALL   ?DEALLOC_XSTACK8
   \   000045   E5..         MOV     A,?V0 + 0
   \   000047   2401         ADD     A,#0x1
   \   000049   F5..         MOV     ?V0 + 0,A
   \   00004B   E5..         MOV     A,?V0 + 1
   \   00004D   3400         ADDC    A,#0x0
   \   00004F   F5..         MOV     ?V0 + 1,A
   \                     ??printAddrInfoHex_0:
   \   000051   85....       MOV     ?V0 + 2,?V0 + 4
   \   000054   C3           CLR     C
   \   000055   E5..         MOV     A,?V0 + 0
   \   000057   95..         SUBB    A,?V0 + 2
   \   000059   E5..         MOV     A,?V0 + 1
   \   00005B   9400         SUBB    A,#0x0
   \   00005D   A2D2         MOV     C,0xD0 /* PSW */.2
   \   00005F   65D0         XRL     A,PSW
   \   000061   33           RLC     A
   \   000062   40B6         JC      ??printAddrInfoHex_1
    634            myprintf("\n");
   \   000064                ; Setup parameters for call to function myprintf
   \   000064   7A..         MOV     R2,#`?<Constant "\\n">` & 0xff
   \   000066   7B..         MOV     R3,#(`?<Constant "\\n">` >> 8) & 0xff
   \   000068   12....       LCALL   ??myprintf?relay
    635          }
   \   00006B   7F05         MOV     R7,#0x5
   \   00006D   02....       LJMP    ?BANKED_LEAVE_XDATA
    636          
    637          /**
    638            将十六进制数转变成字符
    639          */

   \                                 In  segment BANKED_CODE, align 1, keep-with-next
    640          void convertHexToStr(uint16 addr, uint8 lcdLineNum) {
   \                     convertHexToStr:
   \   000000   74F5         MOV     A,#-0xb
   \   000002   12....       LCALL   ?BANKED_ENTER_XDATA
   \   000005                ; Saved register size: 11
   \   000005                ; Auto size: 7
   \   000005   74F9         MOV     A,#-0x7
   \   000007   12....       LCALL   ?ALLOC_XSTACK8
   \   00000A   7405         MOV     A,#0x5
   \   00000C   12....       LCALL   ?XSTACK_DISP0_8
   \   00000F   EA           MOV     A,R2
   \   000010   F0           MOVX    @DPTR,A
   \   000011   A3           INC     DPTR
   \   000012   EB           MOV     A,R3
   \   000013   F0           MOVX    @DPTR,A
   \   000014   E9           MOV     A,R1
   \   000015   FE           MOV     R6,A
    641            uint8 i;
    642            uint8 *xad;
    643            uint8 lcd_buf[2*2+1];
    644          
    645            // Display the extended address.
    646            xad = (uint8*)&addr + 2 - 1;
   \   000016   A882         MOV     R0,DPL
   \   000018   A983         MOV     R1,DPH
    647          
    648            for (i = 0; i < 2*2; xad--)
   \   00001A   7C00         MOV     R4,#0x0
    649            {
    650              uint8 ch;
    651              ch = (*xad >> 4) & 0x0F;
   \                     ??convertHexToStr_0:
   \   00001C   8882         MOV     DPL,R0
   \   00001E   8983         MOV     DPH,R1
   \   000020   E0           MOVX    A,@DPTR
   \   000021   C4           SWAP    A
   \   000022   540F         ANL     A,#0xf
   \   000024   FD           MOV     R5,A
    652              lcd_buf[i++] = ch + (( ch < 10 ) ? '0' : '7'); // +7可以转变成大写字符ABCDEF
   \   000025   EC           MOV     A,R4
   \   000026   FF           MOV     R7,A
   \   000027   0C           INC     R4
   \   000028   ED           MOV     A,R5
   \   000029   C3           CLR     C
   \   00002A   940A         SUBB    A,#0xa
   \   00002C   5004         JNC     ??convertHexToStr_1
   \   00002E   7A30         MOV     R2,#0x30
   \   000030   8002         SJMP    ??convertHexToStr_2
   \                     ??convertHexToStr_1:
   \   000032   7A37         MOV     R2,#0x37
   \                     ??convertHexToStr_2:
   \   000034   EA           MOV     A,R2
   \   000035   2D           ADD     A,R5
   \   000036   C0E0         PUSH    A
   \   000038   8F..         MOV     ?V0 + 0,R7
   \   00003A   12....       LCALL   ?Subroutine12 & 0xFFFF
   \                     ??CrossCallReturnLabel_22:
   \   00003D   D0E0         POP     A
   \   00003F   F0           MOVX    @DPTR,A
    653              ch = *xad & 0x0F;
   \   000040   8882         MOV     DPL,R0
   \   000042   8983         MOV     DPH,R1
   \   000044   E0           MOVX    A,@DPTR
   \   000045   540F         ANL     A,#0xf
   \   000047   FD           MOV     R5,A
    654              lcd_buf[i++] = ch + (( ch < 10 ) ? '0' : '7');
   \   000048   8C..         MOV     ?V0 + 2,R4
   \   00004A   0C           INC     R4
   \   00004B   C3           CLR     C
   \   00004C   940A         SUBB    A,#0xa
   \   00004E   5004         JNC     ??convertHexToStr_3
   \   000050   7A30         MOV     R2,#0x30
   \   000052   8002         SJMP    ??convertHexToStr_4
   \                     ??convertHexToStr_3:
   \   000054   7A37         MOV     R2,#0x37
   \                     ??convertHexToStr_4:
   \   000056   EA           MOV     A,R2
   \   000057   2D           ADD     A,R5
   \   000058   C0E0         PUSH    A
   \   00005A   85....       MOV     ?V0 + 0,?V0 + 2
   \   00005D   12....       LCALL   ?Subroutine12 & 0xFFFF
    655            }
   \                     ??CrossCallReturnLabel_23:
   \   000060   D0E0         POP     A
   \   000062   F0           MOVX    @DPTR,A
   \   000063   E8           MOV     A,R0
   \   000064   24FF         ADD     A,#-0x1
   \   000066   18           DEC     R0
   \   000067   E9           MOV     A,R1
   \   000068   34FF         ADDC    A,#-0x1
   \   00006A   F9           MOV     R1,A
   \   00006B   EC           MOV     A,R4
   \   00006C   C3           CLR     C
   \   00006D   9404         SUBB    A,#0x4
   \   00006F   40AB         JC      ??convertHexToStr_0
    656            lcd_buf[2*2] = '\0';
   \   000071   7404         MOV     A,#0x4
   \   000073   12....       LCALL   ?XSTACK_DISP0_8
   \   000076   E4           CLR     A
   \   000077   F0           MOVX    @DPTR,A
    657            HalLcdWriteString( (char*)lcd_buf, lcdLineNum);
   \   000078                ; Setup parameters for call to function HalLcdWriteString
   \   000078   EE           MOV     A,R6
   \   000079   F9           MOV     R1,A
   \   00007A   85..82       MOV     DPL,?XSP + 0
   \   00007D   85..83       MOV     DPH,?XSP + 1
   \   000080   AA82         MOV     R2,DPL
   \   000082   AB83         MOV     R3,DPH
   \   000084   12....       LCALL   ??HalLcdWriteString?relay
    658          }
   \   000087   7407         MOV     A,#0x7
   \   000089                REQUIRE ?Subroutine0
   \   000089                ; // Fall through to label ?Subroutine0

   \                                 In  segment BANKED_CODE, align 1, keep-with-next
   \                     ?Subroutine12:
   \   000000   85..82       MOV     DPL,?XSP + 0
   \   000003   85..83       MOV     DPH,?XSP + 1
   \   000006   E582         MOV     A,DPL
   \   000008   25..         ADD     A,?V0 + 0
   \   00000A   F582         MOV     DPL,A
   \   00000C   E583         MOV     A,DPH
   \   00000E   3400         ADDC    A,#0x0
   \   000010   F583         MOV     DPH,A
   \   000012   22           RET
    659          
    660          /**
    661            检测彩票机动作控制引脚，如果检测到低电平表示需要出发彩票机，main主函数中循环调用
    662          */

   \                                 In  segment BANKED_CODE, align 1, keep-with-next
    663          void checkGameIsOverReward(void) {
   \                     checkGameIsOverReward:
   \   000000   74F5         MOV     A,#-0xb
   \   000002   12....       LCALL   ?BANKED_ENTER_XDATA
   \   000005                ; Saved register size: 11
   \   000005                ; Auto size: 12
   \   000005   74F4         MOV     A,#-0xc
   \   000007   12....       LCALL   ?ALLOC_XSTACK8
    664            if(REWARD_RECV_PIN == 0) { // 游戏结束，开始动作彩票机出奖励
   \   00000A   A293         MOV     C,0x90.3
   \   00000C   400A         JC      ??checkGameIsOverReward_0
    665              REWARD_CTL_PIN = 0;  // 转发信号，控制彩票机开始出彩票
   \   00000E   C294         CLR     0x90.4
    666              gameWillOver = 1;
   \   000010   90....       MOV     DPTR,#gameWillOver
   \   000013   7401         MOV     A,#0x1
   \   000015   02....       LJMP    ??checkGameIsOverReward_1 & 0xFFFF
    667            } else if(REWARD_RECV_PIN == 1) {    
   \                     ??checkGameIsOverReward_0:
   \   000018   A293         MOV     C,0x90.3
   \   00001A   4003         JC      $+5
   \   00001C   02....       LJMP    ??checkGameIsOverReward_2 & 0xFFFF
    668              if(gameWillOver == 1) {
   \   00001F   90....       MOV     DPTR,#gameWillOver
   \   000022   E0           MOVX    A,@DPTR
   \   000023   6401         XRL     A,#0x1
   \   000025   6003         JZ      $+5
   \   000027   02....       LJMP    ??checkGameIsOverReward_2 & 0xFFFF
    669                REWARD_CTL_PIN = 1;  // 转发停止出彩票
   \   00002A   D294         SETB    0x90.4
    670                gameWillOver = 0;    
   \   00002C   E4           CLR     A
   \   00002D   F0           MOVX    @DPTR,A
    671                uint8 strBuf[12] = {0};  
   \   00002E   90....       MOV     DPTR,#`?<Constant {0}>_2`
   \   000031   C082         PUSH    DPL
   \   000033   85..82       MOV     DPL,?XSP + 0
   \   000036   85..83       MOV     DPH,?XSP + 1
   \   000039   AC82         MOV     R4,DPL
   \   00003B   AD83         MOV     R5,DPH
   \   00003D   7583..       MOV     DPH,#(`?<Constant {0}>_2` >> 8) & 0xff
   \   000040   D082         POP     DPL
   \   000042   740C         MOV     A,#0xc
   \   000044   12....       LCALL   ?MOVE_LONG8_XDATA_XDATA
    672                // 通知服务器游戏结束，并将奖励彩票个数信息rewardCount发送到服务器
    673                strBuf[0] = '#';  // 发送数据的标识，便于协调器解析
   \   000047   85..82       MOV     DPL,?XSP + 0
   \   00004A   85..83       MOV     DPH,?XSP + 1
   \   00004D   7423         MOV     A,#0x23
   \   00004F   F0           MOVX    @DPTR,A
    674                strBuf[1] = 0x73; // 消息类型标识
   \   000050   7401         MOV     A,#0x1
   \   000052   12....       LCALL   ?XSTACK_DISP0_8
   \   000055   7473         MOV     A,#0x73
   \   000057   F0           MOVX    @DPTR,A
    675                strBuf[2] = rewardCount; // 获取的奖励个数
   \   000058   90....       MOV     DPTR,#rewardCount
   \   00005B   E0           MOVX    A,@DPTR
   \   00005C   C0E0         PUSH    A
   \   00005E   7402         MOV     A,#0x2
   \   000060   12....       LCALL   ?XSTACK_DISP0_8
   \   000063   D0E0         POP     A
   \   000065   12....       LCALL   ?Subroutine3 & 0xFFFF
    676                osal_memcpy(&strBuf[3], NLME_GetExtAddr(), 8); // 复制IEEE地址
   \                     ??CrossCallReturnLabel_2:
   \   000068   12....       LCALL   ?PUSH_XSTACK_I_THREE
   \   00006B   7C08         MOV     R4,#0x8
   \   00006D   7D00         MOV     R5,#0x0
   \   00006F   7406         MOV     A,#0x6
   \   000071   12....       LCALL   ?XSTACK_DISP0_8
   \   000074   12....       LCALL   ?Subroutine13 & 0xFFFF
   \                     ??CrossCallReturnLabel_41:
   \   000077   12....       LCALL   ?DEALLOC_XSTACK8
    677                strBuf[11] = '@'; // 尾部字节
   \   00007A   740B         MOV     A,#0xb
   \   00007C   12....       LCALL   ?XSTACK_DISP0_8
   \   00007F   12....       LCALL   ?Subroutine8 & 0xFFFF
    678                if ( AF_DataRequest( &SampleApp_TxAddr,                  // 发送的目的地址+端点地址+传送模式
    679                                    (endPointDesc_t *)&SampleApp_epDesc, // 源终端的描述
    680                                    SAMPLEAPP_PERIODIC_CLUSTERID,        // 被profile指定的有效的集群号
    681                                    12,                                  // 发送数据长度
    682                                    strBuf,                              // 发送数据缓冲区
    683                                    &SampleApp_TransID,                  // 消息发送ID
    684                                    AF_DISCV_ROUTE,                      // 有效位掩码的发送选项
    685                                    AF_DEFAULT_RADIUS ) != afStatus_SUCCESS ) // 传送跳数，通常设置为AF_DEFAULT_RADIUS
   \                     ??CrossCallReturnLabel_11:
   \   000082   12....       LCALL   ?PUSH_XSTACK_I_ONE
   \   000085   75....       MOV     ?V0 + 0,#SampleApp_TransID & 0xff
   \   000088   75....       MOV     ?V0 + 1,#(SampleApp_TransID >> 8) & 0xff
   \   00008B   78..         MOV     R0,#?V0 + 0
   \   00008D   12....       LCALL   ?PUSH_XSTACK_I_TWO
   \   000090   7403         MOV     A,#0x3
   \   000092   12....       LCALL   ?XSTACK_DISP0_8
   \   000095   8582..       MOV     ?V0 + 0,DPL
   \   000098   8583..       MOV     ?V0 + 1,DPH
   \   00009B   78..         MOV     R0,#?V0 + 0
   \   00009D   12....       LCALL   ?PUSH_XSTACK_I_TWO
   \   0000A0   75..0C       MOV     ?V0 + 0,#0xc
   \   0000A3   75..00       MOV     ?V0 + 1,#0x0
   \   0000A6   78..         MOV     R0,#?V0 + 0
   \   0000A8   12....       LCALL   ?PUSH_XSTACK_I_TWO
   \   0000AB   75..01       MOV     ?V0 + 0,#0x1
   \   0000AE   78..         MOV     R0,#?V0 + 0
   \   0000B0   12....       LCALL   ?PUSH_XSTACK_I_TWO
   \   0000B3   12....       LCALL   ?Subroutine15 & 0xFFFF
   \                     ??CrossCallReturnLabel_37:
   \   0000B6   12....       LCALL   ?DEALLOC_XSTACK8
   \   0000B9   E9           MOV     A,R1
   \   0000BA   600C         JZ      ??checkGameIsOverReward_3
    686                {
    687                  HalLedBlink(HAL_LED_1, 4, 50, 250); // 发送失败快速闪烁2次
   \   0000BC                ; Setup parameters for call to function HalLedBlink
   \   0000BC   7CFA         MOV     R4,#-0x6
   \   0000BE   7D00         MOV     R5,#0x0
   \   0000C0   7B32         MOV     R3,#0x32
   \   0000C2   7A04         MOV     R2,#0x4
   \   0000C4   7901         MOV     R1,#0x1
   \   0000C6   800A         SJMP    ??checkGameIsOverReward_4
    688                } else {
    689                  HalLedBlink(HAL_LED_2, 2, 50, 200); // 发送成功正常闪烁2次
   \                     ??checkGameIsOverReward_3:
   \   0000C8                ; Setup parameters for call to function HalLedBlink
   \   0000C8   7CC8         MOV     R4,#-0x38
   \   0000CA   7D00         MOV     R5,#0x0
   \   0000CC   7B32         MOV     R3,#0x32
   \   0000CE   7A02         MOV     R2,#0x2
   \   0000D0   7902         MOV     R1,#0x2
   \                     ??checkGameIsOverReward_4:
   \   0000D2   12....       LCALL   ??HalLedBlink?relay
    690                }
    691                      
    692                myprintf("Stop out reward, rewardCount = %d\n", rewardCount);
   \   0000D5                ; Setup parameters for call to function myprintf
   \   0000D5   90....       MOV     DPTR,#rewardCount
   \   0000D8   E0           MOVX    A,@DPTR
   \   0000D9   F5..         MOV     ?V0 + 0,A
   \   0000DB   78..         MOV     R0,#?V0 + 0
   \   0000DD   12....       LCALL   ?PUSH_XSTACK_I_TWO
   \   0000E0   7A..         MOV     R2,#`?<Constant "Stop out reward, rewa...">` & 0xff
   \   0000E2   7B..         MOV     R3,#(`?<Constant "Stop out reward, rewa...">` >> 8) & 0xff
   \   0000E4   12....       LCALL   ?Subroutine11 & 0xFFFF
   \                     ??CrossCallReturnLabel_21:
   \   0000E7   12....       LCALL   ?DEALLOC_XSTACK8
    693                rewardCount = 0;
   \   0000EA   90....       MOV     DPTR,#rewardCount
   \   0000ED   E4           CLR     A
   \                     ??checkGameIsOverReward_1:
   \   0000EE   F0           MOVX    @DPTR,A
    694              }
    695            }
    696          }
   \                     ??checkGameIsOverReward_2:
   \   0000EF   740C         MOV     A,#0xc
   \   0000F1   02....       LJMP    ?Subroutine0 & 0xFFFF
   \   0000F4                REQUIRE _A_P1

   \                                 In  segment INTVEC, offset 0x6b, root
   \                     `??port0Isr??INTVEC 107`:
   \   00006B   02....       LJMP       (port0Isr)

   \                                 In  segment BANK_RELAYS, align 1
   \                     ??SampleApp_Init?relay:
   \   000000   12....       LCALL   ?BDISPATCH
   \   000003   ......       DC24    SampleApp_Init

   \                                 In  segment BANK_RELAYS, align 1
   \                     ??SampleApp_ProcessEvent?relay:
   \   000000   12....       LCALL   ?BDISPATCH
   \   000003   ......       DC24    SampleApp_ProcessEvent

   \                                 In  segment BANK_RELAYS, align 1
   \                     ??SampleApp_HandleKeys?relay:
   \   000000   12....       LCALL   ?BDISPATCH
   \   000003   ......       DC24    SampleApp_HandleKeys

   \                                 In  segment BANK_RELAYS, align 1
   \                     ??SampleApp_MessageMSGCB?relay:
   \   000000   12....       LCALL   ?BDISPATCH
   \   000003   ......       DC24    SampleApp_MessageMSGCB

   \                                 In  segment BANK_RELAYS, align 1
   \                     ??SampleApp_SendPeriodicMessage?relay:
   \   000000   12....       LCALL   ?BDISPATCH
   \   000003   ......       DC24    SampleApp_SendPeriodicMessage

   \                                 In  segment BANK_RELAYS, align 1
   \                     ??SampleApp_SendHeartBeatMessageCoor?relay:
   \   000000   12....       LCALL   ?BDISPATCH
   \   000003   ......       DC24    SampleApp_SendHeartBeatMessageCoor

   \                                 In  segment BANK_RELAYS, align 1
   \                     ??SampleApp_SendHeartBeatMessageEnd?relay:
   \   000000   12....       LCALL   ?BDISPATCH
   \   000003   ......       DC24    SampleApp_SendHeartBeatMessageEnd

   \                                 In  segment BANK_RELAYS, align 1
   \                     ??AfSendAddrInfo?relay:
   \   000000   12....       LCALL   ?BDISPATCH
   \   000003   ......       DC24    AfSendAddrInfo

   \                                 In  segment BANK_RELAYS, align 1
   \                     ??AfReplyGetCoinCmd?relay:
   \   000000   12....       LCALL   ?BDISPATCH
   \   000003   ......       DC24    AfReplyGetCoinCmd

   \                                 In  segment BANK_RELAYS, align 1
   \                     ??printAddrInfoHex?relay:
   \   000000   12....       LCALL   ?BDISPATCH
   \   000003   ......       DC24    printAddrInfoHex

   \                                 In  segment BANK_RELAYS, align 1
   \                     ??convertHexToStr?relay:
   \   000000   12....       LCALL   ?BDISPATCH
   \   000003   ......       DC24    convertHexToStr

   \                                 In  segment BANK_RELAYS, align 1
   \                     ??checkGameIsOverReward?relay:
   \   000000   12....       LCALL   ?BDISPATCH
   \   000003   ......       DC24    checkGameIsOverReward

   \                                 In  segment XDATA_ROM_C, align 1
   \                     `?<Constant "get p0_4 coin input i...">`:
   \   000000   67657420     DB "get p0_4 coin input interrupt\012"
   \            70305F34
   \            20636F69
   \            6E20696E
   \            70757420
   \            696E7465
   \            72727570
   \            740A00  

   \                                 In  segment XDATA_ROM_C, align 1
   \                     `?<Constant "Get p0_6 one reward i...">`:
   \   000000   47657420     DB "Get p0_6 one reward interrupt\012"
   \            70305F36
   \            206F6E65
   \            20726577
   \            61726420
   \            696E7465
   \            72727570
   \            740A00  

   \                                 In  segment XDATA_ROM_C, align 1
   \                     `?<Constant "Group 1">`:
   \   000000   47726F75     DB "Group 1"
   \            70203100

   \                                 In  segment XDATA_ROM_C, align 1
   \                     `?<Constant "UartInit OK\\n">`:
   \   000000   55617274     DB "UartInit OK\012"
   \            496E6974
   \            204F4B0A
   \            00      

   \                                 In  segment XDATA_ROM_C, align 1
   \                     `?<Constant {35, 69, 64}>`:
   \   000000   23           DB 35
   \   000001   45           DB 69
   \   000002   40           DB 64

   \                                 In  segment XDATA_ROM_C, align 1
   \                     `?<Constant "ERROR:AF_DATA_CONFIRM...">`:
   \   000000   4552524F     DB "ERROR:AF_DATA_CONFIRM_CMD failed\012"
   \            523A4146
   \            5F444154
   \            415F434F
   \            4E464952
   \            4D5F434D
   \            44206661
   \            696C6564
   \            0A00    

   \                                 In  segment XDATA_ROM_C, align 1
   \                     `?<Constant "unknown pkg-event = 0...">`:
   \   000000   756E6B6E     DB "unknown pkg-event = 0x%x\012"
   \            6F776E20
   \            706B672D
   \            6576656E
   \            74203D20
   \            30782578
   \            0A00    

   \                                 In  segment XDATA_ROM_C, align 1
   \                     `?<Constant "Get COIN_MSG_EVT, Nee...">`:
   \   000000   47657420     DB 47H, 65H, 74H, 20H, 43H, 4FH, 49H, 4EH
   \            434F494E
   \   000008   5F4D5347     DB 5FH, 4DH, 53H, 47H, 5FH, 45H, 56H, 54H
   \            5F455654
   \   000010   2C204E65     DB 2CH, 20H, 4EH, 65H, 65H, 64H, 43H, 6FH
   \            6564436F
   \   000018   696E4465     DB 69H, 6EH, 44H, 65H, 6CH, 69H, 76H, 65H
   \            6C697665
   \   000020   72656420     DB 72H, 65H, 64H, 20H, 3DH, 20H, 25H, 64H
   \            3D202564
   \   000028   2C206576     DB 2CH, 20H, 65H, 76H, 65H, 6EH, 74H, 73H
   \            656E7473
   \   000030   203D2030     DB 20H, 3DH, 20H, 30H, 78H, 25H, 78H, 0AH
   \            7825780A
   \   000038   00           DB 0

   \                                 In  segment XDATA_ROM_C, align 1
   \                     `?<Constant "Get transport coin EV...">`:
   \   000000   47657420     DB "Get transport coin EVT, NeedCoinTransport = %d\012"
   \            7472616E
   \            73706F72
   \            7420636F
   \            696E2045
   \            56542C20
   \            4E656564
   \            436F696E
   \            5472616E
   \            73706F72
   \            74203D20
   \            25640A00

   \                                 In  segment XDATA_ROM_C, align 1
   \                     `?<Constant "get trans reward msg ...">`:
   \   000000   67657420     DB "get trans reward msg event, REWARD_BACK_PIN = %d\012"
   \            7472616E
   \            73207265
   \            77617264
   \            206D7367
   \            20657665
   \            6E742C20
   \            52455741
   \            52445F42
   \            41434B5F
   \            50494E20
   \            3D202564
   \            0A00    

   \                                 In  segment XDATA_ROM_C, align 1
   \                     `?<Constant "NeedCoinDelivered = %d\\n">`:
   \   000000   4E656564     DB "NeedCoinDelivered = %d\012"
   \            436F696E
   \            44656C69
   \            76657265
   \            64203D20
   \            25640A00

   \                                 In  segment XDATA_ROM_C, align 1
   \                     `?<Constant {35, 49, 0, 64}>`:
   \   000000   23           DB 35
   \   000001   31           DB 49
   \   000002   00           DB 0
   \   000003   40           DB 64

   \                                 In  segment XDATA_ROM_C, align 1
   \                     `?<Constant {35, 70, 64}>`:
   \   000000   23           DB 35
   \   000001   46           DB 70
   \   000002   40           DB 64

   \                                 In  segment XDATA_ROM_C, align 1
   \                     `?<Constant "send heart_beat\\n">`:
   \   000000   73656E64     DB "send heart_beat\012"
   \            20686561
   \            72745F62
   \            6561740A
   \            00      

   \                                 In  segment XDATA_ROM_C, align 1
   \                     `?<Constant {0}>`:
   \   000000   00           DB 0
   \   000001   00000000     DB 0, 0, 0, 0, 0, 0, 0, 0
   \            00000000
   \   000009   00000000     DB 0, 0, 0, 0

   \                                 In  segment XDATA_ROM_C, align 1
   \                     `?<Constant {0}>_1`:
   \   000000   00           DB 0
   \   000001   00000000     DB 0, 0, 0, 0, 0, 0, 0, 0
   \            00000000
   \   000009   0000         DB 0, 0

   \                                 In  segment XDATA_ROM_C, align 1
   \                     `?<Constant "\\n">`:
   \   000000   0A00         DB "\012"

   \                                 In  segment XDATA_ROM_C, align 1
   \                     `?<Constant "; IEEE = ">`:
   \   000000   3B204945     DB "; IEEE = "
   \            4545203D
   \            2000    

   \                                 In  segment XDATA_ROM_C, align 1
   \                     `?<Constant "0x%x,">`:
   \   000000   30782578     DB "0x%x,"
   \            2C00    

   \                                 In  segment XDATA_ROM_C, align 1
   \                     `?<Constant {0}>_2`:
   \   000000   00           DB 0
   \   000001   00000000     DB 0, 0, 0, 0, 0, 0, 0, 0
   \            00000000
   \   000009   000000       DB 0, 0, 0

   \                                 In  segment XDATA_ROM_C, align 1
   \                     `?<Constant "Stop out reward, rewa...">`:
   \   000000   53746F70     DB "Stop out reward, rewardCount = %d\012"
   \            206F7574
   \            20726577
   \            6172642C
   \            20726577
   \            61726443
   \            6F756E74
   \            203D2025
   \            640A00  

   Maximum stack usage in bytes:

     Function                       ISTACK PSTACK XSTACK
     --------                       ------ ------ ------
     AfReplyGetCoinCmd                  2      0     41
       -> NLME_GetExtAddr               0      0     44
       -> osal_memcpy                   0      0     50
       -> AF_DataRequest                0      0     62
       -> HalLedBlink                   0      0     44
       -> HalLedBlink                   0      0     44
     AfSendAddrInfo                     2      0     48
       -> NLME_GetShortAddr             0      0     48
       -> NLME_GetExtAddr               0      0     48
       -> osal_memcpy                   0      0     54
       -> AF_DataRequest                0      0     66
       -> HalLedBlink                   0      0     48
       -> HalLedBlink                   0      0     48
     SampleApp_HandleKeys               0      0     24
       -> AfSendAddrInfo                0      0     18
     SampleApp_Init                     0      0     14
       -> afRegister                    0      0     22
       -> RegisterForKeys               0      0     22
       -> osal_memcpy                   0      0     28
       -> aps_AddGroup                  0      0     22
       -> MT_UartInit                   0      0     22
       -> MT_UartRegisterTaskID         0      0     22
       -> myprintf                      0      0     22
     SampleApp_MessageMSGCB             0      0     27
       -> osal_start_timerEx            0      0     20
       -> AfReplyGetCoinCmd             0      0     20
       -> myprintf                      0      0     24
       -> HalLedBlink                   0      0     20
     SampleApp_ProcessEvent             2      0     19
       -> osal_msg_receive              0      0     30
       -> myprintf                      0      0     34
       -> osal_msg_deallocate           0      0     30
       -> osal_msg_receive              0      0     30
       -> myprintf                      0      0     30
       -> SampleApp_HandleKeys          0      0     30
       -> SampleApp_MessageMSGCB        0      0     30
       -> mySendByteBuf                 0      0     30
       -> osal_start_timerEx            0      0     30
       -> HalLedBlink                   0      0     30
       -> HalLedBlink                   0      0     30
       -> AfSendAddrInfo                0      0     30
       -> HalLedBlink                   0      0     30
       -> osal_start_timerEx            0      0     30
       -> SampleApp_SendHeartBeatMessageEnd
                                        0      0     30
       -> osal_start_timerEx            0      0     30
       -> myprintf                      0      0     38
       -> osal_start_timerEx            0      0     30
       -> myprintf                      0      0     34
       -> osal_start_timerEx            0      0     30
       -> myprintf                      0      0     34
       -> osal_start_timerEx            0      0     30
     SampleApp_SendHeartBeatMessageCoor
                                        4      0      3
       -> mySendByteBuf                 4      0      6
       -> decAllListEPLeftSec           4      0      6
       -> HalLedBlink                   4      0      6
     SampleApp_SendHeartBeatMessageEnd
                                        2      0     15
       -> AfSendAddrInfo                4      0      0
       -> myprintf                      4      0      0
     SampleApp_SendPeriodicMessage      2      0     23
       -> AF_DataRequest                0      0     46
       -> HalLedBlink                   0      0     28
     checkGameIsOverReward              2      0     32
       -> NLME_GetExtAddr               0      0     46
       -> osal_memcpy                   0      0     52
       -> AF_DataRequest                0      0     64
       -> HalLedBlink                   0      0     46
       -> HalLedBlink                   0      0     46
       -> myprintf                      0      0     50
     convertHexToStr                    1      0     18
       -> HalLcdWriteString             0      0     36
     port0Isr                           0      0     14
       -> osal_start_timerEx            0      0     28
       -> myprintf                      0      0     28
       -> osal_start_timerEx            0      0     28
       -> myprintf                      0      0     28
     printAddrInfoHex                   0      0     15
       -> myprintf                      0      0     26
       -> myprintf                      0      0     26
       -> myprintf                      0      0     30
       -> myprintf                      0      0     26


   Segment part sizes:

     Function/Label                             Bytes
     --------------                             -----
     P0IFG                                         1
     _A_P1                                         1
     _A_IRCON                                      1
     P1SEL                                         1
     P1DIR                                         1
     SampleApp_ClusterList                         8
     SampleApp_SimpleDesc                         12
     SampleApp_epDesc                              6
     GenericApp_DstAddr                           12
     EndPoint_DstAddr                             12
     SampleApp_TaskID                              1
     SampleApp_NwkState                            1
     SampleApp_TransID                             1
     SampleApp_Periodic_DstAddr                   12
     SampleApp_TxAddr                             12
     SampleApp_Group                              18
     SampleAppPeriodicCounter                      1
     SampleAppFlashCounter                         1
     LL                                            2
     NeedCoinDelivered                             1
     NeedCoinTransport                             1
     gameWillOver                                  1
     rewardCount                                   1
     port0Isr                                     84
     SampleApp_Init                              219
     ??Subroutine20_0                              6
     ??Subroutine21_0                              5
     SampleApp_ProcessEvent                      483
     ?Subroutine9                                 10
     ?Subroutine7                                 11
     ?Subroutine5                                 17
     ?Subroutine4                                  4
     ??Subroutine17_0                              2
     ??Subroutine18_0                             11
     ?Subroutine11                                 6
     ?Subroutine10                                 9
     SampleApp_HandleKeys                         20
     SampleApp_MessageMSGCB                      137
     ?Subroutine1                                  5
     ?Subroutine14                                 4
     ?Subroutine16                                11
     ?Subroutine6                                 16
     SampleApp_SendPeriodicMessage               132
     ??Subroutine19_0                              6
     SampleApp_SendHeartBeatMessageCoor
                                                  75
     ?Subroutine2                                  7
     SampleApp_SendHeartBeatMessageEnd
                                                  18
     AfSendAddrInfo                              180
     ?Subroutine15                                10
     ?Subroutine13                                 4
     ?Subroutine8                                  9
     ?Subroutine3                                 14
     ?Subroutine0                                  3
     AfReplyGetCoinCmd                           164
     printAddrInfoHex                            112
     convertHexToStr                             137
     ?Subroutine12                                19
     checkGameIsOverReward                       244
     ??port0Isr??INTVEC 107                        3
     ??SampleApp_Init?relay                        6
     ??SampleApp_ProcessEvent?relay                6
     ??SampleApp_HandleKeys?relay                  6
     ??SampleApp_MessageMSGCB?relay                6
     ??SampleApp_SendPeriodicMessage?relay         6
     ??SampleApp_SendHeartBeatMessageCoor?relay    6
     ??SampleApp_SendHeartBeatMessageEnd?relay     6
     ??AfSendAddrInfo?relay                        6
     ??AfReplyGetCoinCmd?relay                     6
     ??printAddrInfoHex?relay                      6
     ??convertHexToStr?relay                       6
     ??checkGameIsOverReward?relay                 6
     ?<Constant "get p0_4 coin input i...">       31
     ?<Constant "Get p0_6 one reward i...">       31
     ?<Constant "Group 1">                         8
     ?<Constant "UartInit OK\n">                  13
     ?<Constant {35, 69, 64}>                      3
     ?<Constant "ERROR:AF_DATA_CONFIRM...">       34
     ?<Constant "unknown pkg-event = 0...">       26
     ?<Constant "Get COIN_MSG_EVT, Nee...">       57
     ?<Constant "Get transport coin EV...">       48
     ?<Constant "get trans reward msg ...">       50
     ?<Constant "NeedCoinDelivered = %d\n">       24
     ?<Constant {35, 49, 0, 64}>                   4
     ?<Constant {35, 70, 64}>                      3
     ?<Constant "send heart_beat\n">              17
     ?<Constant {0}>                              13
     ?<Constant {0}>_1                            11
     ?<Constant "\n">                              2
     ?<Constant "; IEEE = ">                      10
     ?<Constant "0x%x,">                           6
     ?<Constant {0}>_2                            12
     ?<Constant "Stop out reward, rewa...">       35

 
 2 110 bytes in segment BANKED_CODE
    72 bytes in segment BANK_RELAYS
     3 bytes in segment INTVEC
    84 bytes in segment NEAR_CODE
     5 bytes in segment SFR_AN
   458 bytes in segment XDATA_ROM_C
    83 bytes in segment XDATA_Z
 
 2 266 bytes of CODE  memory (+ 3 bytes shared)
   458 bytes of CONST memory
     0 bytes of DATA  memory (+ 5 bytes shared)
    83 bytes of XDATA memory

Errors: none
Warnings: none
