###############################################################################
#                                                                             #
# IAR C/C++ Compiler V8.10.3.10338/W32 for 8051         18/Jun/2019  18:35:29 #
# Copyright 2004-2011 IAR Systems AB.                                         #
#                                                                             #
#    Core               =  plain                                              #
#    Code model         =  banked                                             #
#    Data model         =  large                                              #
#    Calling convention =  xdata reentrant                                    #
#    Constant location  =  data_rom                                           #
#    Dptr setup         =  1,16                                               #
#    Source file        =  E:\Github_Repository\zigbee-net-tech\ZStack-2.5.1a #
#                          \Projects\zstack\Samples\SampleApp\Source\SampleAp #
#                          p.c                                                #
#    Command line       =  -f E:\Github_Repository\zigbee-net-tech\ZStack-2.5 #
#                          .1a\Projects\zstack\Samples\SampleApp\CC2530DB\..\ #
#                          ..\..\Tools\CC2530DB\f8wEndev.cfg (-DCPU32MHZ      #
#                          -DROOT=__near_func -DMAC_CFG_TX_DATA_MAX=3         #
#                          -DMAC_CFG_TX_MAX=6 -DMAC_CFG_RX_MAX=3              #
#                          -DEND_DEVICE) -f E:\Github_Repository\zigbee-net-t #
#                          ech\ZStack-2.5.1a\Projects\zstack\Samples\SampleAp #
#                          p\CC2530DB\..\..\..\Tools\CC2530DB\f8wConfig.cfg   #
#                          (-DZIGBEEPRO -DSECURE=0 -DZG_SECURE_DYNAMIC=0      #
#                          -DREFLECTOR -DDEFAULT_CHANLIST=0x00000800          #
#                          -DZDAPP_CONFIG_PAN_ID=0xFFF1                       #
#                          -DNWK_START_DELAY=100 -DEXTENDED_JOINING_RANDOM_MA #
#                          SK=0x007F -DBEACON_REQUEST_DELAY=100               #
#                          -DBEACON_REQ_DELAY_MASK=0x00FF                     #
#                          -DLINK_STATUS_JITTER_MASK=0x007F                   #
#                          -DROUTE_EXPIRY_TIME=30 -DAPSC_ACK_WAIT_DURATION_PO #
#                          LLED=3000 -DNWK_INDIRECT_MSG_TIMEOUT=7             #
#                          -DMAX_RREQ_ENTRIES=8 -DAPSC_MAX_FRAME_RETRIES=3    #
#                          -DNWK_MAX_DATA_RETRIES=2                           #
#                          -DMAX_POLL_FAILURE_RETRIES=2 -DMAX_BCAST=9         #
#                          -DAPS_MAX_GROUPS=16 -DMAX_RTG_ENTRIES=40           #
#                          -DNWK_MAX_BINDING_ENTRIES=4                        #
#                          -DMAX_BINDING_CLUSTER_IDS=4 "-DDEFAULT_KEY={0x01,  #
#                          0x03, 0x05, 0x07, 0x09, 0x0B, 0x0D, 0x0F, 0x00,    #
#                          0x02, 0x04, 0x06, 0x08, 0x0A, 0x0C, 0x0D}"         #
#                          -DMAC_MAX_FRAME_SIZE=116                           #
#                          -DZDNWKMGR_MIN_TRANSMISSIONS=20 "-DCONST=const     #
#                          __code" -DGENERIC=__generic                        #
#                          -DRFD_RCVC_ALWAYS_ON=FALSE -DPOLL_RATE=1000        #
#                          -DQUEUED_POLL_RATE=100 -DRESPONSE_POLL_RATE=100)   #
#                          -DREJOIN_POLL_RATE=440 E:\Github_Repository\zigbee #
#                          -net-tech\ZStack-2.5.1a\Projects\zstack\Samples\Sa #
#                          mpleApp\Source\SampleApp.c -D NWK_AUTO_POLL -D     #
#                          ZTOOL_P1 -D MT_TASK -D MT_SYS_FUNC -D MT_ZDO_FUNC  #
#                          -lC E:\Github_Repository\zigbee-net-tech\ZStack-2. #
#                          5.1a\Projects\zstack\Samples\SampleApp\CC2530DB\En #
#                          dDeviceEB\List\ -lA E:\Github_Repository\zigbee-ne #
#                          t-tech\ZStack-2.5.1a\Projects\zstack\Samples\Sampl #
#                          eApp\CC2530DB\EndDeviceEB\List\ --diag_suppress    #
#                          Pe001,Pa010 -o E:\Github_Repository\zigbee-net-tec #
#                          h\ZStack-2.5.1a\Projects\zstack\Samples\SampleApp\ #
#                          CC2530DB\EndDeviceEB\Obj\ -e --no_code_motion      #
#                          --debug --core=plain --dptr=16,1                   #
#                          --data_model=large --code_model=banked             #
#                          --calling_convention=xdata_reentrant               #
#                          --place_constants=data_rom --nr_virtual_regs 16    #
#                          -I E:\Github_Repository\zigbee-net-tech\ZStack-2.5 #
#                          .1a\Projects\zstack\Samples\SampleApp\CC2530DB\    #
#                          -I E:\Github_Repository\zigbee-net-tech\ZStack-2.5 #
#                          .1a\Projects\zstack\Samples\SampleApp\CC2530DB\..\ #
#                          Source\ -I E:\Github_Repository\zigbee-net-tech\ZS #
#                          tack-2.5.1a\Projects\zstack\Samples\SampleApp\CC25 #
#                          30DB\..\..\..\ZMain\TI2530DB\ -I                   #
#                          E:\Github_Repository\zigbee-net-tech\ZStack-2.5.1a #
#                          \Projects\zstack\Samples\SampleApp\CC2530DB\..\..\ #
#                          ..\..\..\Components\hal\include\ -I                #
#                          E:\Github_Repository\zigbee-net-tech\ZStack-2.5.1a #
#                          \Projects\zstack\Samples\SampleApp\CC2530DB\..\..\ #
#                          ..\..\..\Components\hal\target\CC2530EB\ -I        #
#                          E:\Github_Repository\zigbee-net-tech\ZStack-2.5.1a #
#                          \Projects\zstack\Samples\SampleApp\CC2530DB\..\..\ #
#                          ..\..\..\Components\mac\include\ -I                #
#                          E:\Github_Repository\zigbee-net-tech\ZStack-2.5.1a #
#                          \Projects\zstack\Samples\SampleApp\CC2530DB\..\..\ #
#                          ..\..\..\Components\mac\high_level\ -I             #
#                          E:\Github_Repository\zigbee-net-tech\ZStack-2.5.1a #
#                          \Projects\zstack\Samples\SampleApp\CC2530DB\..\..\ #
#                          ..\..\..\Components\mac\low_level\srf04\ -I        #
#                          E:\Github_Repository\zigbee-net-tech\ZStack-2.5.1a #
#                          \Projects\zstack\Samples\SampleApp\CC2530DB\..\..\ #
#                          ..\..\..\Components\mac\low_level\srf04\single_chi #
#                          p\ -I E:\Github_Repository\zigbee-net-tech\ZStack- #
#                          2.5.1a\Projects\zstack\Samples\SampleApp\CC2530DB\ #
#                          ..\..\..\..\..\Components\mt\ -I                   #
#                          E:\Github_Repository\zigbee-net-tech\ZStack-2.5.1a #
#                          \Projects\zstack\Samples\SampleApp\CC2530DB\..\..\ #
#                          ..\..\..\Components\osal\include\ -I               #
#                          E:\Github_Repository\zigbee-net-tech\ZStack-2.5.1a #
#                          \Projects\zstack\Samples\SampleApp\CC2530DB\..\..\ #
#                          ..\..\..\Components\services\saddr\ -I             #
#                          E:\Github_Repository\zigbee-net-tech\ZStack-2.5.1a #
#                          \Projects\zstack\Samples\SampleApp\CC2530DB\..\..\ #
#                          ..\..\..\Components\services\sdata\ -I             #
#                          E:\Github_Repository\zigbee-net-tech\ZStack-2.5.1a #
#                          \Projects\zstack\Samples\SampleApp\CC2530DB\..\..\ #
#                          ..\..\..\Components\stack\af\ -I                   #
#                          E:\Github_Repository\zigbee-net-tech\ZStack-2.5.1a #
#                          \Projects\zstack\Samples\SampleApp\CC2530DB\..\..\ #
#                          ..\..\..\Components\stack\nwk\ -I                  #
#                          E:\Github_Repository\zigbee-net-tech\ZStack-2.5.1a #
#                          \Projects\zstack\Samples\SampleApp\CC2530DB\..\..\ #
#                          ..\..\..\Components\stack\sapi\ -I                 #
#                          E:\Github_Repository\zigbee-net-tech\ZStack-2.5.1a #
#                          \Projects\zstack\Samples\SampleApp\CC2530DB\..\..\ #
#                          ..\..\..\Components\stack\sec\ -I                  #
#                          E:\Github_Repository\zigbee-net-tech\ZStack-2.5.1a #
#                          \Projects\zstack\Samples\SampleApp\CC2530DB\..\..\ #
#                          ..\..\..\Components\stack\sys\ -I                  #
#                          E:\Github_Repository\zigbee-net-tech\ZStack-2.5.1a #
#                          \Projects\zstack\Samples\SampleApp\CC2530DB\..\..\ #
#                          ..\..\..\Components\stack\zdo\ -I                  #
#                          E:\Github_Repository\zigbee-net-tech\ZStack-2.5.1a #
#                          \Projects\zstack\Samples\SampleApp\CC2530DB\..\..\ #
#                          ..\..\..\Components\zmac\ -I                       #
#                          E:\Github_Repository\zigbee-net-tech\ZStack-2.5.1a #
#                          \Projects\zstack\Samples\SampleApp\CC2530DB\..\..\ #
#                          ..\..\..\Components\zmac\f8w\ -Ohz                 #
#                          --require_prototypes                               #
#    List file          =  E:\Github_Repository\zigbee-net-tech\ZStack-2.5.1a #
#                          \Projects\zstack\Samples\SampleApp\CC2530DB\EndDev #
#                          iceEB\List\SampleApp.lst                           #
#    Object file        =  E:\Github_Repository\zigbee-net-tech\ZStack-2.5.1a #
#                          \Projects\zstack\Samples\SampleApp\CC2530DB\EndDev #
#                          iceEB\Obj\SampleApp.r51                            #
#                                                                             #
#                                                                             #
###############################################################################

E:\Github_Repository\zigbee-net-tech\ZStack-2.5.1a\Projects\zstack\Samples\SampleApp\Source\SampleApp.c
      1          /**************************************************************************************************
      2          Filename:       SampleApp.c
      3          Revised:        $Date: 2009-03-18 15:56:27 -0700 (Wed, 18 Mar 2009) $
      4          Revision:       $Revision: 19453 $
      5          
      6          Description:    Sample Application (no Profile).
      7          **************************************************************************************************/
      8          
      9          /*********************************************************************
     10          需要修改的文件包含功能如下：
     11          ZMain/ZMain.c是主函数
     12          HAL/hal_drivers.c进行外部中断的初始化
     13          MT/MT_UART.c中进行串口消息的接收
     14          SampleApp.c中定义中断响应函数，以及事件消息处理函数等
     15          SingleLinkedList.c中定义了单链表的实现
     16          *********************************************************************/
     17          
     18          /*********************************************************************
     19          * INCLUDES
     20          */
     21          #include "OSAL.h"
     22          #include "ZGlobals.h"
     23          #include "AF.h"
     24          #include "aps_groups.h"
     25          #include "ZDObject.h"
     26          #include "ZDProfile.h"
     27          #include "ZDApp.h"
     28          
     29          #include "SampleApp.h"
     30          #include "SampleAppHw.h"
     31          #include "SinglyLinkedList.h"
     32          
     33          #include "OnBoard.h"

   \                                 In  segment SFR_AN, at 0x80
   \   union <unnamed> volatile __sfr _A_P0
   \                     _A_P0:
   \   000000                DS 1

   \                                 In  segment SFR_AN, at 0x89
   \   unsigned char volatile __sfr P0IFG
   \                     P0IFG:
   \   000000                DS 1

   \                                 In  segment SFR_AN, at 0x90
   \   union <unnamed> volatile __sfr _A_P1
   \                     _A_P1:
   \   000000                DS 1

   \                                 In  segment SFR_AN, at 0xb8
   \   union <unnamed> volatile __sfr _A_IEN1
   \                     _A_IEN1:
   \   000000                DS 1

   \                                 In  segment SFR_AN, at 0xc0
   \   union <unnamed> volatile __sfr _A_IRCON
   \                     _A_IRCON:
   \   000000                DS 1

   \                                 In  segment SFR_AN, at 0xf4
   \   unsigned char volatile __sfr P1SEL
   \                     P1SEL:
   \   000000                DS 1

   \                                 In  segment SFR_AN, at 0xfe
   \   unsigned char volatile __sfr P1DIR
   \                     P1DIR:
   \   000000                DS 1
     34          
     35          /* HAL */
     36          #include "hal_lcd.h"
     37          #include "hal_led.h"
     38          #include "hal_key.h"
     39          
     40          #include "MT_UART.h"
     41          #include "MT_APP.h"
     42          #include "MT.h"
     43          
     44          #include "OSAL_Clock.h"
     45          /*******
     46            一些测试用的宏开关
     47          */
     48          // #define NEED_TEST_DIStANCE
     49          
     50          /*********************************************************************
     51          * MACROS
     52          */
     53          #define COIN_RECV_PIN      P0_4      //中断输入下降沿触发，定义P0.7口为中断方式接收投币器信号引脚40ms
     54          #define REWARD_OUTPUT_PIN  P0_6      //中断输入下降沿触发，彩票奖励输出个数信号引脚，输出一个彩票奖励则产生一个40ms的低电平
     55          
     56          #define COIN_SIMULATE_PIN  P1_2      //输出，定义P1.2口为替换投币器模拟信号发生引脚
     57          
     58          #define UART0        0x00
     59          #define COIN_SIGNAL_HALF_TIME 50 // Ms
     60          #define REWARD_SIGNAL_HALF_TIME 50
     61          
     62          // This list should be filled with Application specific Cluster IDs.

   \                                 In  segment XDATA_ROM_C, align 1
     63          const cId_t SampleApp_ClusterList[SAMPLEAPP_MAX_CLUSTERS] =
   \                     SampleApp_ClusterList:
   \   000000   0100         DW 1
   \   000002   0200         DW 2
   \   000004   0000         DW 0
   \   000006   0000         DW 0
     64          {
     65            SAMPLEAPP_PERIODIC_CLUSTERID,
     66            SAMPLEAPP_FLASH_CLUSTERID
     67          };
     68          

   \                                 In  segment XDATA_ROM_C, align 1
     69          const SimpleDescriptionFormat_t SampleApp_SimpleDesc =
   \                     SampleApp_SimpleDesc:
   \   000000   14           DB 20
   \   000001   080F         DW 3848
   \   000003   0100         DW 1
   \   000005   00           DB 0
   \   000006   04           DB 4
   \   000007   ....         DW SampleApp_ClusterList
   \   000009   04           DB 4
   \   00000A   ....         DW SampleApp_ClusterList
     70          {
     71            SAMPLEAPP_ENDPOINT,              //  int Endpoint;
     72            SAMPLEAPP_PROFID,                //  uint16 AppProfId[2];
     73            SAMPLEAPP_DEVICEID,              //  uint16 AppDeviceId[2];
     74            SAMPLEAPP_DEVICE_VERSION,        //  int   AppDevVer:4;
     75            SAMPLEAPP_FLAGS,                 //  int   AppFlags:4;
     76            SAMPLEAPP_MAX_CLUSTERS,          //  uint8  AppNumInClusters;
     77            (cId_t *)SampleApp_ClusterList,  //  uint8 *pAppInClusterList;
     78            SAMPLEAPP_MAX_CLUSTERS,          //  uint8  AppNumInClusters;
     79            (cId_t *)SampleApp_ClusterList   //  uint8 *pAppInClusterList;
     80          };
     81          
     82          // This is the Endpoint/Interface description.  It is defined here, but
     83          // filled-in in SampleApp_Init().  Another way to go would be to fill
     84          // in the structure here and make it a "const" (in code space).  The
     85          // way it's defined in this sample app it is define in RAM.

   \                                 In  segment XDATA_Z, align 1, keep-with-next
     86          endPointDesc_t SampleApp_epDesc;
   \                     SampleApp_epDesc:
   \   000000                DS 6
   \   000006                REQUIRE __INIT_XDATA_Z

   \                                 In  segment XDATA_Z, align 1, keep-with-next
     87          afAddrType_t GenericApp_DstAddr;
   \                     GenericApp_DstAddr:
   \   000000                DS 12
   \   00000C                REQUIRE __INIT_XDATA_Z

   \                                 In  segment XDATA_Z, align 1, keep-with-next
     88          afAddrType_t EndPoint_DstAddr;
   \                     EndPoint_DstAddr:
   \   000000                DS 12
   \   00000C                REQUIRE __INIT_XDATA_Z
     89          
     90          /*********************************************************************
     91          * LOCAL VARIABLES
     92          */

   \                                 In  segment XDATA_Z, align 1, keep-with-next
     93          uint8 SampleApp_TaskID;   // Task ID for internal task/event processing
   \                     SampleApp_TaskID:
   \   000000                DS 1
   \   000001                REQUIRE __INIT_XDATA_Z
     94          // This variable will be received when
     95          // SampleApp_Init() is called.

   \                                 In  segment XDATA_Z, align 1, keep-with-next
     96          devStates_t SampleApp_NwkState;
   \                     SampleApp_NwkState:
   \   000000                DS 1
   \   000001                REQUIRE __INIT_XDATA_Z
     97          

   \                                 In  segment XDATA_Z, align 1, keep-with-next
     98          uint8 SampleApp_TransID;  // This is the unique message ID (counter)
   \                     SampleApp_TransID:
   \   000000                DS 1
   \   000001                REQUIRE __INIT_XDATA_Z
     99          

   \                                 In  segment XDATA_Z, align 1, keep-with-next
    100          afAddrType_t SampleApp_Periodic_DstAddr; // 用于协调器广播消息
   \                     SampleApp_Periodic_DstAddr:
   \   000000                DS 12
   \   00000C                REQUIRE __INIT_XDATA_Z

   \                                 In  segment XDATA_Z, align 1, keep-with-next
    101          afAddrType_t SampleApp_TxAddr; // 用于终端设备向协调器报告短地址信息
   \                     SampleApp_TxAddr:
   \   000000                DS 12
   \   00000C                REQUIRE __INIT_XDATA_Z
    102          

   \                                 In  segment XDATA_Z, align 1, keep-with-next
    103          aps_Group_t SampleApp_Group;
   \                     SampleApp_Group:
   \   000000                DS 18
   \   000012                REQUIRE __INIT_XDATA_Z

   \                                 In  segment XDATA_Z, align 1, keep-with-next
    104          uint8 SampleAppPeriodicCounter = 0;
   \                     SampleAppPeriodicCounter:
   \   000000                DS 1
   \   000001                REQUIRE __INIT_XDATA_Z

   \                                 In  segment XDATA_Z, align 1, keep-with-next
    105          uint8 SampleAppFlashCounter = 0;
   \                     SampleAppFlashCounter:
   \   000000                DS 1
   \   000001                REQUIRE __INIT_XDATA_Z
    106          

   \                                 In  segment XDATA_Z, align 1, keep-with-next
    107          LinkList LL; // 定义线性链表存储终端地址以及心跳信息
   \                     LL:
   \   000000                DS 2
   \   000002                REQUIRE __INIT_XDATA_Z
    108          
    109          /*********************************************************************
    110          * LOCAL FUNCTIONS
    111          */
    112          void AfSendAddrInfo(uint8 cmd);
    113          void AfReplyGetCoinCmd(void);
    114          void SampleApp_HandleKeys( uint8 shift, uint8 keys );
    115          void SampleApp_MessageMSGCB( afIncomingMSGPacket_t *pckt );
    116          void SampleApp_SendPeriodicMessage( int8 whichKey );
    117          void SampleApp_SendHeartBeatMessageCoor(void);
    118          void SampleApp_SendHeartBeatMessageEnd(void);
    119          void printAddrInfoHex(uint8* buf, uint8 dataLen);
    120          void convertHexToStrLCD(uint16 addr, uint8 lcdLineNum);
    121          

   \                                 In  segment XDATA_Z, align 1, keep-with-next
    122          int8 NeedCoinDelivered = 0; // 线上开启游戏需要处理的投币个数
   \                     NeedCoinDelivered:
   \   000000                DS 1
   \   000001                REQUIRE __INIT_XDATA_Z

   \                                 In  segment XDATA_Z, align 1, keep-with-next
    123          int8 NeedCoinTransport = 0; // 需要转发的投币器信号数量
   \                     NeedCoinTransport:
   \   000000                DS 1
   \   000001                REQUIRE __INIT_XDATA_Z

   \                                 In  segment XDATA_Z, align 1, keep-with-next
    124          uint8 rewardCount = 0;  // 一次游戏出彩票个数统计
   \                     rewardCount:
   \   000000                DS 1
   \   000001                REQUIRE __INIT_XDATA_Z

   \                                 In  segment XDATA_Z, align 1, keep-with-next
    125          uint8 startRewardInterrupt = 0;
   \                     startRewardInterrupt:
   \   000000                DS 1
   \   000001                REQUIRE __INIT_XDATA_Z

   \                                 In  segment XDATA_Z, align 1, keep-with-next
    126          UTCTime lastRecvRewardSecTime = 0;//=osal_getClock();
   \                     lastRecvRewardSecTime:
   \   000000                DS 4
   \   000004                REQUIRE __INIT_XDATA_Z
    127          
    128          /**
    129            终端设备P1端口中断处理函数，用来接收投币器的信号
    130          */
    131          #ifdef END_DEVICE

   \                                 In  segment XDATA_I, align 1, keep-with-next
    132          uint8 pre_coin_pin_value = 1;
   \                     pre_coin_pin_value:
   \   000000                DS 1
   \   000001                REQUIRE `?<Initializer for pre_coin_pin_value>`
   \   000001                REQUIRE __INIT_XDATA_I

   \                                 In  segment XDATA_I, align 1, keep-with-next
    133          uint8 coin_pin_value = 1;
   \                     coin_pin_value:
   \   000000                DS 1
   \   000001                REQUIRE `?<Initializer for coin_pin_value>`
   \   000001                REQUIRE __INIT_XDATA_I

   \                                 In  segment XDATA_I, align 1, keep-with-next
    134          uint8 pre_reward_pin_value = 1;
   \                     pre_reward_pin_value:
   \   000000                DS 1
   \   000001                REQUIRE `?<Initializer for pre_reward_pin_value>`
   \   000001                REQUIRE __INIT_XDATA_I

   \                                 In  segment XDATA_I, align 1, keep-with-next
    135          uint8 reward_pin_value = 1;
   \                     reward_pin_value:
   \   000000                DS 1
   \   000001                REQUIRE `?<Initializer for reward_pin_value>`
   \   000001                REQUIRE __INIT_XDATA_I

   \                                 In  segment NEAR_CODE, align 1, keep-with-next
    136          HAL_ISR_FUNCTION( port0Isr, P0INT_VECTOR ) // P0_5配置为投币器电平变化中断引脚，在HAL/Common/hal_drivers.c中进行的引脚初始化
   \                     port0Isr:
    137          { 
   \   000000   C0E0         PUSH    A
   \   000002   74F1         MOV     A,#-0xf
   \   000004   12....       LCALL   ?INTERRUPT_ENTER_XSP
   \   000007                ; Saved register size: 15
   \   000007                ; Auto size: 0
    138            IEN1 &= ~(0x1 << 5); // 关闭端口0中断
   \   000007   C2BD         CLR     0xb8.5
    139            if((P0IFG >> 4) & 0x1 == 1) { // 中断p0_4引脚产生中断，投币信号    
   \   000009   E589         MOV     A,0x89
   \   00000B   A2E4         MOV     C,0xE0 /* A   */.4
   \   00000D   503D         JNC     ??port0Isr_0
    140              coin_pin_value = COIN_RECV_PIN;
   \   00000F   A284         MOV     C,0x80.4
   \   000011   E4           CLR     A
   \   000012   33           RLC     A
   \   000013   90....       MOV     DPTR,#coin_pin_value
   \   000016   F0           MOVX    @DPTR,A
    141              if(coin_pin_value == 0) {
   \   000017   A2E0         MOV     C,0xE0 /* A   */.0
   \   000019   4028         JC      ??port0Isr_1
    142                if(coin_pin_value != pre_coin_pin_value) {
   \   00001B   F8           MOV     R0,A
   \   00001C   90....       MOV     DPTR,#pre_coin_pin_value
   \   00001F   E0           MOVX    A,@DPTR
   \   000020   68           XRL     A,R0
   \   000021   6026         JZ      ??port0Isr_2
    143                  pre_coin_pin_value = coin_pin_value;
   \   000023   90....       MOV     DPTR,#coin_pin_value
   \   000026   E0           MOVX    A,@DPTR
   \   000027   90....       MOV     DPTR,#pre_coin_pin_value
   \   00002A   F0           MOVX    @DPTR,A
    144                  NeedCoinTransport = 1;
   \   00002B   90....       MOV     DPTR,#NeedCoinTransport
   \   00002E   7401         MOV     A,#0x1
   \   000030   F0           MOVX    @DPTR,A
    145                  osal_start_timerEx( SampleApp_TaskID, SAMPLEAPP_TRANSPORT_COIN_MSG_EVT, COIN_SIGNAL_HALF_TIME); // 产生一个定时器事件    
   \   000031                ; Setup parameters for call to function osal_start_timerEx
   \   000031   7C32         MOV     R4,#0x32
   \   000033   7D00         MOV     R5,#0x0
   \   000035   7A04         MOV     R2,#0x4
   \   000037   7B00         MOV     R3,#0x0
   \   000039   90....       MOV     DPTR,#SampleApp_TaskID
   \   00003C   E0           MOVX    A,@DPTR
   \   00003D   F9           MOV     R1,A
   \   00003E   12....       LCALL   ??osal_start_timerEx?relay
   \   000041   8006         SJMP    ??port0Isr_2
    146                }
    147              } else {
    148                pre_coin_pin_value = 1;
   \                     ??port0Isr_1:
   \   000043   90....       MOV     DPTR,#pre_coin_pin_value
   \   000046   7401         MOV     A,#0x1
   \   000048   F0           MOVX    @DPTR,A
    149              }
    150              P0IFG &= ~(0x1 << 4);       //端口0中断状态标志    
   \                     ??port0Isr_2:
   \   000049   5389EF       ANL     0x89,#0xef
    151              //myprintf("get p0_4 coin input interrupt pin = %d\n", COIN_RECV_PIN);
    152            } 
    153            if((P0IFG >> 6) & 0x1 == 1) { // P0_6引脚，彩票机出一个彩票中断信号，转发到游戏机并上传服务器
   \                     ??port0Isr_0:
   \   00004C   E589         MOV     A,0x89
   \   00004E   A2E6         MOV     C,0xE0 /* A   */.6
   \   000050   5055         JNC     ??port0Isr_3
    154              startRewardInterrupt = 1;
   \   000052   90....       MOV     DPTR,#startRewardInterrupt
   \   000055   7401         MOV     A,#0x1
   \   000057   F0           MOVX    @DPTR,A
    155              lastRecvRewardSecTime = osal_getClock(); // 设置收到信号当前的秒数，在定时器中进行检测
   \   000058                ; Setup parameters for call to function osal_getClock
   \   000058   12....       LCALL   ??osal_getClock?relay
   \   00005B   90....       MOV     DPTR,#lastRecvRewardSecTime
   \   00005E   12....       LCALL   ?XSTORE_R2345
    156              reward_pin_value = REWARD_OUTPUT_PIN;
   \   000061   A286         MOV     C,0x80.6
   \   000063   E4           CLR     A
   \   000064   33           RLC     A
   \   000065   90....       MOV     DPTR,#reward_pin_value
   \   000068   F0           MOVX    @DPTR,A
    157              if(reward_pin_value == 0) {
   \   000069   A2E0         MOV     C,0xE0 /* A   */.0
   \   00006B   4017         JC      ??port0Isr_4
    158                if(reward_pin_value != pre_reward_pin_value) {
   \   00006D   F8           MOV     R0,A
   \   00006E   90....       MOV     DPTR,#pre_reward_pin_value
   \   000071   E0           MOVX    A,@DPTR
   \   000072   68           XRL     A,R0
   \   000073   6015         JZ      ??port0Isr_5
    159                  pre_reward_pin_value = reward_pin_value;
   \   000075   90....       MOV     DPTR,#reward_pin_value
   \   000078   E0           MOVX    A,@DPTR
   \   000079   90....       MOV     DPTR,#pre_reward_pin_value
   \   00007C   F0           MOVX    @DPTR,A
    160                  rewardCount += 1;
   \   00007D   90....       MOV     DPTR,#rewardCount
   \   000080   E0           MOVX    A,@DPTR
   \   000081   04           INC     A
   \   000082   8005         SJMP    ??port0Isr_6
    161                }      
    162              } else {
    163                pre_reward_pin_value = 1;
   \                     ??port0Isr_4:
   \   000084   90....       MOV     DPTR,#pre_reward_pin_value
   \   000087   7401         MOV     A,#0x1
   \                     ??port0Isr_6:
   \   000089   F0           MOVX    @DPTR,A
    164              }
    165              P0IFG &= ~(0x1 << 6);
   \                     ??port0Isr_5:
   \   00008A   5389BF       ANL     0x89,#0xbf
    166              myprintf("\nP0_6=%d", REWARD_OUTPUT_PIN);
   \   00008D                ; Setup parameters for call to function myprintf
   \   00008D   A286         MOV     C,0x80.6
   \   00008F   E4           CLR     A
   \   000090   33           RLC     A
   \   000091   F5..         MOV     ?V0 + 0,A
   \   000093   75..00       MOV     ?V0 + 1,#0x0
   \   000096   78..         MOV     R0,#?V0 + 0
   \   000098   12....       LCALL   ?PUSH_XSTACK_I_TWO
   \   00009B   7A..         MOV     R2,#`?<Constant "\\nP0_6=%d">` & 0xff
   \   00009D   7B..         MOV     R3,#(`?<Constant "\\nP0_6=%d">` >> 8) & 0xff
   \   00009F   12....       LCALL   ??myprintf?relay
   \   0000A2   7402         MOV     A,#0x2
   \   0000A4   12....       LCALL   ?DEALLOC_XSTACK8
    167            }
    168            P0IF = 0;        //端口0中断标志，0表示无中断未决，1表示有中断未决，需要每次触发之后置0，不然会一直触发中断 
   \                     ??port0Isr_3:
   \   0000A7   C2C5         CLR     0xc0.5
    169            IEN1 |= (0x1 << 5); // 端口0中断使能
   \   0000A9   D2BD         SETB    0xb8.5
    170          }
   \   0000AB   7F02         MOV     R7,#0x2
   \   0000AD   02....       LJMP    ?INTERRUPT_LEAVE_XSP
   \   0000B0                REQUIRE _A_IEN1
   \   0000B0                REQUIRE P0IFG
   \   0000B0                REQUIRE _A_P0
   \   0000B0                REQUIRE _A_IRCON
    171          #endif
    172          
    173          /**
    174          * 自定义任务初始化函数
    175          */

   \                                 In  segment BANKED_CODE, align 1, keep-with-next
    176          void SampleApp_Init( uint8 task_id )
   \                     SampleApp_Init:
    177          {
   \   000000   74F5         MOV     A,#-0xb
   \   000002   12....       LCALL   ?BANKED_ENTER_XDATA
   \   000005                ; Saved register size: 11
   \   000005                ; Auto size: 0
   \   000005   E9           MOV     A,R1
   \   000006   FE           MOV     R6,A
    178            halUARTCfg_t uartConfig;
    179            
    180            SampleApp_TaskID = task_id;
   \   000007   90....       MOV     DPTR,#SampleApp_TaskID
   \   00000A   F0           MOVX    @DPTR,A
    181            SampleApp_NwkState = DEV_INIT;
   \   00000B   90....       MOV     DPTR,#SampleApp_NwkState
   \   00000E   7401         MOV     A,#0x1
   \   000010   F0           MOVX    @DPTR,A
    182            SampleApp_TransID = 0;
   \   000011   90....       MOV     DPTR,#SampleApp_TransID
   \   000014   E4           CLR     A
   \   000015   F0           MOVX    @DPTR,A
    183            
    184          #ifdef END_DEVICE
    185            //P1_2输出，投币器模拟信号产生引脚
    186            P1SEL &= ~(0x01 << 2);         //设置P1.2口为普通IO
   \   000016   53F4FB       ANL     0xf4,#0xfb
    187            P1DIR |= (0x01 << 2);          //设置P1.2口为输出
   \   000019   43FE04       ORL     0xfe,#0x4
    188            COIN_SIMULATE_PIN = 1;       // 投币器信号模拟输出引脚  
   \   00001C   D292         SETB    0x90.2
    189          #endif
    190            
    191          #if defined ( BUILD_ALL_DEVICES )
    192            // The "Demo" target is setup to have BUILD_ALL_DEVICES and HOLD_AUTO_START
    193            // We are looking at a jumper (defined in SampleAppHw.c) to be jumpered
    194            // together - if they are - we will start up a coordinator. Otherwise,
    195            // the device will start as a router.
    196            if ( readCoordinatorJumper() )
    197              zgDeviceLogicalType = ZG_DEVICETYPE_COORDINATOR;
    198            else
    199              zgDeviceLogicalType = ZG_DEVICETYPE_ROUTER;
    200          #endif // BUILD_ALL_DEVICES
    201            
    202          #if defined ( HOLD_AUTO_START )
    203            // HOLD_AUTO_START is a compile option that will surpress ZDApp
    204            //  from starting the device and wait for the application to
    205            //  start the device.
    206            ZDOInitDevice(0);
    207          #endif
    208            
    209            GenericApp_DstAddr.addrMode = (afAddrMode_t)AddrNotPresent;
   \   00001E   90....       MOV     DPTR,#GenericApp_DstAddr + 8
   \   000021   F0           MOVX    @DPTR,A
    210            GenericApp_DstAddr.endPoint = 0;
   \   000022   A3           INC     DPTR
   \   000023   F0           MOVX    @DPTR,A
    211            GenericApp_DstAddr.addr.shortAddr = 0;
   \   000024   90....       MOV     DPTR,#GenericApp_DstAddr
   \   000027   F0           MOVX    @DPTR,A
   \   000028   A3           INC     DPTR
   \   000029   F0           MOVX    @DPTR,A
    212            
    213            // Setup for the periodic message's destination address
    214            // Broadcast to everyone
    215            // 协调器广播发送数据到终端
    216            SampleApp_Periodic_DstAddr.addrMode = (afAddrMode_t)AddrBroadcast;
   \   00002A   90....       MOV     DPTR,#SampleApp_Periodic_DstAddr + 8
   \   00002D   740F         MOV     A,#0xf
   \   00002F   F0           MOVX    @DPTR,A
    217            SampleApp_Periodic_DstAddr.endPoint = SAMPLEAPP_ENDPOINT;
   \   000030   A3           INC     DPTR
   \   000031   7414         MOV     A,#0x14
   \   000033   F0           MOVX    @DPTR,A
    218            SampleApp_Periodic_DstAddr.addr.shortAddr = 0xFFFF; // 广播地址
   \   000034   90....       MOV     DPTR,#SampleApp_Periodic_DstAddr
   \   000037   74FF         MOV     A,#-0x1
   \   000039   F0           MOVX    @DPTR,A
   \   00003A   A3           INC     DPTR
   \   00003B   F0           MOVX    @DPTR,A
    219            
    220            // 终端单播发送数据到协调器
    221            SampleApp_TxAddr.addrMode = (afAddrMode_t)Addr16Bit;
   \   00003C   90....       MOV     DPTR,#SampleApp_TxAddr + 8
   \   00003F   7402         MOV     A,#0x2
   \   000041   F0           MOVX    @DPTR,A
    222            SampleApp_TxAddr.endPoint = SAMPLEAPP_ENDPOINT;
   \   000042   A3           INC     DPTR
   \   000043   7414         MOV     A,#0x14
   \   000045   F0           MOVX    @DPTR,A
    223            SampleApp_TxAddr.addr.shortAddr = 0x00; // 单播协调器地址
   \   000046   90....       MOV     DPTR,#SampleApp_TxAddr
   \   000049   E4           CLR     A
   \   00004A   F0           MOVX    @DPTR,A
   \   00004B   A3           INC     DPTR
   \   00004C   F0           MOVX    @DPTR,A
    224            
    225            // 协调器单播发送到指定地址的终端上  
    226            EndPoint_DstAddr.addrMode = (afAddrMode_t)Addr16Bit;
   \   00004D   90....       MOV     DPTR,#EndPoint_DstAddr + 8
   \   000050   7402         MOV     A,#0x2
   \   000052   F0           MOVX    @DPTR,A
    227            EndPoint_DstAddr.endPoint = SAMPLEAPP_ENDPOINT;
   \   000053   A3           INC     DPTR
   \   000054   7414         MOV     A,#0x14
   \   000056   F0           MOVX    @DPTR,A
    228            EndPoint_DstAddr.addr.shortAddr = 0x00; // 在发送的时候动态修改终端地址
   \   000057   90....       MOV     DPTR,#EndPoint_DstAddr
   \   00005A   E4           CLR     A
   \   00005B   F0           MOVX    @DPTR,A
   \   00005C   A3           INC     DPTR
   \   00005D   F0           MOVX    @DPTR,A
    229            
    230            // Fill out the endpoint description.
    231            SampleApp_epDesc.endPoint = SAMPLEAPP_ENDPOINT; // 端点号
   \   00005E   90....       MOV     DPTR,#SampleApp_epDesc
   \   000061   7414         MOV     A,#0x14
   \   000063   F0           MOVX    @DPTR,A
    232            SampleApp_epDesc.task_id = &SampleApp_TaskID; // 端点对应的任务
   \   000064   A3           INC     DPTR
   \   000065   74..         MOV     A,#SampleApp_TaskID & 0xff
   \   000067   F0           MOVX    @DPTR,A
   \   000068   A3           INC     DPTR
   \   000069   74..         MOV     A,#(SampleApp_TaskID >> 8) & 0xff
   \   00006B   F0           MOVX    @DPTR,A
    233            SampleApp_epDesc.simpleDesc = (SimpleDescriptionFormat_t *)&SampleApp_SimpleDesc; // 简单描述符
   \   00006C   A3           INC     DPTR
   \   00006D   74..         MOV     A,#SampleApp_SimpleDesc & 0xff
   \   00006F   F0           MOVX    @DPTR,A
   \   000070   A3           INC     DPTR
   \   000071   74..         MOV     A,#(SampleApp_SimpleDesc >> 8) & 0xff
   \   000073   F0           MOVX    @DPTR,A
    234            SampleApp_epDesc.latencyReq = noLatencyReqs;  
   \   000074   A3           INC     DPTR
   \   000075   E4           CLR     A
   \   000076   F0           MOVX    @DPTR,A
    235            afRegister( &SampleApp_epDesc ); // 注册一个应用的端点描述符，注册一个新的端点到任务，这样当有新的消息到来时直接发送到指定的任务中
   \   000077                ; Setup parameters for call to function afRegister
   \   000077   7A..         MOV     R2,#SampleApp_epDesc & 0xff
   \   000079   7B..         MOV     R3,#(SampleApp_epDesc >> 8) & 0xff
   \   00007B   12....       LCALL   ??afRegister?relay
    236            
    237            // 绑定按键事件到任务ID
    238            RegisterForKeys( SampleApp_TaskID );
   \   00007E                ; Setup parameters for call to function RegisterForKeys
   \   00007E   90....       MOV     DPTR,#SampleApp_TaskID
   \   000081   E0           MOVX    A,@DPTR
   \   000082   F9           MOV     R1,A
   \   000083   12....       LCALL   ??RegisterForKeys?relay
    239            
    240            // By default, all devices start out in Group 1
    241            SampleApp_Group.ID = 0x0001;
   \   000086   90....       MOV     DPTR,#SampleApp_Group
   \   000089   7401         MOV     A,#0x1
   \   00008B   F0           MOVX    @DPTR,A
   \   00008C   A3           INC     DPTR
   \   00008D   E4           CLR     A
   \   00008E   F0           MOVX    @DPTR,A
    242            osal_memcpy( SampleApp_Group.name, "Group 1", 7 );
   \   00008F                ; Setup parameters for call to function osal_memcpy
   \   00008F   75....       MOV     ?V0 + 0,#`?<Constant "Group 1">` & 0xff
   \   000092   75....       MOV     ?V0 + 1,#(`?<Constant "Group 1">` >> 8) & 0xff
   \   000095   F5..         MOV     ?V0 + 2,A
   \   000097   78..         MOV     R0,#?V0 + 0
   \   000099   12....       LCALL   ?PUSH_XSTACK_I_THREE
   \   00009C   7C07         MOV     R4,#0x7
   \   00009E   7D00         MOV     R5,#0x0
   \   0000A0   7A..         MOV     R2,#(SampleApp_Group + 2) & 0xff
   \   0000A2   7B..         MOV     R3,#((SampleApp_Group + 2) >> 8) & 0xff
   \   0000A4   12....       LCALL   ??Subroutine19_0 & 0xFFFF
   \                     ??CrossCallReturnLabel_38:
   \   0000A7   12....       LCALL   ?DEALLOC_XSTACK8
    243            aps_AddGroup( SAMPLEAPP_ENDPOINT, &SampleApp_Group );
   \   0000AA                ; Setup parameters for call to function aps_AddGroup
   \   0000AA   7A..         MOV     R2,#SampleApp_Group & 0xff
   \   0000AC   7B..         MOV     R3,#(SampleApp_Group >> 8) & 0xff
   \   0000AE   7914         MOV     R1,#0x14
   \   0000B0   12....       LCALL   ??aps_AddGroup?relay
    244            
    245            // 初始化串口
    246            MT_UartInit();                    //串口初始化
   \   0000B3                ; Setup parameters for call to function MT_UartInit
   \   0000B3   12....       LCALL   ??MT_UartInit?relay
    247            MT_UartRegisterTaskID(task_id);   //注册串口任务
   \   0000B6                ; Setup parameters for call to function MT_UartRegisterTaskID
   \   0000B6   EE           MOV     A,R6
   \   0000B7   F9           MOV     R1,A
   \   0000B8   12....       LCALL   ??MT_UartRegisterTaskID?relay
    248            myprintf("UartInit OK\n");
   \   0000BB                ; Setup parameters for call to function myprintf
   \   0000BB   7A..         MOV     R2,#`?<Constant "UartInit OK\\n">` & 0xff
   \   0000BD   7B..         MOV     R3,#(`?<Constant "UartInit OK\\n">` >> 8) & 0xff
   \   0000BF   12....       LCALL   ??myprintf?relay
    249          
    250          #ifdef ZDO_COORDINATOR   
    251            int ret = InitList_L(&LL); // 单链表初始化
    252            if(ret == OVERFLOW) {
    253              myprintf("InitList_L OVERFLOW\n");
    254            }
    255          #endif  
    256          }
   \   0000C2   02....       LJMP    ??Subroutine20_0 & 0xFFFF
   \   0000C5                REQUIRE P1SEL
   \   0000C5                REQUIRE P1DIR
   \   0000C5                REQUIRE _A_P1

   \                                 In  segment BANKED_CODE, align 1, keep-with-next
   \                     ??Subroutine19_0:
   \   000000   12....       LCALL   ??osal_memcpy?relay
   \   000003   7403         MOV     A,#0x3
   \   000005   22           RET

   \                                 In  segment BANKED_CODE, align 1, keep-with-next
   \                     ??Subroutine20_0:
   \   000000   7F03         MOV     R7,#0x3
   \   000002   02....       LJMP    ?BANKED_LEAVE_XDATA
    257          
    258          /*********************************************************************
    259          * @fn      SampleApp_ProcessEvent
    260          *
    261          * @brief   Generic Application Task event processor.  This function
    262          *          is called to process all events for the task.  Events
    263          *          include timers, messages and any other user defined events.
    264          *          系统各种事件的处理函数
    265          *
    266          * @param   task_id  - The OSAL assigned task ID.
    267          * @param   events - events to process.  This is a bit map and can
    268          *                   contain more than one event.
    269          *
    270          * @return  none
    271          */

   \                                 In  segment BANKED_CODE, align 1, keep-with-next
    272          uint16 SampleApp_ProcessEvent( uint8 task_id, uint16 events )
   \                     SampleApp_ProcessEvent:
    273          {
   \   000000   74F4         MOV     A,#-0xc
   \   000002   12....       LCALL   ?BANKED_ENTER_XDATA
   \   000005                ; Saved register size: 12
   \   000005                ; Auto size: 3
   \   000005   74FD         MOV     A,#-0x3
   \   000007   12....       LCALL   ?ALLOC_XSTACK8
   \   00000A   8A..         MOV     ?V0 + 0,R2
   \   00000C   8B..         MOV     ?V0 + 1,R3
    274            afIncomingMSGPacket_t *MSGpkt;
    275            afDataConfirm_t *afDataConfirm;
    276            ZStatus_t sentStatus;
    277            (void)task_id;  // Intentionally unreferenced parameter
    278            
    279            if ( events & SYS_EVENT_MSG )
   \   00000E   EB           MOV     A,R3
   \   00000F   5480         ANL     A,#0x80
   \   000011   7003         JNZ     $+5
   \   000013   02....       LJMP    ??SampleApp_ProcessEvent_0 & 0xFFFF
    280            {
    281              MSGpkt = (afIncomingMSGPacket_t *)osal_msg_receive( SampleApp_TaskID );
   \   000016                ; Setup parameters for call to function osal_msg_receive
   \   000016   12....       LCALL   ?Subroutine5 & 0xFFFF
    282              uint8 coodStarted[3] = {'#', 0x45, '@'};
   \                     ??CrossCallReturnLabel_3:
   \   000019   90....       MOV     DPTR,#`?<Constant {35, 69, 64}>`
   \   00001C   C082         PUSH    DPL
   \   00001E   85..82       MOV     DPL,?XSP + 0
   \   000021   85..83       MOV     DPH,?XSP + 1
   \   000024   AC82         MOV     R4,DPL
   \   000026   AD83         MOV     R5,DPH
   \   000028   7583..       MOV     DPH,#(`?<Constant {35, 69, 64}>` >> 8) & 0xff
   \   00002B   D082         POP     DPL
   \   00002D   7403         MOV     A,#0x3
   \   00002F   12....       LCALL   ?MOVE_LONG8_XDATA_XDATA
   \   000032   801A         SJMP    ??CrossCallReturnLabel_4
    283              while ( MSGpkt )
    284              {      
    285                switch ( MSGpkt->hdr.event )
    286                {
    287                  // 系统任务事件里面的接收数据确认消息
    288                  case AF_DATA_CONFIRM_CMD:          
    289                    afDataConfirm = (afDataConfirm_t *)MSGpkt;
    290                    sentStatus = afDataConfirm->hdr.status;
    291                    // Action taken when confirmation is received.
    292                    if ( sentStatus != ZSuccess )
    293                    {
    294                      myprintf("Got ERROR:AF_DATA_CONFIRM_CMD failed\n");
    295                    }
    296                    break;
    297                  
    298                    // 接收到一个按键事件
    299                  case KEY_CHANGE:
    300                    SampleApp_HandleKeys( ((keyChange_t *)MSGpkt)->state, ((keyChange_t *)MSGpkt)->keys );
    301                    break;
    302                    
    303                    // 无线网络收到数据
    304                  case AF_INCOMING_MSG_CMD:
    305                    SampleApp_MessageMSGCB( MSGpkt );
    306                    break;
    307                    
    308                    // 设备组网或者入网成功，可以发送一个消息，并开启一个心跳事件的定时器
    309                  case ZDO_STATE_CHANGE:
    310                    SampleApp_NwkState = (devStates_t)(MSGpkt->hdr.status); // 另外MSGpkt->srcAddr.addr.shortAddr;可用于获取终端节点的网络短地址          
    311                    
    312                    // 判断不同的设备类型
    313                    if(SampleApp_NwkState == DEV_ZB_COORD) { // 协调器组建好网络            
    314                      mySendByteBuf(coodStarted, 3); // 向上位机发送已经启动消息            
    315                      osal_start_timerEx( SampleApp_TaskID, SAMPLEAPP_SEND_PERIODIC_MSG_EVT, SAMPLEAPP_SEND_PERIODIC_MSG_TIMEOUT ); // 开启定时器
    316                      HalLedBlink(HAL_LED_2, 3, 50, 250);
    317                    } else if(SampleApp_NwkState == DEV_ROUTER) { // 路由器加入网络
    318                      HalLedBlink(HAL_LED_2, 3, 50, 250);
    319                    } else if(SampleApp_NwkState == DEV_END_DEVICE) { // 终端加入网络
    320                      AfSendAddrInfo(0x71); // 向协调器发送入网消息
    321                      HalLedBlink(HAL_LED_2, 3, 50, 250);
    322                      osal_start_timerEx( SampleApp_TaskID, SAMPLEAPP_SEND_PERIODIC_MSG_EVT, SAMPLEAPP_SEND_PERIODIC_MSG_TIMEOUT ); // 开启定时器
    323                      IEN1 |= (0x1 << 5); // 开启端口0中断
    324                    }
    325                    break;
    326                    
    327                  default:        
    328                    myprintf("unknown pkg-event = 0x%x\n", MSGpkt->hdr.event);      
   \                     ??SampleApp_ProcessEvent_1:
   \   000034                ; Setup parameters for call to function myprintf
   \   000034   12....       LCALL   ?Subroutine10 & 0xFFFF
   \                     ??CrossCallReturnLabel_12:
   \   000037   12....       LCALL   ?PUSH_XSTACK_I_TWO
   \   00003A   7A..         MOV     R2,#`?<Constant "unknown pkg-event = 0...">` & 0xff
   \   00003C   7B..         MOV     R3,#(`?<Constant "unknown pkg-event = 0...">` >> 8) & 0xff
   \   00003E   12....       LCALL   ?Subroutine11 & 0xFFFF
   \                     ??CrossCallReturnLabel_14:
   \   000041   12....       LCALL   ?DEALLOC_XSTACK8
    329                    break;
    330                }      
    331                
    332                osal_msg_deallocate( (uint8 *)MSGpkt );// Release the memory
   \                     ??SampleApp_ProcessEvent_2:
   \   000044                ; Setup parameters for call to function osal_msg_deallocate
   \   000044   EE           MOV     A,R6
   \   000045   FA           MOV     R2,A
   \   000046   EF           MOV     A,R7
   \   000047   FB           MOV     R3,A
   \   000048   12....       LCALL   ??osal_msg_deallocate?relay
    333                MSGpkt = (afIncomingMSGPacket_t *)osal_msg_receive( SampleApp_TaskID );// Next - if one is available
   \   00004B                ; Setup parameters for call to function osal_msg_receive
   \   00004B   12....       LCALL   ?Subroutine5 & 0xFFFF
   \                     ??CrossCallReturnLabel_4:
   \   00004E   EE           MOV     A,R6
   \   00004F   4F           ORL     A,R7
   \   000050   607C         JZ      ??SampleApp_ProcessEvent_3
   \   000052   8E82         MOV     DPL,R6
   \   000054   8F83         MOV     DPH,R7
   \   000056   E0           MOVX    A,@DPTR
   \   000057   24E6         ADD     A,#-0x1a
   \   000059   6019         JZ      ??SampleApp_ProcessEvent_4
   \   00005B   245A         ADD     A,#0x5a
   \   00005D   60E5         JZ      ??SampleApp_ProcessEvent_2
   \   00005F   24EF         ADD     A,#-0x11
   \   000061   601A         JZ      ??SampleApp_ProcessEvent_5
   \   000063   24D4         ADD     A,#-0x2c
   \   000065   70CD         JNZ     ??SampleApp_ProcessEvent_1
   \   000067   A3           INC     DPTR
   \   000068   E0           MOVX    A,@DPTR
   \   000069   60D9         JZ      ??SampleApp_ProcessEvent_2
   \   00006B                ; Setup parameters for call to function myprintf
   \   00006B   7A..         MOV     R2,#`?<Constant "Got ERROR:AF_DATA_CON...">` & 0xff
   \   00006D   7B..         MOV     R3,#(`?<Constant "Got ERROR:AF_DATA_CON...">` >> 8) & 0xff
   \   00006F   12....       LCALL   ??myprintf?relay
   \   000072   80D0         SJMP    ??SampleApp_ProcessEvent_2
   \                     ??SampleApp_ProcessEvent_4:
   \   000074                ; Setup parameters for call to function SampleApp_MessageMSGCB
   \   000074   EE           MOV     A,R6
   \   000075   FA           MOV     R2,A
   \   000076   EF           MOV     A,R7
   \   000077   FB           MOV     R3,A
   \   000078   12....       LCALL   ??SampleApp_MessageMSGCB?relay
   \   00007B   80C7         SJMP    ??SampleApp_ProcessEvent_2
   \                     ??SampleApp_ProcessEvent_5:
   \   00007D   A3           INC     DPTR
   \   00007E   E0           MOVX    A,@DPTR
   \   00007F   90....       MOV     DPTR,#SampleApp_NwkState
   \   000082   F0           MOVX    @DPTR,A
   \   000083   6409         XRL     A,#0x9
   \   000085   7023         JNZ     ??SampleApp_ProcessEvent_6
   \   000087                ; Setup parameters for call to function mySendByteBuf
   \   000087   7C03         MOV     R4,#0x3
   \   000089   7D00         MOV     R5,#0x0
   \   00008B   85..82       MOV     DPL,?XSP + 0
   \   00008E   85..83       MOV     DPH,?XSP + 1
   \   000091   AA82         MOV     R2,DPL
   \   000093   AB83         MOV     R3,DPH
   \   000095   12....       LCALL   ??mySendByteBuf?relay
   \   000098                ; Setup parameters for call to function osal_start_timerEx
   \   000098   12....       LCALL   ?Subroutine4 & 0xFFFF
   \   00009B                ; Setup parameters for call to function HalLedBlink
   \                     ??CrossCallReturnLabel_25:
   \   00009B   7CFA         MOV     R4,#-0x6
   \   00009D   7D00         MOV     R5,#0x0
   \   00009F   7B32         MOV     R3,#0x32
   \   0000A1   7A03         MOV     R2,#0x3
   \   0000A3   7902         MOV     R1,#0x2
   \   0000A5   12....       LCALL   ??HalLedBlink?relay
   \   0000A8   809A         SJMP    ??SampleApp_ProcessEvent_2
   \                     ??SampleApp_ProcessEvent_6:
   \   0000AA   E0           MOVX    A,@DPTR
   \   0000AB   6407         XRL     A,#0x7
   \   0000AD   60EC         JZ      ??CrossCallReturnLabel_25
   \   0000AF                ; Setup parameters for call to function HalLedBlink
   \   0000AF   E0           MOVX    A,@DPTR
   \   0000B0   6406         XRL     A,#0x6
   \   0000B2   7090         JNZ     ??SampleApp_ProcessEvent_2
   \   0000B4                ; Setup parameters for call to function AfSendAddrInfo
   \   0000B4   7971         MOV     R1,#0x71
   \   0000B6   12....       LCALL   ??AfSendAddrInfo?relay
   \   0000B9                ; Setup parameters for call to function HalLedBlink
   \   0000B9   7CFA         MOV     R4,#-0x6
   \   0000BB   7D00         MOV     R5,#0x0
   \   0000BD   7B32         MOV     R3,#0x32
   \   0000BF   7A03         MOV     R2,#0x3
   \   0000C1   7902         MOV     R1,#0x2
   \   0000C3   12....       LCALL   ??HalLedBlink?relay
   \   0000C6                ; Setup parameters for call to function osal_start_timerEx
   \   0000C6   12....       LCALL   ?Subroutine4 & 0xFFFF
   \                     ??CrossCallReturnLabel_26:
   \   0000C9   D2BD         SETB    0xb8.5
   \   0000CB   02....       LJMP    ??SampleApp_ProcessEvent_2 & 0xFFFF
    334              }
    335              
    336              // return unprocessed events
    337              return (events ^ SYS_EVENT_MSG);
   \                     ??SampleApp_ProcessEvent_3:
   \   0000CE   AA..         MOV     R2,?V0 + 0
   \   0000D0   E5..         MOV     A,?V0 + 1
   \   0000D2   6480         XRL     A,#0x80
   \   0000D4   FB           MOV     R3,A
   \   0000D5   02....       LJMP    ??SampleApp_ProcessEvent_7 & 0xFFFF
    338            }
    339            
    340            //myprintf("events = 0x%x\n", events);
    341            // 接收到一个定时器事件
    342            if ( events & SAMPLEAPP_SEND_PERIODIC_MSG_EVT )
   \                     ??SampleApp_ProcessEvent_0:
   \   0000D8   EA           MOV     A,R2
   \   0000D9   A2E0         MOV     C,0xE0 /* A   */.0
   \   0000DB   5014         JNC     ??SampleApp_ProcessEvent_8
    343            {
    344          #ifdef ZDO_COORDINATOR // 协调器
    345              SampleApp_SendHeartBeatMessageCoor(); // 协调器心跳功能函数，同时检测掉线的终端，将掉线信息发送到服务器
    346              osal_start_timerEx( SampleApp_TaskID, SAMPLEAPP_SEND_PERIODIC_MSG_EVT, SAMPLEAPP_SEND_PERIODIC_MSG_TIMEOUT); // 1000ms再次开启定时器
    347          #endif
    348              
    349          #ifdef END_DEVICE // 终端设备
    350              SampleApp_SendHeartBeatMessageEnd(); // 终端心跳功能函数
   \   0000DD                ; Setup parameters for call to function SampleApp_SendHeartBeatMessageEnd
   \   0000DD   12....       LCALL   ??SampleApp_SendHeartBeatMessageEnd?relay
    351              osal_start_timerEx( SampleApp_TaskID, SAMPLEAPP_SEND_PERIODIC_MSG_EVT, SAMPLEAPP_SEND_PERIODIC_MSG_TIMEOUT*3/2); // 2000ms再次开启定时器
   \   0000E0                ; Setup parameters for call to function osal_start_timerEx
   \   0000E0   7CDC         MOV     R4,#-0x24
   \   0000E2   7D05         MOV     R5,#0x5
   \   0000E4   12....       LCALL   ??Subroutine16_0 & 0xFFFF
    352          #endif
    353              
    354              return (events ^ SAMPLEAPP_SEND_PERIODIC_MSG_EVT); // 清除此已经处理事件标志位
   \                     ??CrossCallReturnLabel_27:
   \   0000E7   E5..         MOV     A,?V0 + 0
   \   0000E9   6401         XRL     A,#0x1
   \                     ??SampleApp_ProcessEvent_9:
   \   0000EB   FA           MOV     R2,A
   \   0000EC   AB..         MOV     R3,?V0 + 1
   \   0000EE   02....       LJMP    ??SampleApp_ProcessEvent_7 & 0xFFFF
    355            }  
    356          
    357          #ifdef END_DEVICE  // 接收到线上金币的开启信号，模拟电平变化的定时器事件
    358            else if(events & SAMPLEAPP_SIMULATE_COIN_MSG_EVT) {
   \                     ??SampleApp_ProcessEvent_8:
   \   0000F1   5402         ANL     A,#0x2
   \   0000F3   604C         JZ      ??SampleApp_ProcessEvent_10
    359              myprintf("Get COIN_MSG_EVT, NeedCoinDelivered = %d, events = 0x%x\n", NeedCoinDelivered, events);    
   \   0000F5                ; Setup parameters for call to function myprintf
   \   0000F5   78..         MOV     R0,#?V0 + 0
   \   0000F7   12....       LCALL   ?PUSH_XSTACK_I_TWO
   \   0000FA   90....       MOV     DPTR,#NeedCoinDelivered
   \   0000FD   E0           MOVX    A,@DPTR
   \   0000FE   F5..         MOV     ?V0 + 2,A
   \   000100   33           RLC     A
   \   000101   95E0         SUBB    A,0xE0 /* A   */
   \   000103   F5..         MOV     ?V0 + 3,A
   \   000105   78..         MOV     R0,#?V0 + 2
   \   000107   12....       LCALL   ?PUSH_XSTACK_I_TWO
   \   00010A   7A..         MOV     R2,#`?<Constant "Get COIN_MSG_EVT, Nee...">` & 0xff
   \   00010C   7B..         MOV     R3,#(`?<Constant "Get COIN_MSG_EVT, Nee...">` >> 8) & 0xff
   \   00010E   12....       LCALL   ??myprintf?relay
   \   000111   7404         MOV     A,#0x4
   \   000113   12....       LCALL   ?DEALLOC_XSTACK8
    360              if(COIN_SIMULATE_PIN == 1) {
   \   000116   A292         MOV     C,0x90.2
   \   000118   5004         JNC     ??SampleApp_ProcessEvent_11
    361                COIN_SIMULATE_PIN = 0; // 产生一个下降沿
   \   00011A   C292         CLR     0x90.2
   \   00011C   800C         SJMP    ??SampleApp_ProcessEvent_12
    362              } else if(COIN_SIMULATE_PIN == 0) {
   \                     ??SampleApp_ProcessEvent_11:
   \   00011E   A292         MOV     C,0x90.2
   \   000120   4008         JC      ??SampleApp_ProcessEvent_12
    363                COIN_SIMULATE_PIN = 1; // 完整产生了一个脉冲
   \   000122   D292         SETB    0x90.2
    364                NeedCoinDelivered--;
   \   000124   90....       MOV     DPTR,#NeedCoinDelivered
   \   000127   E0           MOVX    A,@DPTR
   \   000128   14           DEC     A
   \   000129   F0           MOVX    @DPTR,A
    365              }
    366              if(NeedCoinDelivered > 0) { // 还需要开启定时器
   \                     ??SampleApp_ProcessEvent_12:
   \   00012A   90....       MOV     DPTR,#NeedCoinDelivered
   \   00012D   12....       LCALL   ?Subroutine8 & 0xFFFF
   \                     ??CrossCallReturnLabel_10:
   \   000130   4009         JC      ??CrossCallReturnLabel_28
    367                osal_start_timerEx( SampleApp_TaskID, SAMPLEAPP_SIMULATE_COIN_MSG_EVT, COIN_SIGNAL_HALF_TIME); // 低电平和高电平至少保持50ms
   \   000132                ; Setup parameters for call to function osal_start_timerEx
   \   000132   7C32         MOV     R4,#0x32
   \   000134   7D00         MOV     R5,#0x0
   \   000136   7A02         MOV     R2,#0x2
   \   000138   12....       LCALL   ??Subroutine17_0 & 0xFFFF
    368              } 
    369              
    370              return (events ^ SAMPLEAPP_SIMULATE_COIN_MSG_EVT);
   \                     ??CrossCallReturnLabel_28:
   \   00013B   E5..         MOV     A,?V0 + 0
   \   00013D   6402         XRL     A,#0x2
   \   00013F   80AA         SJMP    ??SampleApp_ProcessEvent_9
    371            } 
    372            else if(events & SAMPLEAPP_TRANSPORT_COIN_MSG_EVT) { // 需要转发投币器的投币信号
   \                     ??SampleApp_ProcessEvent_10:
   \   000141   EA           MOV     A,R2
   \   000142   5404         ANL     A,#0x4
   \   000144   602C         JZ      ??SampleApp_ProcessEvent_13
    373              //myprintf("Get transport coin EVT, NeedCoinTransport = %d\n", NeedCoinTransport);
    374              
    375              if(COIN_SIMULATE_PIN == 1) {
   \   000146   A292         MOV     C,0x90.2
   \   000148   5004         JNC     ??SampleApp_ProcessEvent_14
    376                COIN_SIMULATE_PIN = 0; // 产生一个下降沿
   \   00014A   C292         CLR     0x90.2
   \   00014C   800C         SJMP    ??SampleApp_ProcessEvent_15
    377              } else if(COIN_SIMULATE_PIN == 0) {
   \                     ??SampleApp_ProcessEvent_14:
   \   00014E   A292         MOV     C,0x90.2
   \   000150   4008         JC      ??SampleApp_ProcessEvent_15
    378                COIN_SIMULATE_PIN = 1; // 完整产生了一个脉冲
   \   000152   D292         SETB    0x90.2
    379                NeedCoinTransport--;
   \   000154   90....       MOV     DPTR,#NeedCoinTransport
   \   000157   E0           MOVX    A,@DPTR
   \   000158   14           DEC     A
   \   000159   F0           MOVX    @DPTR,A
    380              }
    381              if(NeedCoinTransport > 0) { // 还需要开启定时器
   \                     ??SampleApp_ProcessEvent_15:
   \   00015A   90....       MOV     DPTR,#NeedCoinTransport
   \   00015D   12....       LCALL   ?Subroutine8 & 0xFFFF
   \                     ??CrossCallReturnLabel_11:
   \   000160   4009         JC      ??CrossCallReturnLabel_29
    382                osal_start_timerEx( SampleApp_TaskID, SAMPLEAPP_TRANSPORT_COIN_MSG_EVT, COIN_SIGNAL_HALF_TIME); // 低电平和高电平至少保持50ms
   \   000162                ; Setup parameters for call to function osal_start_timerEx
   \   000162   7C32         MOV     R4,#0x32
   \   000164   7D00         MOV     R5,#0x0
   \   000166   7A04         MOV     R2,#0x4
   \   000168   12....       LCALL   ??Subroutine17_0 & 0xFFFF
    383              }
    384              return (events ^ SAMPLEAPP_TRANSPORT_COIN_MSG_EVT);
   \                     ??CrossCallReturnLabel_29:
   \   00016B   E5..         MOV     A,?V0 + 0
   \   00016D   6404         XRL     A,#0x4
   \   00016F   02....       LJMP    ??SampleApp_ProcessEvent_9 & 0xFFFF
    385            }
    386          #endif  
    387          
    388            return 0;
   \                     ??SampleApp_ProcessEvent_13:
   \   000172   7A00         MOV     R2,#0x0
   \   000174   7B00         MOV     R3,#0x0
   \                     ??SampleApp_ProcessEvent_7:
   \   000176   7403         MOV     A,#0x3
   \   000178                REQUIRE ?Subroutine1
   \   000178                REQUIRE _A_IEN1
   \   000178                REQUIRE _A_P1
   \   000178                ; // Fall through to label ?Subroutine1
    389          }

   \                                 In  segment BANKED_CODE, align 1, keep-with-next
   \                     ?Subroutine1:
   \   000000   12....       LCALL   ?DEALLOC_XSTACK8
   \   000003   7F04         MOV     R7,#0x4
   \   000005   02....       LJMP    ?BANKED_LEAVE_XDATA

   \                                 In  segment BANKED_CODE, align 1, keep-with-next
   \                     ?Subroutine8:
   \   000000   E0           MOVX    A,@DPTR
   \   000001   C3           CLR     C
   \   000002   9401         SUBB    A,#0x1
   \   000004   A2D2         MOV     C,0xD0 /* PSW */.2
   \   000006   65D0         XRL     A,PSW
   \   000008   33           RLC     A
   \   000009   22           RET

   \                                 In  segment BANKED_CODE, align 1, keep-with-next
   \                     ?Subroutine5:
   \   000000   90....       MOV     DPTR,#SampleApp_TaskID
   \   000003   E0           MOVX    A,@DPTR
   \   000004   F9           MOV     R1,A
   \   000005   12....       LCALL   ??osal_msg_receive?relay
   \   000008   8A..         MOV     ?V0 + 2,R2
   \   00000A   8B..         MOV     ?V0 + 3,R3
   \   00000C   AE..         MOV     R6,?V0 + 2
   \   00000E   AF..         MOV     R7,?V0 + 3
   \   000010   22           RET

   \                                 In  segment BANKED_CODE, align 1, keep-with-next
   \                     ?Subroutine4:
   \   000000   7CE8         MOV     R4,#-0x18
   \   000002   7D03         MOV     R5,#0x3
   \   000004                REQUIRE ??Subroutine16_0
   \   000004                ; // Fall through to label ??Subroutine16_0

   \                                 In  segment BANKED_CODE, align 1, keep-with-next
   \                     ??Subroutine16_0:
   \   000000   7A01         MOV     R2,#0x1
   \   000002                REQUIRE ??Subroutine17_0
   \   000002                ; // Fall through to label ??Subroutine17_0

   \                                 In  segment BANKED_CODE, align 1, keep-with-next
   \                     ??Subroutine17_0:
   \   000000   7B00         MOV     R3,#0x0
   \   000002   90....       MOV     DPTR,#SampleApp_TaskID
   \   000005   E0           MOVX    A,@DPTR
   \   000006   F9           MOV     R1,A
   \   000007   12....       LCALL   ??osal_start_timerEx?relay
   \   00000A   22           RET

   \                                 In  segment BANKED_CODE, align 1, keep-with-next
   \                     ?Subroutine11:
   \   000000   12....       LCALL   ??myprintf?relay
   \   000003   7402         MOV     A,#0x2
   \   000005   22           RET

   \                                 In  segment BANKED_CODE, align 1, keep-with-next
   \                     ?Subroutine10:
   \   000000   E0           MOVX    A,@DPTR
   \   000001   F5..         MOV     ?V0 + 2,A
   \   000003   75..00       MOV     ?V0 + 3,#0x0
   \   000006   78..         MOV     R0,#?V0 + 2
   \   000008   22           RET
    390          
    391          /*********************************************************************
    392          * Event Generation Functions
    393          */
    394          /*********************************************************************
    395          * @fn      SampleApp_HandleKeys
    396          *
    397          * @brief   按键事件处理函数
    398          *
    399          * @param   shift - true if in shift/alt.
    400          * @param   keys - bit field for key events. Valid entries:
    401          *                 HAL_KEY_SW_2
    402          *                 HAL_KEY_SW_1
    403          *
    404          * @return  none
    405          */

   \                                 In  segment BANKED_CODE, align 1, keep-with-next
    406          void SampleApp_HandleKeys( uint8 shift, uint8 keys )
   \                     SampleApp_HandleKeys:
    407          {
   \   000000                ; Saved register size: 0
   \   000000                ; Auto size: 0
    408            (void)shift;  // Intentionally unreferenced parameter
    409          #ifdef ZDO_COORDINATOR       //按协调器S1才发数据  
    410            if ( keys & HAL_KEY_SW_6 ){ // 按键S1,以广播方式发数据    
    411              SampleApp_SendPeriodicMessage(1);
    412            } else if(keys & HAL_KEY_SW_1) { // 按键S2
    413              //SampleApp_SendPeriodicMessage(2);
    414            }
    415          #endif
    416          }
   \   000000   02....       LJMP    ?BRET
    417          
    418          /*********************************************************************
    419          * LOCAL FUNCTIONS
    420          */
    421          
    422          /*********************************************************************
    423          * @fn      SampleApp_MessageMSGCB
    424          *
    425          * @brief   Data message processor callback.  This function processes
    426          *          any incoming data - probably from other devices.  So, based
    427          *          on cluster ID, perform the intended action.
    428          *
    429          * @param   none
    430          *
    431          * @return  none
    432          */
    433          #define INIT_LEFT_SEC 5
    434          #ifdef NEED_TEST_DIStANCE
    435          uint16 recvTestMsgCount = 0;
    436          #endif

   \                                 In  segment BANKED_CODE, align 1, keep-with-next
    437          void SampleApp_MessageMSGCB( afIncomingMSGPacket_t *pkt )
   \                     SampleApp_MessageMSGCB:
    438          {
   \   000000   74F6         MOV     A,#-0xa
   \   000002   12....       LCALL   ?BANKED_ENTER_XDATA
   \   000005                ; Saved register size: 10
   \   000005                ; Auto size: 0
    439          #ifndef ROUTER_EB  
    440            uint8 data;
    441            uint8 cmd;
    442          #endif  
    443          #ifdef ZDO_COORDINATOR  
    444            int8 ret = 0;
    445          #endif  
    446            
    447            switch ( pkt->clusterId )
   \   000005   8A82         MOV     DPL,R2
   \   000007   8B83         MOV     DPH,R3
   \   000009   A3           INC     DPTR
   \   00000A   A3           INC     DPTR
   \   00000B   A3           INC     DPTR
   \   00000C   A3           INC     DPTR
   \   00000D   E0           MOVX    A,@DPTR
   \   00000E   6401         XRL     A,#0x1
   \   000010   7002         JNZ     ??SampleApp_MessageMSGCB_0
   \   000012   A3           INC     DPTR
   \   000013   E0           MOVX    A,@DPTR
   \                     ??SampleApp_MessageMSGCB_0:
   \   000014   7073         JNZ     ??SampleApp_MessageMSGCB_1
    448            {    
    449            case SAMPLEAPP_PERIODIC_CLUSTERID: // 协调器在发送数据的时候指定的此消息对应的命令字，即表示哪种类型的控制命令
    450          //协调器接收到终端的无线数据 
    451          #ifdef ZDO_COORDINATOR
    452              data = pkt->cmd.Data[0];
    453              cmd = pkt->cmd.Data[1];
    454              if(data == '#') {
    455                if(cmd == 0x71 && pkt->cmd.Data[12] == '@') { // 接收到终端上传的短地址和IEEE地址
    456                  ret = checkEPInList(LL, pkt->cmd.Data + 4); // 使用IEEE地址检查终端是否已经在链表中
    457                  if(ret == -1) { // 如果当前终端没有在列表中        
    458                    ListInsert_L(LL, ListLength_L(LL)+1, pkt->cmd.Data[2], pkt->cmd.Data[3], &(pkt->cmd.Data[4]), INIT_LEFT_SEC); // 添加一个线性列表元素到链表尾部 
    459                    myprintf("Insert new EP in list\n");
    460                    printAddrInfoHex(pkt->cmd.Data+2, 10); // 打印中断的长短地址信息
    461                  } else { // 更新终端所在节点的在线时长，标记为在线状态
    462                    updateListEleStatus(LL, ret, INIT_LEFT_SEC);
    463                    //myprintf("Already In List, update() sec = %d\n", osal_getClock());
    464                  }
    465                  // myprintf("length = %d\n", ListLength_L(LL));
    466                } else if(cmd == 0x72 && pkt->cmd.Data[10] == '@') { // 收到终端回复的确认收到投币命令
    467                  mySendByteBuf(pkt->cmd.Data, 11); // 转发回复消息到上位机        
    468                } else if(cmd == 0x51 && pkt->cmd.Data[12] == '@') { // 终端按键S1上传的长短地址信息
    469                  printAddrInfoHex(pkt->cmd.Data+2, 10);
    470                  mySendByteBuf(pkt->cmd.Data, 13);
    471                }
    472              }
    473          #endif    
    474          #ifdef END_DEVICE //终端接收数据处理
    475              data = pkt->cmd.Data[0];
    476              cmd = pkt->cmd.Data[1];
   \   000016   12....       LCALL   ?Subroutine13 & 0xFFFF
   \                     ??CrossCallReturnLabel_21:
   \   000019   E0           MOVX    A,@DPTR
   \   00001A   F8           MOV     R0,A
   \   00001B   A3           INC     DPTR
   \   00001C   E0           MOVX    A,@DPTR
   \   00001D   F9           MOV     R1,A
   \   00001E   8882         MOV     DPL,R0
   \   000020   8983         MOV     DPH,R1
   \   000022   A3           INC     DPTR
   \   000023   E0           MOVX    A,@DPTR
   \   000024   FC           MOV     R4,A
    477              if(data == '#')
   \   000025   8882         MOV     DPL,R0
   \   000027   8983         MOV     DPH,R1
   \   000029   E0           MOVX    A,@DPTR
   \   00002A   6423         XRL     A,#0x23
   \   00002C   705B         JNZ     ??SampleApp_MessageMSGCB_1
    478              {
    479                if(cmd == 0x81 && pkt->cmd.Data[3] == '@') { // 收到投递指定币数的消息
   \   00002E   7481         MOV     A,#-0x7f
   \   000030   6C           XRL     A,R4
   \   000031   703F         JNZ     ??SampleApp_MessageMSGCB_2
   \   000033   12....       LCALL   ?Subroutine6 & 0xFFFF
   \                     ??CrossCallReturnLabel_5:
   \   000036   7051         JNZ     ??SampleApp_MessageMSGCB_1
    480                  NeedCoinDelivered = pkt->cmd.Data[2]; // 开始模拟投币信号
   \   000038   12....       LCALL   ?Subroutine13 & 0xFFFF
   \                     ??CrossCallReturnLabel_22:
   \   00003B   A3           INC     DPTR
   \   00003C   E0           MOVX    A,@DPTR
   \   00003D   F583         MOV     DPH,A
   \   00003F   8882         MOV     DPL,R0
   \   000041   A3           INC     DPTR
   \   000042   A3           INC     DPTR
   \   000043   E0           MOVX    A,@DPTR
   \   000044   90....       MOV     DPTR,#NeedCoinDelivered
   \   000047   F0           MOVX    @DPTR,A
    481                  COIN_SIMULATE_PIN = 1; // 初始高电平
   \   000048   D292         SETB    0x90.2
    482                  osal_start_timerEx( SampleApp_TaskID, SAMPLEAPP_SIMULATE_COIN_MSG_EVT, COIN_SIGNAL_HALF_TIME); // 产生定时器事件                
   \   00004A                ; Setup parameters for call to function osal_start_timerEx
   \   00004A   7C32         MOV     R4,#0x32
   \   00004C   7D00         MOV     R5,#0x0
   \   00004E   7A02         MOV     R2,#0x2
   \   000050   12....       LCALL   ??Subroutine17_0 & 0xFFFF
    483                  AfReplyGetCoinCmd();  // 回复已经收到投币命令0x72
   \                     ??CrossCallReturnLabel_30:
   \   000053                ; Setup parameters for call to function AfReplyGetCoinCmd
   \   000053   12....       LCALL   ??AfReplyGetCoinCmd?relay
    484                  myprintf("NeedCoinDelivered = %d\n", NeedCoinDelivered);
   \   000056                ; Setup parameters for call to function myprintf
   \   000056   90....       MOV     DPTR,#NeedCoinDelivered
   \   000059   E0           MOVX    A,@DPTR
   \   00005A   F5..         MOV     ?V0 + 0,A
   \   00005C   33           RLC     A
   \   00005D   95E0         SUBB    A,0xE0 /* A   */
   \   00005F   F5..         MOV     ?V0 + 1,A
   \   000061   78..         MOV     R0,#?V0 + 0
   \   000063   12....       LCALL   ?PUSH_XSTACK_I_TWO
   \   000066   7A..         MOV     R2,#`?<Constant "NeedCoinDelivered = %d\\n">` & 0xff
   \   000068   7B..         MOV     R3,#(`?<Constant "NeedCoinDelivered = %d\\n">` >> 8) & 0xff
   \   00006A   12....       LCALL   ?Subroutine11 & 0xFFFF
    485                } else if(cmd == 0x31 && pkt->cmd.Data[3] == '@') { // LED2闪灯测试命令
   \                     ??CrossCallReturnLabel_15:
   \   00006D   12....       LCALL   ?DEALLOC_XSTACK8
   \   000070   8017         SJMP    ??SampleApp_MessageMSGCB_1
   \                     ??SampleApp_MessageMSGCB_2:
   \   000072   7431         MOV     A,#0x31
   \   000074   6C           XRL     A,R4
   \   000075   7012         JNZ     ??SampleApp_MessageMSGCB_1
   \   000077   12....       LCALL   ?Subroutine6 & 0xFFFF
   \                     ??CrossCallReturnLabel_6:
   \   00007A   700D         JNZ     ??SampleApp_MessageMSGCB_1
    486                  HalLedBlink(HAL_LED_1, 1, 50, 500);
   \   00007C                ; Setup parameters for call to function HalLedBlink
   \   00007C   7CF4         MOV     R4,#-0xc
   \   00007E   7D01         MOV     R5,#0x1
   \   000080   7B32         MOV     R3,#0x32
   \   000082   7A01         MOV     R2,#0x1
   \   000084   7901         MOV     R1,#0x1
   \   000086   12....       LCALL   ??HalLedBlink?relay
    487          #ifdef NEED_TEST_DIStANCE
    488                  recvTestMsgCount++;
    489                  HalLcdWriteString("Recv:", HAL_LCD_LINE_5);
    490                  convertHexToStrLCD(recvTestMsgCount, HAL_LCD_LINE_6);
    491          #endif        
    492                }
    493              }        
    494          #endif    
    495              break;
    496              
    497            default:
    498              break;
    499            }
    500          }
   \                     ??SampleApp_MessageMSGCB_1:
   \   000089                REQUIRE ?Subroutine2
   \   000089                REQUIRE _A_P1
   \   000089                ; // Fall through to label ?Subroutine2

   \                                 In  segment BANKED_CODE, align 1, keep-with-next
   \                     ?Subroutine2:
   \   000000   7F02         MOV     R7,#0x2
   \   000002   02....       LJMP    ?BANKED_LEAVE_XDATA

   \                                 In  segment BANKED_CODE, align 1, keep-with-next
   \                     ?Subroutine13:
   \   000000   12....       LCALL   ?Subroutine15 & 0xFFFF
   \                     ??CrossCallReturnLabel_24:
   \   000003   22           RET

   \                                 In  segment BANKED_CODE, align 1, keep-with-next
   \                     ?Subroutine15:
   \   000000   EA           MOV     A,R2
   \   000001   2422         ADD     A,#0x22
   \   000003   F582         MOV     DPL,A
   \   000005   EB           MOV     A,R3
   \   000006   3400         ADDC    A,#0x0
   \   000008   F583         MOV     DPH,A
   \   00000A   22           RET

   \                                 In  segment BANKED_CODE, align 1, keep-with-next
   \                     ?Subroutine6:
   \   000000   12....       LCALL   ?Subroutine15 & 0xFFFF
   \                     ??CrossCallReturnLabel_23:
   \   000003   A3           INC     DPTR
   \   000004   E0           MOVX    A,@DPTR
   \   000005   F583         MOV     DPH,A
   \   000007   8882         MOV     DPL,R0
   \   000009   A3           INC     DPTR
   \   00000A   A3           INC     DPTR
   \   00000B   A3           INC     DPTR
   \   00000C   E0           MOVX    A,@DPTR
   \   00000D   6440         XRL     A,#0x40
   \   00000F   22           RET
    501          
    502          /**
    503          * 协调器向终端发送广播类型消息
    504          */

   \                                 In  segment BANKED_CODE, align 1, keep-with-next
    505          void SampleApp_SendPeriodicMessage( int8 key )
   \                     SampleApp_SendPeriodicMessage:
    506          {
   \   000000   74F6         MOV     A,#-0xa
   \   000002   12....       LCALL   ?BANKED_ENTER_XDATA
   \   000005                ; Saved register size: 10
   \   000005                ; Auto size: 4
   \   000005   74FC         MOV     A,#-0x4
   \   000007   12....       LCALL   ?ALLOC_XSTACK8
   \   00000A   E9           MOV     A,R1
   \   00000B   FE           MOV     R6,A
    507            if(key == 1) { // 按键S1
   \   00000C   7401         MOV     A,#0x1
   \   00000E   6E           XRL     A,R6
   \   00000F   7074         JNZ     ??SampleApp_SendPeriodicMessage_0
    508              uint8 sendKeyS1Buf[4] = {'#', 0x31, 0, '@'};
   \   000011   85..82       MOV     DPL,?XSP + 0
   \   000014   85..83       MOV     DPH,?XSP + 1
   \   000017   AC82         MOV     R4,DPL
   \   000019   AD83         MOV     R5,DPH
   \   00001B   7583..       MOV     DPH,#(`?<Constant {35, 49, 0, 64}>` >> 8) & 0xff
   \   00001E   7582..       MOV     DPL,#`?<Constant {35, 49, 0, 64}>` & 0xff
   \   000021   7404         MOV     A,#0x4
   \   000023   12....       LCALL   ?MOVE_LONG8_XDATA_XDATA
    509              
    510              if ( AF_DataRequest( &SampleApp_Periodic_DstAddr, &SampleApp_epDesc,
    511                                  SAMPLEAPP_PERIODIC_CLUSTERID,
    512                                  4,
    513                                  sendKeyS1Buf,
    514                                  &SampleApp_TransID,
    515                                  AF_DISCV_ROUTE,
    516                                  AF_DEFAULT_RADIUS ) == afStatus_SUCCESS )
   \   000026                ; Setup parameters for call to function AF_DataRequest
   \   000026   75..1E       MOV     ?V0 + 0,#0x1e
   \   000029   78..         MOV     R0,#?V0 + 0
   \   00002B   12....       LCALL   ?PUSH_XSTACK_I_ONE
   \   00002E   75....       MOV     ?V0 + 0,#SampleApp_TransID & 0xff
   \   000031   75....       MOV     ?V0 + 1,#(SampleApp_TransID >> 8) & 0xff
   \   000034   78..         MOV     R0,#?V0 + 0
   \   000036   12....       LCALL   ?PUSH_XSTACK_I_TWO
   \   000039   7403         MOV     A,#0x3
   \   00003B   12....       LCALL   ?XSTACK_DISP0_8
   \   00003E   8582..       MOV     ?V0 + 0,DPL
   \   000041   8583..       MOV     ?V0 + 1,DPH
   \   000044   78..         MOV     R0,#?V0 + 0
   \   000046   12....       LCALL   ?PUSH_XSTACK_I_TWO
   \   000049   75..04       MOV     ?V0 + 0,#0x4
   \   00004C   75..00       MOV     ?V0 + 1,#0x0
   \   00004F   78..         MOV     R0,#?V0 + 0
   \   000051   12....       LCALL   ?PUSH_XSTACK_I_TWO
   \   000054   75..01       MOV     ?V0 + 0,#0x1
   \   000057   78..         MOV     R0,#?V0 + 0
   \   000059   12....       LCALL   ?PUSH_XSTACK_I_TWO
   \   00005C   7920         MOV     R1,#0x20
   \   00005E   7C..         MOV     R4,#SampleApp_epDesc & 0xff
   \   000060   7D..         MOV     R5,#(SampleApp_epDesc >> 8) & 0xff
   \   000062   7A..         MOV     R2,#SampleApp_Periodic_DstAddr & 0xff
   \   000064   7B..         MOV     R3,#(SampleApp_Periodic_DstAddr >> 8) & 0xff
   \   000066   12....       LCALL   ??Subroutine18_0 & 0xFFFF
   \                     ??CrossCallReturnLabel_34:
   \   000069   12....       LCALL   ?DEALLOC_XSTACK8
   \   00006C   E9           MOV     A,R1
   \   00006D   700F         JNZ     ??SampleApp_SendPeriodicMessage_1
    517              {
    518                HalLedBlink(HAL_LED_1, 1, 50, 250);
   \   00006F                ; Setup parameters for call to function HalLedBlink
   \   00006F   7CFA         MOV     R4,#-0x6
   \   000071   7D00         MOV     R5,#0x0
   \   000073   7B32         MOV     R3,#0x32
   \   000075   7A01         MOV     R2,#0x1
   \   000077   7901         MOV     R1,#0x1
   \   000079   12....       LCALL   ??HalLedBlink?relay
   \   00007C   8007         SJMP    ??SampleApp_SendPeriodicMessage_0
    519              } else {
    520                myprintf("SampleApp_SendPeriodicMessage() failed\n");
   \                     ??SampleApp_SendPeriodicMessage_1:
   \   00007E                ; Setup parameters for call to function myprintf
   \   00007E   7A..         MOV     R2,#`?<Constant "SampleApp_SendPeriodi...">` & 0xff
   \   000080   7B..         MOV     R3,#(`?<Constant "SampleApp_SendPeriodi...">` >> 8) & 0xff
   \   000082   12....       LCALL   ??myprintf?relay
    521              }
    522            }
    523          }
   \                     ??SampleApp_SendPeriodicMessage_0:
   \   000085   7404         MOV     A,#0x4
   \   000087   12....       LCALL   ?DEALLOC_XSTACK8
   \   00008A   02....       LJMP    ?Subroutine2 & 0xFFFF

   \                                 In  segment BANKED_CODE, align 1, keep-with-next
   \                     ??Subroutine18_0:
   \   000000   12....       LCALL   ??AF_DataRequest?relay
   \   000003   7409         MOV     A,#0x9
   \   000005   22           RET
    524          
    525          /**
    526            协调器心跳功能函数，使用串口向树莓派发送心跳信息
    527          */
    528          #ifdef NEED_TEST_DIStANCE
    529            uint16 totalSendTestCount = 0;
    530            uint16 sendTestCount = 0;
    531          #endif  

   \                                 In  segment BANKED_CODE, align 1, keep-with-next
    532          void SampleApp_SendHeartBeatMessageCoor(void) {
   \                     SampleApp_SendHeartBeatMessageCoor:
   \   000000   C082         PUSH    DPL
   \   000002   C083         PUSH    DPH
   \   000004                ; Saved register size: 2
   \   000004                ; Auto size: 3
   \   000004   74FD         MOV     A,#-0x3
   \   000006   12....       LCALL   ?ALLOC_XSTACK8
    533            // 遍历终端列表，将所有节点剩余时间-1，如果小于0，则置0
    534            uint8 heartBeatBuf[3] = {'#', 0x46, '@'};
   \   000009   85..82       MOV     DPL,?XSP + 0
   \   00000C   85..83       MOV     DPH,?XSP + 1
   \   00000F   AC82         MOV     R4,DPL
   \   000011   AD83         MOV     R5,DPH
   \   000013   7583..       MOV     DPH,#(`?<Constant {35, 70, 64}>` >> 8) & 0xff
   \   000016   7582..       MOV     DPL,#`?<Constant {35, 70, 64}>` & 0xff
   \   000019   7403         MOV     A,#0x3
   \   00001B   12....       LCALL   ?MOVE_LONG8_XDATA_XDATA
    535            mySendByteBuf(heartBeatBuf, 3);
   \   00001E                ; Setup parameters for call to function mySendByteBuf
   \   00001E   7C03         MOV     R4,#0x3
   \   000020   FD           MOV     R5,A
   \   000021   85..82       MOV     DPL,?XSP + 0
   \   000024   85..83       MOV     DPH,?XSP + 1
   \   000027   AA82         MOV     R2,DPL
   \   000029   AB83         MOV     R3,DPH
   \   00002B   12....       LCALL   ??mySendByteBuf?relay
    536            
    537            // 将终端列表中元素在线时长-1，如果检测到超时则将IEEE发送到上位机
    538            decAllListEPLeftSec(LL); 
   \   00002E                ; Setup parameters for call to function decAllListEPLeftSec
   \   00002E   90....       MOV     DPTR,#LL
   \   000031   E0           MOVX    A,@DPTR
   \   000032   FA           MOV     R2,A
   \   000033   A3           INC     DPTR
   \   000034   E0           MOVX    A,@DPTR
   \   000035   FB           MOV     R3,A
   \   000036   12....       LCALL   ??decAllListEPLeftSec?relay
    539            HalLedBlink(HAL_LED_1, 1, 50, 500);
   \   000039                ; Setup parameters for call to function HalLedBlink
   \   000039   7CF4         MOV     R4,#-0xc
   \   00003B   7D01         MOV     R5,#0x1
   \   00003D   7B32         MOV     R3,#0x32
   \   00003F   7A01         MOV     R2,#0x1
   \   000041   7901         MOV     R1,#0x1
   \   000043   12....       LCALL   ??HalLedBlink?relay
    540          #ifdef NEED_TEST_DIStANCE  
    541            // 发送稳定性测试数据到终端设备
    542            totalSendTestCount++;
    543            if(totalSendTestCount % 3 == 0) {
    544              SampleApp_SendPeriodicMessage(1);
    545              myprintf("sendTestCount = %d\n", totalSendTestCount); // 串口打印发送的次数
    546            }
    547          #endif  
    548          }
   \   000046   7403         MOV     A,#0x3
   \   000048   12....       LCALL   ?DEALLOC_XSTACK8
   \   00004B   D083         POP     DPH
   \   00004D   D082         POP     DPL
   \   00004F   02....       LJMP    ?BRET
    549          
    550          /**
    551            终端心跳函数，用于定时向协调器发送本机地址信息
    552          */

   \                                 In  segment BANKED_CODE, align 1, keep-with-next
    553          void SampleApp_SendHeartBeatMessageEnd(void) { 
   \                     SampleApp_SendHeartBeatMessageEnd:
   \   000000   74F4         MOV     A,#-0xc
   \   000002   12....       LCALL   ?BANKED_ENTER_XDATA
   \   000005                ; Saved register size: 12
   \   000005                ; Auto size: 12
   \   000005   74F4         MOV     A,#-0xc
   \   000007   12....       LCALL   ?ALLOC_XSTACK8
    554            AfSendAddrInfo(0x71);    
   \   00000A                ; Setup parameters for call to function AfSendAddrInfo
   \   00000A   7971         MOV     R1,#0x71
   \   00000C   12....       LCALL   ??AfSendAddrInfo?relay
    555            if(startRewardInterrupt == 1 && (osal_getClock() - lastRecvRewardSecTime) >= 2) { // 如果触发了奖励中断，且奖励结束距离当前时间大于指定时间则认为是一次奖励结束
   \   00000F   90....       MOV     DPTR,#startRewardInterrupt
   \   000012   E0           MOVX    A,@DPTR
   \   000013   6401         XRL     A,#0x1
   \   000015   6003         JZ      $+5
   \   000017   02....       LJMP    ??SampleApp_SendHeartBeatMessageEnd_0 & 0xFFFF
   \   00001A                ; Setup parameters for call to function osal_getClock
   \   00001A   12....       LCALL   ??osal_getClock?relay
   \   00001D   8A..         MOV     ?V0 + 0,R2
   \   00001F   8B..         MOV     ?V0 + 1,R3
   \   000021   8C..         MOV     ?V0 + 2,R4
   \   000023   8D..         MOV     ?V0 + 3,R5
   \   000025   90....       MOV     DPTR,#lastRecvRewardSecTime
   \   000028   78..         MOV     R0,#?V0 + 0
   \   00002A   12....       LCALL   ?L_SUB_X
   \   00002D   90....       MOV     DPTR,#__Constant_2
   \   000030   78..         MOV     R0,#?V0 + 0
   \   000032   12....       LCALL   ?UL_GE_X
   \   000035   4003         JC      $+5
   \   000037   02....       LJMP    ??SampleApp_SendHeartBeatMessageEnd_0 & 0xFFFF
    556              if(rewardCount == 0) {
   \   00003A   90....       MOV     DPTR,#rewardCount
   \   00003D   E0           MOVX    A,@DPTR
   \   00003E   7007         JNZ     ??SampleApp_SendHeartBeatMessageEnd_1
    557                startRewardInterrupt = 0; 
   \   000040   90....       MOV     DPTR,#startRewardInterrupt
   \   000043   E4           CLR     A
   \   000044   02....       LJMP    ??SampleApp_SendHeartBeatMessageEnd_2 & 0xFFFF
    558                return;
    559              }
    560              myprintf("Upload reward result count, rewardCount = %d\n", rewardCount);
   \                     ??SampleApp_SendHeartBeatMessageEnd_1:
   \   000047                ; Setup parameters for call to function myprintf
   \   000047   F5..         MOV     ?V0 + 0,A
   \   000049   75..00       MOV     ?V0 + 1,#0x0
   \   00004C   78..         MOV     R0,#?V0 + 0
   \   00004E   12....       LCALL   ?PUSH_XSTACK_I_TWO
   \   000051   7A..         MOV     R2,#`?<Constant "Upload reward result ...">` & 0xff
   \   000053   7B..         MOV     R3,#(`?<Constant "Upload reward result ...">` >> 8) & 0xff
   \   000055   12....       LCALL   ?Subroutine11 & 0xFFFF
   \                     ??CrossCallReturnLabel_16:
   \   000058   12....       LCALL   ?DEALLOC_XSTACK8
    561              uint8 strBuf[12] = {0};  
   \   00005B   85..82       MOV     DPL,?XSP + 0
   \   00005E   85..83       MOV     DPH,?XSP + 1
   \   000061   AC82         MOV     R4,DPL
   \   000063   AD83         MOV     R5,DPH
   \   000065   7583..       MOV     DPH,#(`?<Constant {0}>` >> 8) & 0xff
   \   000068   7582..       MOV     DPL,#`?<Constant {0}>` & 0xff
   \   00006B   740C         MOV     A,#0xc
   \   00006D   12....       LCALL   ?MOVE_LONG8_XDATA_XDATA
    562              // 通知服务器游戏结束，并将奖励彩票个数信息rewardCount发送到服务器
    563              strBuf[0] = '#';  // 发送数据的标识，便于协调器解析
   \   000070   85..82       MOV     DPL,?XSP + 0
   \   000073   85..83       MOV     DPH,?XSP + 1
   \   000076   7423         MOV     A,#0x23
   \   000078   F0           MOVX    @DPTR,A
    564              strBuf[1] = 0x73; // 消息类型标识
   \   000079   7401         MOV     A,#0x1
   \   00007B   12....       LCALL   ?XSTACK_DISP0_8
   \   00007E   7473         MOV     A,#0x73
   \   000080   F0           MOVX    @DPTR,A
    565              strBuf[2] = rewardCount; // 获取的奖励个数
   \   000081   90....       MOV     DPTR,#rewardCount
   \   000084   E0           MOVX    A,@DPTR
   \   000085   C0E0         PUSH    A
   \   000087   7402         MOV     A,#0x2
   \   000089   12....       LCALL   ?XSTACK_DISP0_8
   \   00008C   D0E0         POP     A
   \   00008E   12....       LCALL   ?Subroutine3 & 0xFFFF
    566              osal_memcpy(&strBuf[3], NLME_GetExtAddr(), 8); // 复制IEEE地址????????????????????????替换成机器玩家位置编号
   \                     ??CrossCallReturnLabel_0:
   \   000091   12....       LCALL   ?PUSH_XSTACK_I_THREE
   \   000094   7C08         MOV     R4,#0x8
   \   000096   7D00         MOV     R5,#0x0
   \   000098   7406         MOV     A,#0x6
   \   00009A   12....       LCALL   ?XSTACK_DISP0_8
   \   00009D   12....       LCALL   ?Subroutine9 & 0xFFFF
   \                     ??CrossCallReturnLabel_35:
   \   0000A0   12....       LCALL   ?DEALLOC_XSTACK8
    567              strBuf[11] = '@'; // 尾部字节
   \   0000A3   740B         MOV     A,#0xb
   \   0000A5   12....       LCALL   ?XSTACK_DISP0_8
   \   0000A8   12....       LCALL   ?Subroutine7 & 0xFFFF
    568              if ( AF_DataRequest( &SampleApp_TxAddr,                  // 发送的目的地址+端点地址+传送模式
    569                                  (endPointDesc_t *)&SampleApp_epDesc, // 源终端的描述
    570                                  SAMPLEAPP_PERIODIC_CLUSTERID,        // 被profile指定的有效的集群号
    571                                  12,                                  // 发送数据长度
    572                                  strBuf,                              // 发送数据缓冲区
    573                                  &SampleApp_TransID,                  // 消息发送ID
    574                                  AF_DISCV_ROUTE,                      // 有效位掩码的发送选项
    575                                  AF_DEFAULT_RADIUS ) != afStatus_SUCCESS ) // 传送跳数，通常设置为AF_DEFAULT_RADIUS
   \                     ??CrossCallReturnLabel_7:
   \   0000AB   12....       LCALL   ?PUSH_XSTACK_I_ONE
   \   0000AE   75....       MOV     ?V0 + 0,#SampleApp_TransID & 0xff
   \   0000B1   75....       MOV     ?V0 + 1,#(SampleApp_TransID >> 8) & 0xff
   \   0000B4   78..         MOV     R0,#?V0 + 0
   \   0000B6   12....       LCALL   ?PUSH_XSTACK_I_TWO
   \   0000B9   7403         MOV     A,#0x3
   \   0000BB   12....       LCALL   ?XSTACK_DISP0_8
   \   0000BE   8582..       MOV     ?V0 + 0,DPL
   \   0000C1   8583..       MOV     ?V0 + 1,DPH
   \   0000C4   78..         MOV     R0,#?V0 + 0
   \   0000C6   12....       LCALL   ?PUSH_XSTACK_I_TWO
   \   0000C9   75..0C       MOV     ?V0 + 0,#0xc
   \   0000CC   75..00       MOV     ?V0 + 1,#0x0
   \   0000CF   78..         MOV     R0,#?V0 + 0
   \   0000D1   12....       LCALL   ?PUSH_XSTACK_I_TWO
   \   0000D4   75..01       MOV     ?V0 + 0,#0x1
   \   0000D7   78..         MOV     R0,#?V0 + 0
   \   0000D9   12....       LCALL   ?PUSH_XSTACK_I_TWO
   \   0000DC   12....       LCALL   ?Subroutine14 & 0xFFFF
   \                     ??CrossCallReturnLabel_31:
   \   0000DF   12....       LCALL   ?DEALLOC_XSTACK8
   \   0000E2   E9           MOV     A,R1
   \   0000E3   6007         JZ      ??SampleApp_SendHeartBeatMessageEnd_3
    576              {
    577                myprintf("send gameover reward result failed\n");
   \   0000E5                ; Setup parameters for call to function myprintf
   \   0000E5   7A..         MOV     R2,#`?<Constant "send gameover reward ...">` & 0xff
   \   0000E7   7B..         MOV     R3,#(`?<Constant "send gameover reward ...">` >> 8) & 0xff
   \   0000E9   12....       LCALL   ??myprintf?relay
    578              }
    579              rewardCount = 0; // 置0
   \                     ??SampleApp_SendHeartBeatMessageEnd_3:
   \   0000EC   90....       MOV     DPTR,#rewardCount
   \   0000EF   E4           CLR     A
   \   0000F0   F0           MOVX    @DPTR,A
    580              startRewardInterrupt = 0;    
   \   0000F1   90....       MOV     DPTR,#startRewardInterrupt
   \                     ??SampleApp_SendHeartBeatMessageEnd_2:
   \   0000F4   F0           MOVX    @DPTR,A
   \                     ??SampleApp_SendHeartBeatMessageEnd_0:
   \   0000F5   740C         MOV     A,#0xc
    581            }
   \   0000F7   02....       LJMP    ?Subroutine1 & 0xFFFF
    582          }

   \                                 In  segment BANKED_CODE, align 1, keep-with-next
   \                     ?Subroutine14:
   \   000000   7920         MOV     R1,#0x20
   \   000002   7C..         MOV     R4,#SampleApp_epDesc & 0xff
   \   000004   7D..         MOV     R5,#(SampleApp_epDesc >> 8) & 0xff
   \   000006   7A..         MOV     R2,#SampleApp_TxAddr & 0xff
   \   000008   7B..         MOV     R3,#(SampleApp_TxAddr >> 8) & 0xff
   \   00000A                REQUIRE ??Subroutine18_0
   \   00000A                ; // Fall through to label ??Subroutine18_0

   \                                 In  segment BANKED_CODE, align 1, keep-with-next
   \                     ?Subroutine9:
   \   000000   AA82         MOV     R2,DPL
   \   000002   AB83         MOV     R3,DPH
   \   000004                REQUIRE ??Subroutine19_0
   \   000004                ; // Fall through to label ??Subroutine19_0

   \                                 In  segment BANKED_CODE, align 1, keep-with-next
   \                     ?Subroutine7:
   \   000000   7440         MOV     A,#0x40
   \   000002   F0           MOVX    @DPTR,A
   \   000003                ; Setup parameters for call to function AF_DataRequest
   \   000003                ; Setup parameters for call to function AF_DataRequest
   \   000003                ; Setup parameters for call to function AF_DataRequest
   \   000003   75..1E       MOV     ?V0 + 0,#0x1e
   \   000006   78..         MOV     R0,#?V0 + 0
   \   000008   22           RET

   \                                 In  segment BANKED_CODE, align 1, keep-with-next
   \                     ?Subroutine3:
   \   000000   F0           MOVX    @DPTR,A
   \   000001                ; Setup parameters for call to function osal_memcpy
   \   000001                ; Setup parameters for call to function NLME_GetExtAddr
   \   000001                ; Setup parameters for call to function osal_memcpy
   \   000001                ; Setup parameters for call to function NLME_GetExtAddr
   \   000001                ; Setup parameters for call to function osal_memcpy
   \   000001                ; Setup parameters for call to function NLME_GetExtAddr
   \   000001   12....       LCALL   ??NLME_GetExtAddr?relay
   \   000004   8A..         MOV     ?V0 + 0,R2
   \   000006   8B..         MOV     ?V0 + 1,R3
   \   000008   75..00       MOV     ?V0 + 2,#0x0
   \   00000B   78..         MOV     R0,#?V0 + 0
   \   00000D   22           RET
    583          
    584          /**
    585            发送终端地址信息到协调器，用于发送入网和心跳数据
    586          */

   \                                 In  segment BANKED_CODE, align 1, keep-with-next
    587          void AfSendAddrInfo(uint8 cmd) {
   \                     AfSendAddrInfo:
   \   000000   74F5         MOV     A,#-0xb
   \   000002   12....       LCALL   ?BANKED_ENTER_XDATA
   \   000005                ; Saved register size: 11
   \   000005                ; Auto size: 13
   \   000005   74F3         MOV     A,#-0xd
   \   000007   12....       LCALL   ?ALLOC_XSTACK8
   \   00000A   E9           MOV     A,R1
   \   00000B   FE           MOV     R6,A
    588            uint16 shortAddr;
    589            uint8 strBuf[13] = {0};
   \   00000C   85..82       MOV     DPL,?XSP + 0
   \   00000F   85..83       MOV     DPH,?XSP + 1
   \   000012   AC82         MOV     R4,DPL
   \   000014   AD83         MOV     R5,DPH
   \   000016   7583..       MOV     DPH,#(`?<Constant {0}>_1` >> 8) & 0xff
   \   000019   7582..       MOV     DPL,#`?<Constant {0}>_1` & 0xff
   \   00001C   740D         MOV     A,#0xd
   \   00001E   12....       LCALL   ?MOVE_LONG8_XDATA_XDATA
    590            
    591            shortAddr = NLME_GetShortAddr(); // 获取自身网络设备地址，获取父设备网络地址：uint16 NLME_GetCoordShortAddr( void );
   \   000021                ; Setup parameters for call to function NLME_GetShortAddr
   \   000021   12....       LCALL   ??NLME_GetShortAddr?relay
    592            strBuf[0] = '#';  // 发送数据的标识，便于协调器解析
   \   000024   85..82       MOV     DPL,?XSP + 0
   \   000027   85..83       MOV     DPH,?XSP + 1
   \   00002A   7423         MOV     A,#0x23
   \   00002C   F0           MOVX    @DPTR,A
    593            strBuf[1] = cmd; // 消息类型标识
   \   00002D   7401         MOV     A,#0x1
   \   00002F   12....       LCALL   ?XSTACK_DISP0_8
   \   000032   EE           MOV     A,R6
   \   000033   F0           MOVX    @DPTR,A
    594            strBuf[2] = HI_UINT16(shortAddr); // 存放地址的高8位
   \   000034   7402         MOV     A,#0x2
   \   000036   12....       LCALL   ?XSTACK_DISP0_8
   \   000039   EB           MOV     A,R3
   \   00003A   F0           MOVX    @DPTR,A
    595            strBuf[3] = LO_UINT16(shortAddr); // 存放低8位
   \   00003B   7403         MOV     A,#0x3
   \   00003D   12....       LCALL   ?XSTACK_DISP0_8
   \   000040   EA           MOV     A,R2
   \   000041   12....       LCALL   ?Subroutine3 & 0xFFFF
    596            osal_memcpy(&strBuf[4], NLME_GetExtAddr(), 8); // 复制IEEE地址
   \                     ??CrossCallReturnLabel_1:
   \   000044   12....       LCALL   ?PUSH_XSTACK_I_THREE
   \   000047   7C08         MOV     R4,#0x8
   \   000049   7D00         MOV     R5,#0x0
   \   00004B   7407         MOV     A,#0x7
   \   00004D   12....       LCALL   ?XSTACK_DISP0_8
   \   000050   12....       LCALL   ?Subroutine9 & 0xFFFF
   \                     ??CrossCallReturnLabel_36:
   \   000053   12....       LCALL   ?DEALLOC_XSTACK8
    597            strBuf[12] = '@'; // 尾部字节
   \   000056   740C         MOV     A,#0xc
   \   000058   12....       LCALL   ?XSTACK_DISP0_8
   \   00005B   12....       LCALL   ?Subroutine7 & 0xFFFF
    598            if ( AF_DataRequest( &SampleApp_TxAddr,                  // 发送的目的地址+端点地址+传送模式
    599                                (endPointDesc_t *)&SampleApp_epDesc, // 源终端的描述
    600                                SAMPLEAPP_PERIODIC_CLUSTERID,        // 被profile指定的有效的集群号
    601                                13,                                  // 发送数据长度
    602                                strBuf,                              // 发送数据缓冲区
    603                                &SampleApp_TransID,                  // 消息发送ID
    604                                AF_DISCV_ROUTE,                      // 有效位掩码的发送选项
    605                                AF_DEFAULT_RADIUS ) != afStatus_SUCCESS ) // 传送跳数，通常设置为AF_DEFAULT_RADIUS
   \                     ??CrossCallReturnLabel_8:
   \   00005E   12....       LCALL   ?PUSH_XSTACK_I_ONE
   \   000061   75....       MOV     ?V0 + 0,#SampleApp_TransID & 0xff
   \   000064   75....       MOV     ?V0 + 1,#(SampleApp_TransID >> 8) & 0xff
   \   000067   78..         MOV     R0,#?V0 + 0
   \   000069   12....       LCALL   ?PUSH_XSTACK_I_TWO
   \   00006C   7403         MOV     A,#0x3
   \   00006E   12....       LCALL   ?XSTACK_DISP0_8
   \   000071   8582..       MOV     ?V0 + 0,DPL
   \   000074   8583..       MOV     ?V0 + 1,DPH
   \   000077   78..         MOV     R0,#?V0 + 0
   \   000079   12....       LCALL   ?PUSH_XSTACK_I_TWO
   \   00007C   75..0D       MOV     ?V0 + 0,#0xd
   \   00007F   75..00       MOV     ?V0 + 1,#0x0
   \   000082   78..         MOV     R0,#?V0 + 0
   \   000084   12....       LCALL   ?PUSH_XSTACK_I_TWO
   \   000087   75..01       MOV     ?V0 + 0,#0x1
   \   00008A   78..         MOV     R0,#?V0 + 0
   \   00008C   12....       LCALL   ?PUSH_XSTACK_I_TWO
   \   00008F   12....       LCALL   ?Subroutine14 & 0xFFFF
   \                     ??CrossCallReturnLabel_32:
   \   000092   12....       LCALL   ?DEALLOC_XSTACK8
   \   000095   E9           MOV     A,R1
   \   000096   6013         JZ      ??AfSendAddrInfo_0
    606            {
    607              myprintf("send cmd = 0x%x failed\n", cmd); 
   \   000098                ; Setup parameters for call to function myprintf
   \   000098   8E..         MOV     ?V0 + 0,R6
   \   00009A   78..         MOV     R0,#?V0 + 0
   \   00009C   12....       LCALL   ?PUSH_XSTACK_I_TWO
   \   00009F   7A..         MOV     R2,#`?<Constant "send cmd = 0x%x failed\\n">` & 0xff
   \   0000A1   7B..         MOV     R3,#(`?<Constant "send cmd = 0x%x failed\\n">` >> 8) & 0xff
   \   0000A3   12....       LCALL   ?Subroutine11 & 0xFFFF
    608            } else {
   \                     ??CrossCallReturnLabel_17:
   \   0000A6   12....       LCALL   ?DEALLOC_XSTACK8
   \   0000A9   800D         SJMP    ??AfSendAddrInfo_1
    609              HalLedBlink(HAL_LED_1, 1, 50, 500); // 发送成功正常闪烁一次
   \                     ??AfSendAddrInfo_0:
   \   0000AB                ; Setup parameters for call to function HalLedBlink
   \   0000AB   7CF4         MOV     R4,#-0xc
   \   0000AD   7D01         MOV     R5,#0x1
   \   0000AF   7B32         MOV     R3,#0x32
   \   0000B1   7A01         MOV     R2,#0x1
   \   0000B3   7901         MOV     R1,#0x1
   \   0000B5   12....       LCALL   ??HalLedBlink?relay
    610            }
    611          }
   \                     ??AfSendAddrInfo_1:
   \   0000B8   740D         MOV     A,#0xd
   \   0000BA   02....       LJMP    ?Subroutine0 & 0xFFFF

   \                                 In  segment BANKED_CODE, align 1, keep-with-next
   \                     ?Subroutine0:
   \   000000   12....       LCALL   ?DEALLOC_XSTACK8
   \   000003                REQUIRE ??Subroutine20_0
   \   000003                ; // Fall through to label ??Subroutine20_0
    612          
    613          /**
    614            终端发送已经收到投币开始游戏命令
    615          */

   \                                 In  segment BANKED_CODE, align 1, keep-with-next
    616          void AfReplyGetCoinCmd(void) {
   \                     AfReplyGetCoinCmd:
   \   000000   74F5         MOV     A,#-0xb
   \   000002   12....       LCALL   ?BANKED_ENTER_XDATA
   \   000005                ; Saved register size: 11
   \   000005                ; Auto size: 11
   \   000005   74F5         MOV     A,#-0xb
   \   000007   12....       LCALL   ?ALLOC_XSTACK8
    617            uint8 strBuf[11] = {0};  
   \   00000A   85..82       MOV     DPL,?XSP + 0
   \   00000D   85..83       MOV     DPH,?XSP + 1
   \   000010   AC82         MOV     R4,DPL
   \   000012   AD83         MOV     R5,DPH
   \   000014   7583..       MOV     DPH,#(`?<Constant {0}>_2` >> 8) & 0xff
   \   000017   7582..       MOV     DPL,#`?<Constant {0}>_2` & 0xff
   \   00001A   740B         MOV     A,#0xb
   \   00001C   12....       LCALL   ?MOVE_LONG8_XDATA_XDATA
    618            
    619            strBuf[0] = '#';  // 发送数据的标识，便于协调器解析
   \   00001F   85..82       MOV     DPL,?XSP + 0
   \   000022   85..83       MOV     DPH,?XSP + 1
   \   000025   7423         MOV     A,#0x23
   \   000027   F0           MOVX    @DPTR,A
    620            strBuf[1] = 0x72; // 消息类型标识
   \   000028   7401         MOV     A,#0x1
   \   00002A   12....       LCALL   ?XSTACK_DISP0_8
   \   00002D   7472         MOV     A,#0x72
   \   00002F   12....       LCALL   ?Subroutine3 & 0xFFFF
    621            osal_memcpy(&strBuf[2], NLME_GetExtAddr(), 8); // 复制IEEE地址
   \                     ??CrossCallReturnLabel_2:
   \   000032   12....       LCALL   ?PUSH_XSTACK_I_THREE
   \   000035   7C08         MOV     R4,#0x8
   \   000037   7D00         MOV     R5,#0x0
   \   000039   7405         MOV     A,#0x5
   \   00003B   12....       LCALL   ?XSTACK_DISP0_8
   \   00003E   12....       LCALL   ?Subroutine9 & 0xFFFF
   \                     ??CrossCallReturnLabel_37:
   \   000041   12....       LCALL   ?DEALLOC_XSTACK8
    622            strBuf[10] = '@'; // 尾部字节
   \   000044   740A         MOV     A,#0xa
   \   000046   12....       LCALL   ?XSTACK_DISP0_8
   \   000049   12....       LCALL   ?Subroutine7 & 0xFFFF
    623            if ( AF_DataRequest( &SampleApp_TxAddr,                  // 发送的目的地址+端点地址+传送模式
    624                                (endPointDesc_t *)&SampleApp_epDesc, // 源终端的描述
    625                                SAMPLEAPP_PERIODIC_CLUSTERID,        // 被profile指定的有效的集群号
    626                                11,                                  // 发送数据长度
    627                                strBuf,                              // 发送数据缓冲区
    628                                &SampleApp_TransID,                  // 消息发送ID
    629                                AF_DISCV_ROUTE,                      // 有效位掩码的发送选项
    630                                AF_DEFAULT_RADIUS ) != afStatus_SUCCESS ) // 传送跳数，通常设置为AF_DEFAULT_RADIUS
   \                     ??CrossCallReturnLabel_9:
   \   00004C   12....       LCALL   ?PUSH_XSTACK_I_ONE
   \   00004F   75....       MOV     ?V0 + 0,#SampleApp_TransID & 0xff
   \   000052   75....       MOV     ?V0 + 1,#(SampleApp_TransID >> 8) & 0xff
   \   000055   78..         MOV     R0,#?V0 + 0
   \   000057   12....       LCALL   ?PUSH_XSTACK_I_TWO
   \   00005A   7403         MOV     A,#0x3
   \   00005C   12....       LCALL   ?XSTACK_DISP0_8
   \   00005F   8582..       MOV     ?V0 + 0,DPL
   \   000062   8583..       MOV     ?V0 + 1,DPH
   \   000065   78..         MOV     R0,#?V0 + 0
   \   000067   12....       LCALL   ?PUSH_XSTACK_I_TWO
   \   00006A   75..0B       MOV     ?V0 + 0,#0xb
   \   00006D   75..00       MOV     ?V0 + 1,#0x0
   \   000070   78..         MOV     R0,#?V0 + 0
   \   000072   12....       LCALL   ?PUSH_XSTACK_I_TWO
   \   000075   75..01       MOV     ?V0 + 0,#0x1
   \   000078   78..         MOV     R0,#?V0 + 0
   \   00007A   12....       LCALL   ?PUSH_XSTACK_I_TWO
   \   00007D   12....       LCALL   ?Subroutine14 & 0xFFFF
   \                     ??CrossCallReturnLabel_33:
   \   000080   12....       LCALL   ?DEALLOC_XSTACK8
   \   000083   E9           MOV     A,R1
   \   000084   6007         JZ      ??AfReplyGetCoinCmd_0
    631            {
    632              myprintf("end_device send recved coin cmd failed\n");
   \   000086                ; Setup parameters for call to function myprintf
   \   000086   7A..         MOV     R2,#`?<Constant "end_device send recve...">` & 0xff
   \   000088   7B..         MOV     R3,#(`?<Constant "end_device send recve...">` >> 8) & 0xff
   \   00008A   12....       LCALL   ??myprintf?relay
    633            }
    634          }
   \                     ??AfReplyGetCoinCmd_0:
   \   00008D   740B         MOV     A,#0xb
   \   00008F   02....       LJMP    ?Subroutine0 & 0xFFFF
    635          
    636          /**
    637            协调器打印终端上传的长短地址
    638          */

   \                                 In  segment BANKED_CODE, align 1, keep-with-next
    639          void printAddrInfoHex(uint8* buf, uint8 dataLen) {
   \                     printAddrInfoHex:
   \   000000   74F3         MOV     A,#-0xd
   \   000002   12....       LCALL   ?BANKED_ENTER_XDATA
   \   000005                ; Saved register size: 13
   \   000005                ; Auto size: 0
   \   000005   EA           MOV     A,R2
   \   000006   FE           MOV     R6,A
   \   000007   EB           MOV     A,R3
   \   000008   FF           MOV     R7,A
   \   000009   89..         MOV     ?V0 + 4,R1
    640            int i = 0;
    641            
    642            myprintf("\n");
   \   00000B                ; Setup parameters for call to function myprintf
   \   00000B   7A..         MOV     R2,#`?<Constant "\\n">` & 0xff
   \   00000D   7B..         MOV     R3,#(`?<Constant "\\n">` >> 8) & 0xff
   \   00000F   12....       LCALL   ??myprintf?relay
    643            for(i = 0; i < dataLen; i++) {
   \   000012   75..00       MOV     ?V0 + 0,#0x0
   \   000015   75..00       MOV     ?V0 + 1,#0x0
   \   000018   8037         SJMP    ??printAddrInfoHex_0
    644              if(i == 2) {
   \                     ??printAddrInfoHex_1:
   \   00001A   7402         MOV     A,#0x2
   \   00001C   65..         XRL     A,?V0 + 0
   \   00001E   7002         JNZ     ??printAddrInfoHex_2
   \   000020   E5..         MOV     A,?V0 + 1
   \                     ??printAddrInfoHex_2:
   \   000022   7007         JNZ     ??printAddrInfoHex_3
    645                myprintf("; IEEE = ");
   \   000024                ; Setup parameters for call to function myprintf
   \   000024   7A..         MOV     R2,#`?<Constant "; IEEE = ">` & 0xff
   \   000026   7B..         MOV     R3,#(`?<Constant "; IEEE = ">` >> 8) & 0xff
   \   000028   12....       LCALL   ??myprintf?relay
    646              }
    647              myprintf("0x%x,", buf[i]);
   \                     ??printAddrInfoHex_3:
   \   00002B                ; Setup parameters for call to function myprintf
   \   00002B   EE           MOV     A,R6
   \   00002C   25..         ADD     A,?V0 + 0
   \   00002E   F582         MOV     DPL,A
   \   000030   EF           MOV     A,R7
   \   000031   35..         ADDC    A,?V0 + 1
   \   000033   F583         MOV     DPH,A
   \   000035   12....       LCALL   ?Subroutine10 & 0xFFFF
    648            }
   \                     ??CrossCallReturnLabel_13:
   \   000038   12....       LCALL   ?PUSH_XSTACK_I_TWO
   \   00003B   7A..         MOV     R2,#`?<Constant "0x%x,">` & 0xff
   \   00003D   7B..         MOV     R3,#(`?<Constant "0x%x,">` >> 8) & 0xff
   \   00003F   12....       LCALL   ?Subroutine11 & 0xFFFF
   \                     ??CrossCallReturnLabel_18:
   \   000042   12....       LCALL   ?DEALLOC_XSTACK8
   \   000045   E5..         MOV     A,?V0 + 0
   \   000047   2401         ADD     A,#0x1
   \   000049   F5..         MOV     ?V0 + 0,A
   \   00004B   E5..         MOV     A,?V0 + 1
   \   00004D   3400         ADDC    A,#0x0
   \   00004F   F5..         MOV     ?V0 + 1,A
   \                     ??printAddrInfoHex_0:
   \   000051   85....       MOV     ?V0 + 2,?V0 + 4
   \   000054   C3           CLR     C
   \   000055   E5..         MOV     A,?V0 + 0
   \   000057   95..         SUBB    A,?V0 + 2
   \   000059   E5..         MOV     A,?V0 + 1
   \   00005B   9400         SUBB    A,#0x0
   \   00005D   A2D2         MOV     C,0xD0 /* PSW */.2
   \   00005F   65D0         XRL     A,PSW
   \   000061   33           RLC     A
   \   000062   40B6         JC      ??printAddrInfoHex_1
    649            myprintf("\n");
   \   000064                ; Setup parameters for call to function myprintf
   \   000064   7A..         MOV     R2,#`?<Constant "\\n">` & 0xff
   \   000066   7B..         MOV     R3,#(`?<Constant "\\n">` >> 8) & 0xff
   \   000068   12....       LCALL   ??myprintf?relay
    650          }
   \   00006B   7F05         MOV     R7,#0x5
   \   00006D   02....       LJMP    ?BANKED_LEAVE_XDATA
    651          
    652          /**
    653            将十六进制数转变成字符
    654          */

   \                                 In  segment BANKED_CODE, align 1, keep-with-next
    655          void convertHexToStrLCD(uint16 addr, uint8 lcdLineNum) {
   \                     convertHexToStrLCD:
   \   000000   74F5         MOV     A,#-0xb
   \   000002   12....       LCALL   ?BANKED_ENTER_XDATA
   \   000005                ; Saved register size: 11
   \   000005                ; Auto size: 7
   \   000005   74F9         MOV     A,#-0x7
   \   000007   12....       LCALL   ?ALLOC_XSTACK8
   \   00000A   7405         MOV     A,#0x5
   \   00000C   12....       LCALL   ?XSTACK_DISP0_8
   \   00000F   EA           MOV     A,R2
   \   000010   F0           MOVX    @DPTR,A
   \   000011   A3           INC     DPTR
   \   000012   EB           MOV     A,R3
   \   000013   F0           MOVX    @DPTR,A
   \   000014   E9           MOV     A,R1
   \   000015   FE           MOV     R6,A
    656            uint8 i;
    657            uint8 *xad;
    658            uint8 lcd_buf[2*2+1];
    659          
    660            // Display the extended address.
    661            xad = (uint8*)&addr + 2 - 1;
   \   000016   A882         MOV     R0,DPL
   \   000018   A983         MOV     R1,DPH
    662          
    663            for (i = 0; i < 2*2; xad--)
   \   00001A   7C00         MOV     R4,#0x0
    664            {
    665              uint8 ch;
    666              ch = (*xad >> 4) & 0x0F;
   \                     ??convertHexToStrLCD_0:
   \   00001C   8882         MOV     DPL,R0
   \   00001E   8983         MOV     DPH,R1
   \   000020   E0           MOVX    A,@DPTR
   \   000021   C4           SWAP    A
   \   000022   540F         ANL     A,#0xf
   \   000024   FD           MOV     R5,A
    667              lcd_buf[i++] = ch + (( ch < 10 ) ? '0' : '7'); // +7可以转变成大写字符ABCDEF
   \   000025   EC           MOV     A,R4
   \   000026   FF           MOV     R7,A
   \   000027   0C           INC     R4
   \   000028   ED           MOV     A,R5
   \   000029   C3           CLR     C
   \   00002A   940A         SUBB    A,#0xa
   \   00002C   5004         JNC     ??convertHexToStrLCD_1
   \   00002E   7A30         MOV     R2,#0x30
   \   000030   8002         SJMP    ??convertHexToStrLCD_2
   \                     ??convertHexToStrLCD_1:
   \   000032   7A37         MOV     R2,#0x37
   \                     ??convertHexToStrLCD_2:
   \   000034   EA           MOV     A,R2
   \   000035   2D           ADD     A,R5
   \   000036   C0E0         PUSH    A
   \   000038   8F..         MOV     ?V0 + 0,R7
   \   00003A   12....       LCALL   ?Subroutine12 & 0xFFFF
   \                     ??CrossCallReturnLabel_19:
   \   00003D   D0E0         POP     A
   \   00003F   F0           MOVX    @DPTR,A
    668              ch = *xad & 0x0F;
   \   000040   8882         MOV     DPL,R0
   \   000042   8983         MOV     DPH,R1
   \   000044   E0           MOVX    A,@DPTR
   \   000045   540F         ANL     A,#0xf
   \   000047   FD           MOV     R5,A
    669              lcd_buf[i++] = ch + (( ch < 10 ) ? '0' : '7');
   \   000048   8C..         MOV     ?V0 + 2,R4
   \   00004A   0C           INC     R4
   \   00004B   C3           CLR     C
   \   00004C   940A         SUBB    A,#0xa
   \   00004E   5004         JNC     ??convertHexToStrLCD_3
   \   000050   7A30         MOV     R2,#0x30
   \   000052   8002         SJMP    ??convertHexToStrLCD_4
   \                     ??convertHexToStrLCD_3:
   \   000054   7A37         MOV     R2,#0x37
   \                     ??convertHexToStrLCD_4:
   \   000056   EA           MOV     A,R2
   \   000057   2D           ADD     A,R5
   \   000058   C0E0         PUSH    A
   \   00005A   85....       MOV     ?V0 + 0,?V0 + 2
   \   00005D   12....       LCALL   ?Subroutine12 & 0xFFFF
    670            }
   \                     ??CrossCallReturnLabel_20:
   \   000060   D0E0         POP     A
   \   000062   F0           MOVX    @DPTR,A
   \   000063   E8           MOV     A,R0
   \   000064   24FF         ADD     A,#-0x1
   \   000066   18           DEC     R0
   \   000067   E9           MOV     A,R1
   \   000068   34FF         ADDC    A,#-0x1
   \   00006A   F9           MOV     R1,A
   \   00006B   EC           MOV     A,R4
   \   00006C   C3           CLR     C
   \   00006D   9404         SUBB    A,#0x4
   \   00006F   40AB         JC      ??convertHexToStrLCD_0
    671            lcd_buf[2*2] = '\0';
   \   000071   7404         MOV     A,#0x4
   \   000073   12....       LCALL   ?XSTACK_DISP0_8
   \   000076   E4           CLR     A
   \   000077   F0           MOVX    @DPTR,A
    672            HalLcdWriteString( (char*)lcd_buf, lcdLineNum);
   \   000078                ; Setup parameters for call to function HalLcdWriteString
   \   000078   EE           MOV     A,R6
   \   000079   F9           MOV     R1,A
   \   00007A   85..82       MOV     DPL,?XSP + 0
   \   00007D   85..83       MOV     DPH,?XSP + 1
   \   000080   AA82         MOV     R2,DPL
   \   000082   AB83         MOV     R3,DPH
   \   000084   12....       LCALL   ??HalLcdWriteString?relay
    673          }
   \   000087   7407         MOV     A,#0x7
   \   000089                REQUIRE ?Subroutine0
   \   000089                ; // Fall through to label ?Subroutine0

   \                                 In  segment BANKED_CODE, align 1, keep-with-next
   \                     ?Subroutine12:
   \   000000   85..82       MOV     DPL,?XSP + 0
   \   000003   85..83       MOV     DPH,?XSP + 1
   \   000006   E582         MOV     A,DPL
   \   000008   25..         ADD     A,?V0 + 0
   \   00000A   F582         MOV     DPL,A
   \   00000C   E583         MOV     A,DPH
   \   00000E   3400         ADDC    A,#0x0
   \   000010   F583         MOV     DPH,A
   \   000012   22           RET

   \                                 In  segment INTVEC, offset 0x6b, root
   \                     `??port0Isr??INTVEC 107`:
   \   00006B   02....       LJMP       (port0Isr)

   \                                 In  segment XDATA_ID, align 1, keep-with-next
   \                     `?<Initializer for pre_coin_pin_value>`:
   \   000000   01           DB 1

   \                                 In  segment XDATA_ID, align 1, keep-with-next
   \                     `?<Initializer for coin_pin_value>`:
   \   000000   01           DB 1

   \                                 In  segment XDATA_ID, align 1, keep-with-next
   \                     `?<Initializer for pre_reward_pin_value>`:
   \   000000   01           DB 1

   \                                 In  segment XDATA_ID, align 1, keep-with-next
   \                     `?<Initializer for reward_pin_value>`:
   \   000000   01           DB 1

   \                                 In  segment BANK_RELAYS, align 1
   \                     ??SampleApp_Init?relay:
   \   000000   12....       LCALL   ?BDISPATCH
   \   000003   ......       DC24    SampleApp_Init

   \                                 In  segment BANK_RELAYS, align 1
   \                     ??SampleApp_ProcessEvent?relay:
   \   000000   12....       LCALL   ?BDISPATCH
   \   000003   ......       DC24    SampleApp_ProcessEvent

   \                                 In  segment BANK_RELAYS, align 1
   \                     ??SampleApp_HandleKeys?relay:
   \   000000   12....       LCALL   ?BDISPATCH
   \   000003   ......       DC24    SampleApp_HandleKeys

   \                                 In  segment BANK_RELAYS, align 1
   \                     ??SampleApp_MessageMSGCB?relay:
   \   000000   12....       LCALL   ?BDISPATCH
   \   000003   ......       DC24    SampleApp_MessageMSGCB

   \                                 In  segment BANK_RELAYS, align 1
   \                     ??SampleApp_SendPeriodicMessage?relay:
   \   000000   12....       LCALL   ?BDISPATCH
   \   000003   ......       DC24    SampleApp_SendPeriodicMessage

   \                                 In  segment BANK_RELAYS, align 1
   \                     ??SampleApp_SendHeartBeatMessageCoor?relay:
   \   000000   12....       LCALL   ?BDISPATCH
   \   000003   ......       DC24    SampleApp_SendHeartBeatMessageCoor

   \                                 In  segment BANK_RELAYS, align 1
   \                     ??SampleApp_SendHeartBeatMessageEnd?relay:
   \   000000   12....       LCALL   ?BDISPATCH
   \   000003   ......       DC24    SampleApp_SendHeartBeatMessageEnd

   \                                 In  segment BANK_RELAYS, align 1
   \                     ??AfSendAddrInfo?relay:
   \   000000   12....       LCALL   ?BDISPATCH
   \   000003   ......       DC24    AfSendAddrInfo

   \                                 In  segment BANK_RELAYS, align 1
   \                     ??AfReplyGetCoinCmd?relay:
   \   000000   12....       LCALL   ?BDISPATCH
   \   000003   ......       DC24    AfReplyGetCoinCmd

   \                                 In  segment BANK_RELAYS, align 1
   \                     ??printAddrInfoHex?relay:
   \   000000   12....       LCALL   ?BDISPATCH
   \   000003   ......       DC24    printAddrInfoHex

   \                                 In  segment BANK_RELAYS, align 1
   \                     ??convertHexToStrLCD?relay:
   \   000000   12....       LCALL   ?BDISPATCH
   \   000003   ......       DC24    convertHexToStrLCD

   \                                 In  segment XDATA_ROM_C, align 1
   \                     `?<Constant "\\nP0_6=%d">`:
   \   000000   0A50305F     DB "\012P0_6=%d"
   \            363D2564
   \            00      

   \                                 In  segment XDATA_ROM_C, align 1
   \                     `?<Constant "Group 1">`:
   \   000000   47726F75     DB "Group 1"
   \            70203100

   \                                 In  segment XDATA_ROM_C, align 1
   \                     `?<Constant "UartInit OK\\n">`:
   \   000000   55617274     DB "UartInit OK\012"
   \            496E6974
   \            204F4B0A
   \            00      

   \                                 In  segment XDATA_ROM_C, align 1
   \                     `?<Constant {35, 69, 64}>`:
   \   000000   23           DB 35
   \   000001   45           DB 69
   \   000002   40           DB 64

   \                                 In  segment XDATA_ROM_C, align 1
   \                     `?<Constant "Got ERROR:AF_DATA_CON...">`:
   \   000000   476F7420     DB "Got ERROR:AF_DATA_CONFIRM_CMD failed\012"
   \            4552524F
   \            523A4146
   \            5F444154
   \            415F434F
   \            4E464952
   \            4D5F434D
   \            44206661
   \            696C6564
   \            0A00    

   \                                 In  segment XDATA_ROM_C, align 1
   \                     `?<Constant "unknown pkg-event = 0...">`:
   \   000000   756E6B6E     DB "unknown pkg-event = 0x%x\012"
   \            6F776E20
   \            706B672D
   \            6576656E
   \            74203D20
   \            30782578
   \            0A00    

   \                                 In  segment XDATA_ROM_C, align 1
   \                     `?<Constant "Get COIN_MSG_EVT, Nee...">`:
   \   000000   47657420     DB 47H, 65H, 74H, 20H, 43H, 4FH, 49H, 4EH
   \            434F494E
   \   000008   5F4D5347     DB 5FH, 4DH, 53H, 47H, 5FH, 45H, 56H, 54H
   \            5F455654
   \   000010   2C204E65     DB 2CH, 20H, 4EH, 65H, 65H, 64H, 43H, 6FH
   \            6564436F
   \   000018   696E4465     DB 69H, 6EH, 44H, 65H, 6CH, 69H, 76H, 65H
   \            6C697665
   \   000020   72656420     DB 72H, 65H, 64H, 20H, 3DH, 20H, 25H, 64H
   \            3D202564
   \   000028   2C206576     DB 2CH, 20H, 65H, 76H, 65H, 6EH, 74H, 73H
   \            656E7473
   \   000030   203D2030     DB 20H, 3DH, 20H, 30H, 78H, 25H, 78H, 0AH
   \            7825780A
   \   000038   00           DB 0

   \                                 In  segment XDATA_ROM_C, align 1
   \                     `?<Constant "NeedCoinDelivered = %d\\n">`:
   \   000000   4E656564     DB "NeedCoinDelivered = %d\012"
   \            436F696E
   \            44656C69
   \            76657265
   \            64203D20
   \            25640A00

   \                                 In  segment XDATA_ROM_C, align 1
   \                     `?<Constant {35, 49, 0, 64}>`:
   \   000000   23           DB 35
   \   000001   31           DB 49
   \   000002   00           DB 0
   \   000003   40           DB 64

   \                                 In  segment XDATA_ROM_C, align 1
   \                     `?<Constant "SampleApp_SendPeriodi...">`:
   \   000000   53616D70     DB "SampleApp_SendPeriodicMessage() failed\012"
   \            6C654170
   \            705F5365
   \            6E645065
   \            72696F64
   \            69634D65
   \            73736167
   \            65282920
   \            6661696C
   \            65640A00

   \                                 In  segment XDATA_ROM_C, align 1
   \                     `?<Constant {35, 70, 64}>`:
   \   000000   23           DB 35
   \   000001   46           DB 70
   \   000002   40           DB 64

   \                                 In  segment XDATA_ROM_C, align 1
   \                     `?<Constant "Upload reward result ...">`:
   \   000000   55706C6F     DB "Upload reward result count, rewardCount = %d\012"
   \            61642072
   \            65776172
   \            64207265
   \            73756C74
   \            20636F75
   \            6E742C20
   \            72657761
   \            7264436F
   \            756E7420
   \            3D202564
   \            0A00    

   \                                 In  segment XDATA_ROM_C, align 1
   \                     `?<Constant {0}>`:
   \   000000   00           DB 0
   \   000001   00000000     DB 0, 0, 0, 0, 0, 0, 0, 0
   \            00000000
   \   000009   000000       DB 0, 0, 0

   \                                 In  segment XDATA_ROM_C, align 1
   \                     `?<Constant "send gameover reward ...">`:
   \   000000   73656E64     DB "send gameover reward result failed\012"
   \            2067616D
   \            656F7665
   \            72207265
   \            77617264
   \            20726573
   \            756C7420
   \            6661696C
   \            65640A00

   \                                 In  segment XDATA_ROM_C, align 1
   \                     `?<Constant {0}>_1`:
   \   000000   00           DB 0
   \   000001   00000000     DB 0, 0, 0, 0, 0, 0, 0, 0
   \            00000000
   \   000009   00000000     DB 0, 0, 0, 0

   \                                 In  segment XDATA_ROM_C, align 1
   \                     `?<Constant "send cmd = 0x%x failed\\n">`:
   \   000000   73656E64     DB "send cmd = 0x%x failed\012"
   \            20636D64
   \            203D2030
   \            78257820
   \            6661696C
   \            65640A00

   \                                 In  segment XDATA_ROM_C, align 1
   \                     `?<Constant {0}>_2`:
   \   000000   00           DB 0
   \   000001   00000000     DB 0, 0, 0, 0, 0, 0, 0, 0
   \            00000000
   \   000009   0000         DB 0, 0

   \                                 In  segment XDATA_ROM_C, align 1
   \                     `?<Constant "end_device send recve...">`:
   \   000000   656E645F     DB "end_device send recved coin cmd failed\012"
   \            64657669
   \            63652073
   \            656E6420
   \            72656376
   \            65642063
   \            6F696E20
   \            636D6420
   \            6661696C
   \            65640A00

   \                                 In  segment XDATA_ROM_C, align 1
   \                     `?<Constant "\\n">`:
   \   000000   0A00         DB "\012"

   \                                 In  segment XDATA_ROM_C, align 1
   \                     `?<Constant "; IEEE = ">`:
   \   000000   3B204945     DB "; IEEE = "
   \            4545203D
   \            2000    

   \                                 In  segment XDATA_ROM_C, align 1
   \                     `?<Constant "0x%x,">`:
   \   000000   30782578     DB "0x%x,"
   \            2C00    

   \                                 In  segment XDATA_ROM_C, align 1
   \                     __Constant_2:
   \   000000   02000000     DD 2

   Maximum stack usage in bytes:

     Function                       ISTACK PSTACK XSTACK
     --------                       ------ ------ ------
     AfReplyGetCoinCmd                  2      0     41
       -> NLME_GetExtAddr               0      0     44
       -> osal_memcpy                   0      0     50
       -> AF_DataRequest                0      0     62
       -> myprintf                      0      0     44
     AfSendAddrInfo                     2      0     57
       -> NLME_GetShortAddr             0      0     48
       -> NLME_GetExtAddr               0      0     48
       -> osal_memcpy                   0      0     54
       -> AF_DataRequest                0      0     66
       -> myprintf                      0      0     52
       -> HalLedBlink                   0      0     48
     SampleApp_HandleKeys               0      0      0
     SampleApp_Init                     0      0     14
       -> afRegister                    0      0     22
       -> RegisterForKeys               0      0     22
       -> osal_memcpy                   0      0     28
       -> aps_AddGroup                  0      0     22
       -> MT_UartInit                   0      0     22
       -> MT_UartRegisterTaskID         0      0     22
       -> myprintf                      0      0     22
     SampleApp_MessageMSGCB             0      0     27
       -> osal_start_timerEx            0      0     20
       -> AfReplyGetCoinCmd             0      0     20
       -> myprintf                      0      0     24
       -> HalLedBlink                   0      0     20
     SampleApp_ProcessEvent             2      0     19
       -> osal_msg_receive              0      0     30
       -> myprintf                      0      0     34
       -> osal_msg_deallocate           0      0     30
       -> osal_msg_receive              0      0     30
       -> myprintf                      0      0     30
       -> SampleApp_MessageMSGCB        0      0     30
       -> mySendByteBuf                 0      0     30
       -> osal_start_timerEx            0      0     30
       -> HalLedBlink                   0      0     30
       -> HalLedBlink                   0      0     30
       -> AfSendAddrInfo                0      0     30
       -> HalLedBlink                   0      0     30
       -> osal_start_timerEx            0      0     30
       -> SampleApp_SendHeartBeatMessageEnd
                                        0      0     30
       -> osal_start_timerEx            0      0     30
       -> myprintf                      0      0     38
       -> osal_start_timerEx            0      0     30
       -> osal_start_timerEx            0      0     30
     SampleApp_SendHeartBeatMessageCoor
                                        4      0      3
       -> mySendByteBuf                 4      0      6
       -> decAllListEPLeftSec           4      0      6
       -> HalLedBlink                   4      0      6
     SampleApp_SendHeartBeatMessageEnd
                                        2      0     48
       -> AfSendAddrInfo                0      0     48
       -> osal_getClock                 0      0     48
       -> myprintf                      0      0     52
       -> NLME_GetExtAddr               0      0     48
       -> osal_memcpy                   0      0     54
       -> AF_DataRequest                0      0     66
       -> myprintf                      0      0     48
     SampleApp_SendPeriodicMessage      2      0     23
       -> AF_DataRequest                0      0     46
       -> HalLedBlink                   0      0     28
       -> myprintf                      0      0     28
     convertHexToStrLCD                 1      0     18
       -> HalLcdWriteString             0      0     36
     port0Isr                           0      0     17
       -> osal_start_timerEx            0      0     30
       -> osal_getClock                 0      0     30
       -> myprintf                      0      0     34
     printAddrInfoHex                   0      0     15
       -> myprintf                      0      0     26
       -> myprintf                      0      0     26
       -> myprintf                      0      0     30
       -> myprintf                      0      0     26


   Segment part sizes:

     Function/Label                             Bytes
     --------------                             -----
     _A_P0                                         1
     P0IFG                                         1
     _A_P1                                         1
     _A_IEN1                                       1
     _A_IRCON                                      1
     P1SEL                                         1
     P1DIR                                         1
     SampleApp_ClusterList                         8
     SampleApp_SimpleDesc                         12
     SampleApp_epDesc                              6
     GenericApp_DstAddr                           12
     EndPoint_DstAddr                             12
     SampleApp_TaskID                              1
     SampleApp_NwkState                            1
     SampleApp_TransID                             1
     SampleApp_Periodic_DstAddr                   12
     SampleApp_TxAddr                             12
     SampleApp_Group                              18
     SampleAppPeriodicCounter                      1
     SampleAppFlashCounter                         1
     LL                                            2
     NeedCoinDelivered                             1
     NeedCoinTransport                             1
     rewardCount                                   1
     startRewardInterrupt                          1
     lastRecvRewardSecTime                         4
     pre_coin_pin_value                            1
     coin_pin_value                                1
     pre_reward_pin_value                          1
     reward_pin_value                              1
     port0Isr                                    176
     SampleApp_Init                              197
     ??Subroutine19_0                              6
     ??Subroutine20_0                              5
     SampleApp_ProcessEvent                      376
     ?Subroutine1                                  8
     ?Subroutine8                                 10
     ?Subroutine5                                 17
     ?Subroutine4                                  4
     ??Subroutine16_0                              2
     ??Subroutine17_0                             11
     ?Subroutine11                                 6
     ?Subroutine10                                 9
     SampleApp_HandleKeys                          3
     SampleApp_MessageMSGCB                      137
     ?Subroutine2                                  5
     ?Subroutine13                                 4
     ?Subroutine15                                11
     ?Subroutine6                                 16
     SampleApp_SendPeriodicMessage               141
     ??Subroutine18_0                              6
     SampleApp_SendHeartBeatMessageCoor
                                                  82
     SampleApp_SendHeartBeatMessageEnd
                                                 250
     ?Subroutine14                                10
     ?Subroutine9                                  4
     ?Subroutine7                                  9
     ?Subroutine3                                 14
     AfSendAddrInfo                              189
     ?Subroutine0                                  3
     AfReplyGetCoinCmd                           146
     printAddrInfoHex                            112
     convertHexToStrLCD                          137
     ?Subroutine12                                19
     ??port0Isr??INTVEC 107                        3
     ?<Initializer for pre_coin_pin_value>         1
     ?<Initializer for coin_pin_value>             1
     ?<Initializer for pre_reward_pin_value>       1
     ?<Initializer for reward_pin_value>           1
     ??SampleApp_Init?relay                        6
     ??SampleApp_ProcessEvent?relay                6
     ??SampleApp_HandleKeys?relay                  6
     ??SampleApp_MessageMSGCB?relay                6
     ??SampleApp_SendPeriodicMessage?relay         6
     ??SampleApp_SendHeartBeatMessageCoor?relay    6
     ??SampleApp_SendHeartBeatMessageEnd?relay     6
     ??AfSendAddrInfo?relay                        6
     ??AfReplyGetCoinCmd?relay                     6
     ??printAddrInfoHex?relay                      6
     ??convertHexToStrLCD?relay                    6
     ?<Constant "\nP0_6=%d">                       9
     ?<Constant "Group 1">                         8
     ?<Constant "UartInit OK\n">                  13
     ?<Constant {35, 69, 64}>                      3
     ?<Constant "Got ERROR:AF_DATA_CON...">       38
     ?<Constant "unknown pkg-event = 0...">       26
     ?<Constant "Get COIN_MSG_EVT, Nee...">       57
     ?<Constant "NeedCoinDelivered = %d\n">       24
     ?<Constant {35, 49, 0, 64}>                   4
     ?<Constant "SampleApp_SendPeriodi...">       40
     ?<Constant {35, 70, 64}>                      3
     ?<Constant "Upload reward result ...">       46
     ?<Constant {0}>                              12
     ?<Constant "send gameover reward ...">       36
     ?<Constant {0}>_1                            13
     ?<Constant "send cmd = 0x%x failed\n">       24
     ?<Constant {0}>_2                            11
     ?<Constant "end_device send recve...">       40
     ?<Constant "\n">                              2
     ?<Constant "; IEEE = ">                      10
     ?<Constant "0x%x,">                           6
     __Constant_2                                  4

 
 1 949 bytes in segment BANKED_CODE
    66 bytes in segment BANK_RELAYS
     3 bytes in segment INTVEC
   176 bytes in segment NEAR_CODE
     7 bytes in segment SFR_AN
     4 bytes in segment XDATA_I
     4 bytes in segment XDATA_ID
   449 bytes in segment XDATA_ROM_C
    87 bytes in segment XDATA_Z
 
 2 195 bytes of CODE  memory (+ 3 bytes shared)
   445 bytes of CONST memory (+ 4 bytes shared)
     0 bytes of DATA  memory (+ 7 bytes shared)
    91 bytes of XDATA memory

Errors: none
Warnings: none
