###############################################################################
#                                                                             #
# IAR C/C++ Compiler V8.10.3.10338/W32 for 8051         24/Jun/2019  18:14:04 #
# Copyright 2004-2011 IAR Systems AB.                                         #
#                                                                             #
#    Core               =  plain                                              #
#    Code model         =  banked                                             #
#    Data model         =  large                                              #
#    Calling convention =  xdata reentrant                                    #
#    Constant location  =  data_rom                                           #
#    Dptr setup         =  1,16                                               #
#    Source file        =  E:\Github_Repository\zigbee-net-tech\ZStack-2.5.1a #
#                          \Projects\zstack\Samples\SampleApp\Source\SampleAp #
#                          p.c                                                #
#    Command line       =  -f E:\Github_Repository\zigbee-net-tech\ZStack-2.5 #
#                          .1a\Projects\zstack\Samples\SampleApp\CC2530DB\..\ #
#                          ..\..\Tools\CC2530DB\f8wEndev.cfg (-DCPU32MHZ      #
#                          -DROOT=__near_func -DMAC_CFG_TX_DATA_MAX=3         #
#                          -DMAC_CFG_TX_MAX=6 -DMAC_CFG_RX_MAX=3              #
#                          -DEND_DEVICE) -f E:\Github_Repository\zigbee-net-t #
#                          ech\ZStack-2.5.1a\Projects\zstack\Samples\SampleAp #
#                          p\CC2530DB\..\..\..\Tools\CC2530DB\f8wConfig.cfg   #
#                          (-DZIGBEEPRO -DSECURE=0 -DZG_SECURE_DYNAMIC=0      #
#                          -DREFLECTOR -DDEFAULT_CHANLIST=0x00000800          #
#                          -DZDAPP_CONFIG_PAN_ID=0xFFF1                       #
#                          -DNWK_START_DELAY=100 -DEXTENDED_JOINING_RANDOM_MA #
#                          SK=0x007F -DBEACON_REQUEST_DELAY=100               #
#                          -DBEACON_REQ_DELAY_MASK=0x00FF                     #
#                          -DLINK_STATUS_JITTER_MASK=0x007F                   #
#                          -DROUTE_EXPIRY_TIME=30 -DAPSC_ACK_WAIT_DURATION_PO #
#                          LLED=3000 -DNWK_INDIRECT_MSG_TIMEOUT=7             #
#                          -DMAX_RREQ_ENTRIES=8 -DAPSC_MAX_FRAME_RETRIES=3    #
#                          -DNWK_MAX_DATA_RETRIES=2                           #
#                          -DMAX_POLL_FAILURE_RETRIES=2 -DMAX_BCAST=9         #
#                          -DAPS_MAX_GROUPS=16 -DMAX_RTG_ENTRIES=40           #
#                          -DNWK_MAX_BINDING_ENTRIES=4                        #
#                          -DMAX_BINDING_CLUSTER_IDS=4 "-DDEFAULT_KEY={0x01,  #
#                          0x03, 0x05, 0x07, 0x09, 0x0B, 0x0D, 0x0F, 0x00,    #
#                          0x02, 0x04, 0x06, 0x08, 0x0A, 0x0C, 0x0D}"         #
#                          -DMAC_MAX_FRAME_SIZE=116                           #
#                          -DZDNWKMGR_MIN_TRANSMISSIONS=20 "-DCONST=const     #
#                          __code" -DGENERIC=__generic                        #
#                          -DRFD_RCVC_ALWAYS_ON=FALSE -DPOLL_RATE=1000        #
#                          -DQUEUED_POLL_RATE=100 -DRESPONSE_POLL_RATE=100)   #
#                          -DREJOIN_POLL_RATE=440 E:\Github_Repository\zigbee #
#                          -net-tech\ZStack-2.5.1a\Projects\zstack\Samples\Sa #
#                          mpleApp\Source\SampleApp.c -D NWK_AUTO_POLL -D     #
#                          ZTOOL_P1 -D MT_TASK -D MT_SYS_FUNC -D MT_ZDO_FUNC  #
#                          -lC E:\Github_Repository\zigbee-net-tech\ZStack-2. #
#                          5.1a\Projects\zstack\Samples\SampleApp\CC2530DB\En #
#                          dDeviceEB\List\ -lA E:\Github_Repository\zigbee-ne #
#                          t-tech\ZStack-2.5.1a\Projects\zstack\Samples\Sampl #
#                          eApp\CC2530DB\EndDeviceEB\List\ --diag_suppress    #
#                          Pe001,Pa010 -o E:\Github_Repository\zigbee-net-tec #
#                          h\ZStack-2.5.1a\Projects\zstack\Samples\SampleApp\ #
#                          CC2530DB\EndDeviceEB\Obj\ -e --no_code_motion      #
#                          --debug --core=plain --dptr=16,1                   #
#                          --data_model=large --code_model=banked             #
#                          --calling_convention=xdata_reentrant               #
#                          --place_constants=data_rom --nr_virtual_regs 16    #
#                          -I E:\Github_Repository\zigbee-net-tech\ZStack-2.5 #
#                          .1a\Projects\zstack\Samples\SampleApp\CC2530DB\    #
#                          -I E:\Github_Repository\zigbee-net-tech\ZStack-2.5 #
#                          .1a\Projects\zstack\Samples\SampleApp\CC2530DB\..\ #
#                          Source\ -I E:\Github_Repository\zigbee-net-tech\ZS #
#                          tack-2.5.1a\Projects\zstack\Samples\SampleApp\CC25 #
#                          30DB\..\..\..\ZMain\TI2530DB\ -I                   #
#                          E:\Github_Repository\zigbee-net-tech\ZStack-2.5.1a #
#                          \Projects\zstack\Samples\SampleApp\CC2530DB\..\..\ #
#                          ..\..\..\Components\hal\include\ -I                #
#                          E:\Github_Repository\zigbee-net-tech\ZStack-2.5.1a #
#                          \Projects\zstack\Samples\SampleApp\CC2530DB\..\..\ #
#                          ..\..\..\Components\hal\target\CC2530EB\ -I        #
#                          E:\Github_Repository\zigbee-net-tech\ZStack-2.5.1a #
#                          \Projects\zstack\Samples\SampleApp\CC2530DB\..\..\ #
#                          ..\..\..\Components\mac\include\ -I                #
#                          E:\Github_Repository\zigbee-net-tech\ZStack-2.5.1a #
#                          \Projects\zstack\Samples\SampleApp\CC2530DB\..\..\ #
#                          ..\..\..\Components\mac\high_level\ -I             #
#                          E:\Github_Repository\zigbee-net-tech\ZStack-2.5.1a #
#                          \Projects\zstack\Samples\SampleApp\CC2530DB\..\..\ #
#                          ..\..\..\Components\mac\low_level\srf04\ -I        #
#                          E:\Github_Repository\zigbee-net-tech\ZStack-2.5.1a #
#                          \Projects\zstack\Samples\SampleApp\CC2530DB\..\..\ #
#                          ..\..\..\Components\mac\low_level\srf04\single_chi #
#                          p\ -I E:\Github_Repository\zigbee-net-tech\ZStack- #
#                          2.5.1a\Projects\zstack\Samples\SampleApp\CC2530DB\ #
#                          ..\..\..\..\..\Components\mt\ -I                   #
#                          E:\Github_Repository\zigbee-net-tech\ZStack-2.5.1a #
#                          \Projects\zstack\Samples\SampleApp\CC2530DB\..\..\ #
#                          ..\..\..\Components\osal\include\ -I               #
#                          E:\Github_Repository\zigbee-net-tech\ZStack-2.5.1a #
#                          \Projects\zstack\Samples\SampleApp\CC2530DB\..\..\ #
#                          ..\..\..\Components\services\saddr\ -I             #
#                          E:\Github_Repository\zigbee-net-tech\ZStack-2.5.1a #
#                          \Projects\zstack\Samples\SampleApp\CC2530DB\..\..\ #
#                          ..\..\..\Components\services\sdata\ -I             #
#                          E:\Github_Repository\zigbee-net-tech\ZStack-2.5.1a #
#                          \Projects\zstack\Samples\SampleApp\CC2530DB\..\..\ #
#                          ..\..\..\Components\stack\af\ -I                   #
#                          E:\Github_Repository\zigbee-net-tech\ZStack-2.5.1a #
#                          \Projects\zstack\Samples\SampleApp\CC2530DB\..\..\ #
#                          ..\..\..\Components\stack\nwk\ -I                  #
#                          E:\Github_Repository\zigbee-net-tech\ZStack-2.5.1a #
#                          \Projects\zstack\Samples\SampleApp\CC2530DB\..\..\ #
#                          ..\..\..\Components\stack\sapi\ -I                 #
#                          E:\Github_Repository\zigbee-net-tech\ZStack-2.5.1a #
#                          \Projects\zstack\Samples\SampleApp\CC2530DB\..\..\ #
#                          ..\..\..\Components\stack\sec\ -I                  #
#                          E:\Github_Repository\zigbee-net-tech\ZStack-2.5.1a #
#                          \Projects\zstack\Samples\SampleApp\CC2530DB\..\..\ #
#                          ..\..\..\Components\stack\sys\ -I                  #
#                          E:\Github_Repository\zigbee-net-tech\ZStack-2.5.1a #
#                          \Projects\zstack\Samples\SampleApp\CC2530DB\..\..\ #
#                          ..\..\..\Components\stack\zdo\ -I                  #
#                          E:\Github_Repository\zigbee-net-tech\ZStack-2.5.1a #
#                          \Projects\zstack\Samples\SampleApp\CC2530DB\..\..\ #
#                          ..\..\..\Components\zmac\ -I                       #
#                          E:\Github_Repository\zigbee-net-tech\ZStack-2.5.1a #
#                          \Projects\zstack\Samples\SampleApp\CC2530DB\..\..\ #
#                          ..\..\..\Components\zmac\f8w\ -Ohz                 #
#                          --require_prototypes                               #
#    List file          =  E:\Github_Repository\zigbee-net-tech\ZStack-2.5.1a #
#                          \Projects\zstack\Samples\SampleApp\CC2530DB\EndDev #
#                          iceEB\List\SampleApp.lst                           #
#    Object file        =  E:\Github_Repository\zigbee-net-tech\ZStack-2.5.1a #
#                          \Projects\zstack\Samples\SampleApp\CC2530DB\EndDev #
#                          iceEB\Obj\SampleApp.r51                            #
#                                                                             #
#                                                                             #
###############################################################################

E:\Github_Repository\zigbee-net-tech\ZStack-2.5.1a\Projects\zstack\Samples\SampleApp\Source\SampleApp.c
      1          /*********************************************************************
      2          需要修改的文件包含功能如下：
      3          ZMain/ZMain.c是主函数
      4          HAL/hal_drivers.c进行外部中断的初始化
      5          MT/MT_UART.c中进行串口消息的接收
      6          SampleApp.c中定义中断响应函数，以及事件消息处理函数等
      7          SingleLinkedList.c中定义了单链表的实现
      8          *********************************************************************/
      9          
     10          /*********************************************************************
     11          * INCLUDES
     12          */
     13          #include "OSAL.h"
     14          #include "ZGlobals.h"
     15          #include "AF.h"
     16          #include "aps_groups.h"
     17          #include "ZDObject.h"
     18          #include "ZDProfile.h"
     19          #include "ZDApp.h"
     20          
     21          #include "SampleApp.h"
     22          #include "SampleAppHw.h"
     23          #include "SinglyLinkedList.h"
     24          
     25          #include "OnBoard.h"

   \                                 In  segment SFR_AN, at 0x80
   \   union <unnamed> volatile __sfr _A_P0
   \                     _A_P0:
   \   000000                DS 1

   \                                 In  segment SFR_AN, at 0x89
   \   unsigned char volatile __sfr P0IFG
   \                     P0IFG:
   \   000000                DS 1

   \                                 In  segment SFR_AN, at 0x90
   \   union <unnamed> volatile __sfr _A_P1
   \                     _A_P1:
   \   000000                DS 1

   \                                 In  segment SFR_AN, at 0xb8
   \   union <unnamed> volatile __sfr _A_IEN1
   \                     _A_IEN1:
   \   000000                DS 1

   \                                 In  segment SFR_AN, at 0xc0
   \   union <unnamed> volatile __sfr _A_IRCON
   \                     _A_IRCON:
   \   000000                DS 1

   \                                 In  segment SFR_AN, at 0xf4
   \   unsigned char volatile __sfr P1SEL
   \                     P1SEL:
   \   000000                DS 1

   \                                 In  segment SFR_AN, at 0xfe
   \   unsigned char volatile __sfr P1DIR
   \                     P1DIR:
   \   000000                DS 1
     26          
     27          /* HAL */
     28          #include "hal_lcd.h"
     29          #include "hal_led.h"
     30          #include "hal_key.h"
     31          
     32          #include "MT_UART.h"
     33          #include "MT_APP.h"
     34          #include "MT.h"
     35          
     36          #include "OSAL_Clock.h"
     37          
     38          #include "common.h"
     39          /*******
     40            一些测试用的宏开关
     41          */
     42          // #define NEED_TEST_DIStANCE
     43          
     44          /*********************************************************************
     45          * MACROS
     46          */
     47          #define COIN_RECV_PIN      P0_4      //中断输入下降沿触发，定义P0.7口为中断方式接收投币器信号引脚40ms
     48          #define REWARD_OUTPUT_PIN  P0_6      //中断输入下降沿触发，彩票奖励输出个数信号引脚，输出一个彩票奖励则产生一个40ms的低电平
     49          
     50          #define COIN_SIMULATE_PIN  P1_2      //输出，定义P1.2口为替换投币器模拟信号发生引脚
     51          
     52          #define UART0        0x00
     53          #define COIN_SIGNAL_HALF_TIME 50 // Ms
     54          #define REWARD_SIGNAL_HALF_TIME 50
     55          
     56          // This list should be filled with Application specific Cluster IDs.

   \                                 In  segment XDATA_ROM_C, align 1
     57          const cId_t SampleApp_ClusterList[SAMPLEAPP_MAX_CLUSTERS] =
   \                     SampleApp_ClusterList:
   \   000000   0100         DW 1
   \   000002   0200         DW 2
   \   000004   0000         DW 0
   \   000006   0000         DW 0
     58          {
     59            SAMPLEAPP_PERIODIC_CLUSTERID,
     60            SAMPLEAPP_FLASH_CLUSTERID
     61          };
     62          

   \                                 In  segment XDATA_ROM_C, align 1
     63          const SimpleDescriptionFormat_t SampleApp_SimpleDesc =
   \                     SampleApp_SimpleDesc:
   \   000000   14           DB 20
   \   000001   080F         DW 3848
   \   000003   0100         DW 1
   \   000005   00           DB 0
   \   000006   04           DB 4
   \   000007   ....         DW SampleApp_ClusterList
   \   000009   04           DB 4
   \   00000A   ....         DW SampleApp_ClusterList
     64          {
     65            SAMPLEAPP_ENDPOINT,              //  int Endpoint;
     66            SAMPLEAPP_PROFID,                //  uint16 AppProfId[2];
     67            SAMPLEAPP_DEVICEID,              //  uint16 AppDeviceId[2];
     68            SAMPLEAPP_DEVICE_VERSION,        //  int   AppDevVer:4;
     69            SAMPLEAPP_FLAGS,                 //  int   AppFlags:4;
     70            SAMPLEAPP_MAX_CLUSTERS,          //  uint8  AppNumInClusters;
     71            (cId_t *)SampleApp_ClusterList,  //  uint8 *pAppInClusterList;
     72            SAMPLEAPP_MAX_CLUSTERS,          //  uint8  AppNumInClusters;
     73            (cId_t *)SampleApp_ClusterList   //  uint8 *pAppInClusterList;
     74          };
     75          

   \                                 In  segment XDATA_Z, align 1, keep-with-next
     76          endPointDesc_t SampleApp_epDesc;
   \                     SampleApp_epDesc:
   \   000000                DS 6
   \   000006                REQUIRE __INIT_XDATA_Z

   \                                 In  segment XDATA_Z, align 1, keep-with-next
     77          afAddrType_t GenericApp_DstAddr;
   \                     GenericApp_DstAddr:
   \   000000                DS 12
   \   00000C                REQUIRE __INIT_XDATA_Z

   \                                 In  segment XDATA_Z, align 1, keep-with-next
     78          afAddrType_t EndPoint_DstAddr;
   \                     EndPoint_DstAddr:
   \   000000                DS 12
   \   00000C                REQUIRE __INIT_XDATA_Z
     79          
     80          /*********************************************************************
     81          * LOCAL VARIABLES
     82          */

   \                                 In  segment XDATA_Z, align 1, keep-with-next
     83          uint8 SampleApp_TaskID;   // Task ID for internal task/event processing
   \                     SampleApp_TaskID:
   \   000000                DS 1
   \   000001                REQUIRE __INIT_XDATA_Z
     84          // This variable will be received when
     85          // SampleApp_Init() is called.

   \                                 In  segment XDATA_Z, align 1, keep-with-next
     86          devStates_t SampleApp_NwkState;
   \                     SampleApp_NwkState:
   \   000000                DS 1
   \   000001                REQUIRE __INIT_XDATA_Z
     87          

   \                                 In  segment XDATA_Z, align 1, keep-with-next
     88          uint8 SampleApp_TransID;  // This is the unique message ID (counter)
   \                     SampleApp_TransID:
   \   000000                DS 1
   \   000001                REQUIRE __INIT_XDATA_Z
     89          

   \                                 In  segment XDATA_Z, align 1, keep-with-next
     90          afAddrType_t SampleApp_Periodic_DstAddr; // 用于协调器广播消息
   \                     SampleApp_Periodic_DstAddr:
   \   000000                DS 12
   \   00000C                REQUIRE __INIT_XDATA_Z

   \                                 In  segment XDATA_Z, align 1, keep-with-next
     91          afAddrType_t SampleApp_TxAddr; // 用于终端设备向协调器报告短地址信息
   \                     SampleApp_TxAddr:
   \   000000                DS 12
   \   00000C                REQUIRE __INIT_XDATA_Z
     92          

   \                                 In  segment XDATA_Z, align 1, keep-with-next
     93          aps_Group_t SampleApp_Group;
   \                     SampleApp_Group:
   \   000000                DS 18
   \   000012                REQUIRE __INIT_XDATA_Z

   \                                 In  segment XDATA_Z, align 1, keep-with-next
     94          uint8 SampleAppPeriodicCounter = 0;
   \                     SampleAppPeriodicCounter:
   \   000000                DS 1
   \   000001                REQUIRE __INIT_XDATA_Z

   \                                 In  segment XDATA_Z, align 1, keep-with-next
     95          uint8 SampleAppFlashCounter = 0;
   \                     SampleAppFlashCounter:
   \   000000                DS 1
   \   000001                REQUIRE __INIT_XDATA_Z
     96          

   \                                 In  segment XDATA_Z, align 1, keep-with-next
     97          LinkList LL; // 定义线性链表存储终端地址以及心跳信息
   \                     LL:
   \   000000                DS 2
   \   000002                REQUIRE __INIT_XDATA_Z
     98          
     99          /*********************************************************************
    100          * LOCAL FUNCTIONS
    101          */
    102          void EndDeviceSendAfMessageByCmd(uint8 cmd);
    103          void EndDeviceSendHeartBeat(void);
    104          void SampleApp_HandleKeys( uint8 shift, uint8 keys );
    105          void SampleApp_MessageMSGCB( afIncomingMSGPacket_t *pckt );
    106          void SampleApp_SendPeriodicMessage( int8 whichKey );
    107          void SampleApp_SendHeartBeatMessageCoor(void);
    108          void printAddrInfoHex(uint8* buf, uint8 dataLen);
    109          void convertHexToStrLCD(uint16 addr, uint8 lcdLineNum);
    110          

   \                                 In  segment XDATA_Z, align 1, keep-with-next
    111          int8 NeedCoinDelivered = 0; // 线上开启游戏需要处理的投币个数
   \                     NeedCoinDelivered:
   \   000000                DS 1
   \   000001                REQUIRE __INIT_XDATA_Z

   \                                 In  segment XDATA_Z, align 1, keep-with-next
    112          int8 NeedCoinTransport = 0; // 需要转发的投币器信号数量
   \                     NeedCoinTransport:
   \   000000                DS 1
   \   000001                REQUIRE __INIT_XDATA_Z

   \                                 In  segment XDATA_Z, align 1, keep-with-next
    113          uint8 rewardCount = 0;  // 一次游戏出彩票个数统计
   \                     rewardCount:
   \   000000                DS 1
   \   000001                REQUIRE __INIT_XDATA_Z

   \                                 In  segment XDATA_Z, align 1, keep-with-next
    114          uint8 startRewardInterrupt = 0;
   \                     startRewardInterrupt:
   \   000000                DS 1
   \   000001                REQUIRE __INIT_XDATA_Z

   \                                 In  segment XDATA_Z, align 1, keep-with-next
    115          UTCTime lastRecvRewardSecTime = 0;//=osal_getClock();
   \                     lastRecvRewardSecTime:
   \   000000                DS 4
   \   000004                REQUIRE __INIT_XDATA_Z
    116          
    117          /**
    118            终端设备P1端口中断处理函数，用来接收投币器的信号
    119          */
    120          #ifdef END_DEVICE

   \                                 In  segment XDATA_I, align 1, keep-with-next
    121          uint8 pre_coin_pin_value = 1;
   \                     pre_coin_pin_value:
   \   000000                DS 1
   \   000001                REQUIRE `?<Initializer for pre_coin_pin_value>`
   \   000001                REQUIRE __INIT_XDATA_I

   \                                 In  segment XDATA_I, align 1, keep-with-next
    122          uint8 coin_pin_value = 1;
   \                     coin_pin_value:
   \   000000                DS 1
   \   000001                REQUIRE `?<Initializer for coin_pin_value>`
   \   000001                REQUIRE __INIT_XDATA_I

   \                                 In  segment XDATA_I, align 1, keep-with-next
    123          uint8 pre_reward_pin_value = 1;
   \                     pre_reward_pin_value:
   \   000000                DS 1
   \   000001                REQUIRE `?<Initializer for pre_reward_pin_value>`
   \   000001                REQUIRE __INIT_XDATA_I

   \                                 In  segment XDATA_I, align 1, keep-with-next
    124          uint8 reward_pin_value = 1;
   \                     reward_pin_value:
   \   000000                DS 1
   \   000001                REQUIRE `?<Initializer for reward_pin_value>`
   \   000001                REQUIRE __INIT_XDATA_I

   \                                 In  segment NEAR_CODE, align 1, keep-with-next
    125          HAL_ISR_FUNCTION( port0Isr, P0INT_VECTOR ) // P0_5配置为投币器电平变化中断引脚，在HAL/Common/hal_drivers.c中进行的引脚初始化
   \                     port0Isr:
    126          { 
   \   000000   C0E0         PUSH    A
   \   000002   74F1         MOV     A,#-0xf
   \   000004   12....       LCALL   ?INTERRUPT_ENTER_XSP
   \   000007                ; Saved register size: 15
   \   000007                ; Auto size: 0
    127            IEN1 &= ~(0x1 << 5); // 关闭端口0中断
   \   000007   C2BD         CLR     0xb8.5
    128            if((P0IFG >> 4) & 0x1 == 1) { // 中断p0_4引脚产生中断，投币信号    
   \   000009   E589         MOV     A,0x89
   \   00000B   A2E4         MOV     C,0xE0 /* A   */.4
   \   00000D   503D         JNC     ??port0Isr_0
    129              coin_pin_value = COIN_RECV_PIN;
   \   00000F   A284         MOV     C,0x80.4
   \   000011   E4           CLR     A
   \   000012   33           RLC     A
   \   000013   90....       MOV     DPTR,#coin_pin_value
   \   000016   F0           MOVX    @DPTR,A
    130              if(coin_pin_value == 0) {
   \   000017   A2E0         MOV     C,0xE0 /* A   */.0
   \   000019   4028         JC      ??port0Isr_1
    131                if(coin_pin_value != pre_coin_pin_value) {
   \   00001B   F8           MOV     R0,A
   \   00001C   90....       MOV     DPTR,#pre_coin_pin_value
   \   00001F   E0           MOVX    A,@DPTR
   \   000020   68           XRL     A,R0
   \   000021   6026         JZ      ??port0Isr_2
    132                  pre_coin_pin_value = coin_pin_value;
   \   000023   90....       MOV     DPTR,#coin_pin_value
   \   000026   E0           MOVX    A,@DPTR
   \   000027   90....       MOV     DPTR,#pre_coin_pin_value
   \   00002A   F0           MOVX    @DPTR,A
    133                  NeedCoinTransport = 1;
   \   00002B   90....       MOV     DPTR,#NeedCoinTransport
   \   00002E   7401         MOV     A,#0x1
   \   000030   F0           MOVX    @DPTR,A
    134                  osal_start_timerEx( SampleApp_TaskID, SAMPLEAPP_TRANSPORT_COIN_MSG_EVT, COIN_SIGNAL_HALF_TIME); // 产生一个定时器事件    
   \   000031                ; Setup parameters for call to function osal_start_timerEx
   \   000031   7C32         MOV     R4,#0x32
   \   000033   7D00         MOV     R5,#0x0
   \   000035   7A04         MOV     R2,#0x4
   \   000037   7B00         MOV     R3,#0x0
   \   000039   90....       MOV     DPTR,#SampleApp_TaskID
   \   00003C   E0           MOVX    A,@DPTR
   \   00003D   F9           MOV     R1,A
   \   00003E   12....       LCALL   ??osal_start_timerEx?relay
   \   000041   8006         SJMP    ??port0Isr_2
    135                }
    136              } else {
    137                pre_coin_pin_value = 1;
   \                     ??port0Isr_1:
   \   000043   90....       MOV     DPTR,#pre_coin_pin_value
   \   000046   7401         MOV     A,#0x1
   \   000048   F0           MOVX    @DPTR,A
    138              }
    139              P0IFG &= ~(0x1 << 4);       //端口0中断状态标志    
   \                     ??port0Isr_2:
   \   000049   5389EF       ANL     0x89,#0xef
    140              //myprintf("get p0_4 coin input interrupt pin = %d\n", COIN_RECV_PIN);
    141            } 
    142            if((P0IFG >> 6) & 0x1 == 1) { // P0_6引脚，彩票机出一个彩票中断信号，转发到游戏机并上传服务器
   \                     ??port0Isr_0:
   \   00004C   E589         MOV     A,0x89
   \   00004E   A2E6         MOV     C,0xE0 /* A   */.6
   \   000050   5055         JNC     ??port0Isr_3
    143              startRewardInterrupt = 1;
   \   000052   90....       MOV     DPTR,#startRewardInterrupt
   \   000055   7401         MOV     A,#0x1
   \   000057   F0           MOVX    @DPTR,A
    144              lastRecvRewardSecTime = osal_getClock(); // 设置收到信号当前的秒数，在定时器中进行检测
   \   000058                ; Setup parameters for call to function osal_getClock
   \   000058   12....       LCALL   ??osal_getClock?relay
   \   00005B   90....       MOV     DPTR,#lastRecvRewardSecTime
   \   00005E   12....       LCALL   ?XSTORE_R2345
    145              reward_pin_value = REWARD_OUTPUT_PIN;
   \   000061   A286         MOV     C,0x80.6
   \   000063   E4           CLR     A
   \   000064   33           RLC     A
   \   000065   90....       MOV     DPTR,#reward_pin_value
   \   000068   F0           MOVX    @DPTR,A
    146              if(reward_pin_value == 0) {
   \   000069   A2E0         MOV     C,0xE0 /* A   */.0
   \   00006B   4017         JC      ??port0Isr_4
    147                if(reward_pin_value != pre_reward_pin_value) {
   \   00006D   F8           MOV     R0,A
   \   00006E   90....       MOV     DPTR,#pre_reward_pin_value
   \   000071   E0           MOVX    A,@DPTR
   \   000072   68           XRL     A,R0
   \   000073   6015         JZ      ??port0Isr_5
    148                  pre_reward_pin_value = reward_pin_value;
   \   000075   90....       MOV     DPTR,#reward_pin_value
   \   000078   E0           MOVX    A,@DPTR
   \   000079   90....       MOV     DPTR,#pre_reward_pin_value
   \   00007C   F0           MOVX    @DPTR,A
    149                  rewardCount += 1;
   \   00007D   90....       MOV     DPTR,#rewardCount
   \   000080   E0           MOVX    A,@DPTR
   \   000081   04           INC     A
   \   000082   8005         SJMP    ??port0Isr_6
    150                }      
    151              } else {
    152                pre_reward_pin_value = 1;
   \                     ??port0Isr_4:
   \   000084   90....       MOV     DPTR,#pre_reward_pin_value
   \   000087   7401         MOV     A,#0x1
   \                     ??port0Isr_6:
   \   000089   F0           MOVX    @DPTR,A
    153              }
    154              P0IFG &= ~(0x1 << 6);
   \                     ??port0Isr_5:
   \   00008A   5389BF       ANL     0x89,#0xbf
    155              myprintf("\nP0_6=%d", REWARD_OUTPUT_PIN); // 此条串口打印语句不能去掉，否则计数会产生不准确结果
   \   00008D                ; Setup parameters for call to function myprintf
   \   00008D   A286         MOV     C,0x80.6
   \   00008F   E4           CLR     A
   \   000090   33           RLC     A
   \   000091   F5..         MOV     ?V0 + 0,A
   \   000093   75..00       MOV     ?V0 + 1,#0x0
   \   000096   78..         MOV     R0,#?V0 + 0
   \   000098   12....       LCALL   ?PUSH_XSTACK_I_TWO
   \   00009B   7A..         MOV     R2,#`?<Constant "\\nP0_6=%d">` & 0xff
   \   00009D   7B..         MOV     R3,#(`?<Constant "\\nP0_6=%d">` >> 8) & 0xff
   \   00009F   12....       LCALL   ??myprintf?relay
   \   0000A2   7402         MOV     A,#0x2
   \   0000A4   12....       LCALL   ?DEALLOC_XSTACK8
    156            }
    157            P0IF = 0;        //端口0中断标志，0表示无中断未决，1表示有中断未决，需要每次触发之后置0，不然会一直触发中断 
   \                     ??port0Isr_3:
   \   0000A7   C2C5         CLR     0xc0.5
    158            IEN1 |= (0x1 << 5); // 端口0中断使能
   \   0000A9   D2BD         SETB    0xb8.5
    159          }
   \   0000AB   7F02         MOV     R7,#0x2
   \   0000AD   02....       LJMP    ?INTERRUPT_LEAVE_XSP
   \   0000B0                REQUIRE _A_IEN1
   \   0000B0                REQUIRE P0IFG
   \   0000B0                REQUIRE _A_P0
   \   0000B0                REQUIRE _A_IRCON
    160          #endif
    161          
    162          /**
    163          * 自定义任务初始化函数
    164          */

   \                                 In  segment BANKED_CODE, align 1, keep-with-next
    165          void SampleApp_Init( uint8 task_id )
   \                     SampleApp_Init:
    166          {
   \   000000   74F5         MOV     A,#-0xb
   \   000002   12....       LCALL   ?BANKED_ENTER_XDATA
   \   000005                ; Saved register size: 11
   \   000005                ; Auto size: 0
   \   000005   E9           MOV     A,R1
   \   000006   FE           MOV     R6,A
    167            halUARTCfg_t uartConfig;
    168            
    169            SampleApp_TaskID = task_id;
   \   000007   90....       MOV     DPTR,#SampleApp_TaskID
   \   00000A   F0           MOVX    @DPTR,A
    170            SampleApp_NwkState = DEV_INIT;
   \   00000B   90....       MOV     DPTR,#SampleApp_NwkState
   \   00000E   7401         MOV     A,#0x1
   \   000010   F0           MOVX    @DPTR,A
    171            SampleApp_TransID = 0;
   \   000011   90....       MOV     DPTR,#SampleApp_TransID
   \   000014   E4           CLR     A
   \   000015   F0           MOVX    @DPTR,A
    172            
    173          #ifdef END_DEVICE
    174            //P1_2输出，投币器模拟信号产生引脚
    175            P1SEL &= ~(0x01 << 2);         //设置P1.2口为普通IO
   \   000016   53F4FB       ANL     0xf4,#0xfb
    176            P1DIR |= (0x01 << 2);          //设置P1.2口为输出
   \   000019   43FE04       ORL     0xfe,#0x4
    177            COIN_SIMULATE_PIN = 1;       // 投币器信号模拟输出引脚  
   \   00001C   D292         SETB    0x90.2
    178          #endif
    179            
    180          #if defined ( BUILD_ALL_DEVICES )
    181            if ( readCoordinatorJumper() )
    182              zgDeviceLogicalType = ZG_DEVICETYPE_COORDINATOR;
    183            else
    184              zgDeviceLogicalType = ZG_DEVICETYPE_ROUTER;
    185          #endif // BUILD_ALL_DEVICES
    186            
    187          #if defined ( HOLD_AUTO_START )
    188            ZDOInitDevice(0);
    189          #endif
    190            
    191            GenericApp_DstAddr.addrMode = (afAddrMode_t)AddrNotPresent;
   \   00001E   90....       MOV     DPTR,#GenericApp_DstAddr + 8
   \   000021   F0           MOVX    @DPTR,A
    192            GenericApp_DstAddr.endPoint = 0;
   \   000022   A3           INC     DPTR
   \   000023   F0           MOVX    @DPTR,A
    193            GenericApp_DstAddr.addr.shortAddr = 0;
   \   000024   90....       MOV     DPTR,#GenericApp_DstAddr
   \   000027   F0           MOVX    @DPTR,A
   \   000028   A3           INC     DPTR
   \   000029   F0           MOVX    @DPTR,A
    194            
    195            // Setup for the periodic message's destination address
    196            // Broadcast to everyone
    197            // 协调器广播发送数据到终端
    198            SampleApp_Periodic_DstAddr.addrMode = (afAddrMode_t)AddrBroadcast;
   \   00002A   90....       MOV     DPTR,#SampleApp_Periodic_DstAddr + 8
   \   00002D   740F         MOV     A,#0xf
   \   00002F   F0           MOVX    @DPTR,A
    199            SampleApp_Periodic_DstAddr.endPoint = SAMPLEAPP_ENDPOINT;
   \   000030   A3           INC     DPTR
   \   000031   7414         MOV     A,#0x14
   \   000033   F0           MOVX    @DPTR,A
    200            SampleApp_Periodic_DstAddr.addr.shortAddr = 0xFFFF; // 广播地址
   \   000034   90....       MOV     DPTR,#SampleApp_Periodic_DstAddr
   \   000037   74FF         MOV     A,#-0x1
   \   000039   F0           MOVX    @DPTR,A
   \   00003A   A3           INC     DPTR
   \   00003B   F0           MOVX    @DPTR,A
    201            
    202            // 终端单播发送数据到协调器
    203            SampleApp_TxAddr.addrMode = (afAddrMode_t)Addr16Bit;
   \   00003C   90....       MOV     DPTR,#SampleApp_TxAddr + 8
   \   00003F   7402         MOV     A,#0x2
   \   000041   F0           MOVX    @DPTR,A
    204            SampleApp_TxAddr.endPoint = SAMPLEAPP_ENDPOINT;
   \   000042   A3           INC     DPTR
   \   000043   7414         MOV     A,#0x14
   \   000045   F0           MOVX    @DPTR,A
    205            SampleApp_TxAddr.addr.shortAddr = 0x00; // 单播协调器地址
   \   000046   90....       MOV     DPTR,#SampleApp_TxAddr
   \   000049   E4           CLR     A
   \   00004A   F0           MOVX    @DPTR,A
   \   00004B   A3           INC     DPTR
   \   00004C   F0           MOVX    @DPTR,A
    206            
    207            // 协调器单播发送到指定地址的终端上  
    208            EndPoint_DstAddr.addrMode = (afAddrMode_t)Addr16Bit;
   \   00004D   90....       MOV     DPTR,#EndPoint_DstAddr + 8
   \   000050   7402         MOV     A,#0x2
   \   000052   F0           MOVX    @DPTR,A
    209            EndPoint_DstAddr.endPoint = SAMPLEAPP_ENDPOINT;
   \   000053   A3           INC     DPTR
   \   000054   7414         MOV     A,#0x14
   \   000056   F0           MOVX    @DPTR,A
    210            EndPoint_DstAddr.addr.shortAddr = 0x00; // 在发送的时候动态修改终端地址
   \   000057   90....       MOV     DPTR,#EndPoint_DstAddr
   \   00005A   E4           CLR     A
   \   00005B   F0           MOVX    @DPTR,A
   \   00005C   A3           INC     DPTR
   \   00005D   F0           MOVX    @DPTR,A
    211            
    212            // Fill out the endpoint description.
    213            SampleApp_epDesc.endPoint = SAMPLEAPP_ENDPOINT; // 端点号
   \   00005E   90....       MOV     DPTR,#SampleApp_epDesc
   \   000061   7414         MOV     A,#0x14
   \   000063   F0           MOVX    @DPTR,A
    214            SampleApp_epDesc.task_id = &SampleApp_TaskID; // 端点对应的任务
   \   000064   A3           INC     DPTR
   \   000065   74..         MOV     A,#SampleApp_TaskID & 0xff
   \   000067   F0           MOVX    @DPTR,A
   \   000068   A3           INC     DPTR
   \   000069   74..         MOV     A,#(SampleApp_TaskID >> 8) & 0xff
   \   00006B   F0           MOVX    @DPTR,A
    215            SampleApp_epDesc.simpleDesc = (SimpleDescriptionFormat_t *)&SampleApp_SimpleDesc; // 简单描述符
   \   00006C   A3           INC     DPTR
   \   00006D   74..         MOV     A,#SampleApp_SimpleDesc & 0xff
   \   00006F   F0           MOVX    @DPTR,A
   \   000070   A3           INC     DPTR
   \   000071   74..         MOV     A,#(SampleApp_SimpleDesc >> 8) & 0xff
   \   000073   F0           MOVX    @DPTR,A
    216            SampleApp_epDesc.latencyReq = noLatencyReqs;  
   \   000074   A3           INC     DPTR
   \   000075   E4           CLR     A
   \   000076   F0           MOVX    @DPTR,A
    217            afRegister( &SampleApp_epDesc ); // 注册一个应用的端点描述符，注册一个新的端点到任务，这样当有新的消息到来时直接发送到指定的任务中
   \   000077                ; Setup parameters for call to function afRegister
   \   000077   7A..         MOV     R2,#SampleApp_epDesc & 0xff
   \   000079   7B..         MOV     R3,#(SampleApp_epDesc >> 8) & 0xff
   \   00007B   12....       LCALL   ??afRegister?relay
    218            
    219            // 绑定按键事件到任务ID
    220            RegisterForKeys( SampleApp_TaskID );
   \   00007E                ; Setup parameters for call to function RegisterForKeys
   \   00007E   90....       MOV     DPTR,#SampleApp_TaskID
   \   000081   E0           MOVX    A,@DPTR
   \   000082   F9           MOV     R1,A
   \   000083   12....       LCALL   ??RegisterForKeys?relay
    221            
    222            // By default, all devices start out in Group 1
    223            SampleApp_Group.ID = 0x0001;
   \   000086   90....       MOV     DPTR,#SampleApp_Group
   \   000089   7401         MOV     A,#0x1
   \   00008B   F0           MOVX    @DPTR,A
   \   00008C   A3           INC     DPTR
   \   00008D   E4           CLR     A
   \   00008E   F0           MOVX    @DPTR,A
    224            osal_memcpy( SampleApp_Group.name, "Group 1", 7 );
   \   00008F                ; Setup parameters for call to function osal_memcpy
   \   00008F   75....       MOV     ?V0 + 0,#`?<Constant "Group 1">` & 0xff
   \   000092   75....       MOV     ?V0 + 1,#(`?<Constant "Group 1">` >> 8) & 0xff
   \   000095   F5..         MOV     ?V0 + 2,A
   \   000097   78..         MOV     R0,#?V0 + 0
   \   000099   12....       LCALL   ?PUSH_XSTACK_I_THREE
   \   00009C   7C07         MOV     R4,#0x7
   \   00009E   7D00         MOV     R5,#0x0
   \   0000A0   7A..         MOV     R2,#(SampleApp_Group + 2) & 0xff
   \   0000A2   7B..         MOV     R3,#((SampleApp_Group + 2) >> 8) & 0xff
   \   0000A4   12....       LCALL   ??osal_memcpy?relay
   \   0000A7   7403         MOV     A,#0x3
   \   0000A9   12....       LCALL   ?DEALLOC_XSTACK8
    225            aps_AddGroup( SAMPLEAPP_ENDPOINT, &SampleApp_Group );
   \   0000AC                ; Setup parameters for call to function aps_AddGroup
   \   0000AC   7A..         MOV     R2,#SampleApp_Group & 0xff
   \   0000AE   7B..         MOV     R3,#(SampleApp_Group >> 8) & 0xff
   \   0000B0   7914         MOV     R1,#0x14
   \   0000B2   12....       LCALL   ??aps_AddGroup?relay
    226            
    227            // 初始化串口
    228            MT_UartInit();                    //串口初始化
   \   0000B5                ; Setup parameters for call to function MT_UartInit
   \   0000B5   12....       LCALL   ??MT_UartInit?relay
    229            MT_UartRegisterTaskID(task_id);   //注册串口任务
   \   0000B8                ; Setup parameters for call to function MT_UartRegisterTaskID
   \   0000B8   EE           MOV     A,R6
   \   0000B9   F9           MOV     R1,A
   \   0000BA   12....       LCALL   ??MT_UartRegisterTaskID?relay
    230          #ifdef END_DEVICE  
    231            myprintf("UartInit OK\n");
   \   0000BD                ; Setup parameters for call to function myprintf
   \   0000BD   7A..         MOV     R2,#`?<Constant "UartInit OK\\n">` & 0xff
   \   0000BF   7B..         MOV     R3,#(`?<Constant "UartInit OK\\n">` >> 8) & 0xff
   \   0000C1   12....       LCALL   ??myprintf?relay
    232          #endif  
    233          
    234          #ifdef ZDO_COORDINATOR   
    235            int ret = InitList_L(&LL); // 单链表初始化
    236            if(ret == OVERFLOW) {
    237              // myprintf("InitList_L OVERFLOW\n");
    238            }
    239          #endif  
    240          }
   \   0000C4   02....       LJMP    ??Subroutine10_0 & 0xFFFF
   \   0000C7                REQUIRE P1SEL
   \   0000C7                REQUIRE P1DIR
   \   0000C7                REQUIRE _A_P1

   \                                 In  segment BANKED_CODE, align 1, keep-with-next
   \                     ??Subroutine10_0:
   \   000000   7F03         MOV     R7,#0x3
   \   000002   02....       LJMP    ?BANKED_LEAVE_XDATA
    241          
    242          /*********************************************************************
    243          *          系统各种事件的处理函数
    244          */

   \                                 In  segment BANKED_CODE, align 1, keep-with-next
    245          uint16 SampleApp_ProcessEvent( uint8 task_id, uint16 events )
   \                     SampleApp_ProcessEvent:
    246          {
   \   000000   74F4         MOV     A,#-0xc
   \   000002   12....       LCALL   ?BANKED_ENTER_XDATA
   \   000005                ; Saved register size: 12
   \   000005                ; Auto size: 0
   \   000005   8A..         MOV     ?V0 + 0,R2
   \   000007   8B..         MOV     ?V0 + 1,R3
    247            afIncomingMSGPacket_t *MSGpkt;
    248            afDataConfirm_t *afDataConfirm;
    249            ZStatus_t sentStatus;
    250            (void)task_id;  // Intentionally unreferenced parameter
    251            
    252            if ( events & SYS_EVENT_MSG )
   \   000009   EB           MOV     A,R3
   \   00000A   5480         ANL     A,#0x80
   \   00000C   607E         JZ      ??SampleApp_ProcessEvent_0
    253            {
    254              MSGpkt = (afIncomingMSGPacket_t *)osal_msg_receive( SampleApp_TaskID );
   \   00000E                ; Setup parameters for call to function osal_msg_receive
   \   00000E   8023         SJMP    ??SampleApp_ProcessEvent_1
    255              while ( MSGpkt )
    256              {      
    257                switch ( MSGpkt->hdr.event )
    258                {
    259                  // 系统任务事件里面的接收数据确认消息
    260                  case AF_DATA_CONFIRM_CMD:          
    261                    afDataConfirm = (afDataConfirm_t *)MSGpkt;
    262                    sentStatus = afDataConfirm->hdr.status;
    263                    // Action taken when confirmation is received.
    264                    if ( sentStatus != ZSuccess )
    265                    {
    266                      //myprintf("Got ERROR:AF_DATA_CONFIRM_CMD failed\n");
    267                    }
    268                    break;
    269                  
    270                    // 接收到一个按键事件
    271                  case KEY_CHANGE:
    272                    SampleApp_HandleKeys( ((keyChange_t *)MSGpkt)->state, ((keyChange_t *)MSGpkt)->keys );
    273                    break;
    274                    
    275                    // 无线网络收到数据
    276                  case AF_INCOMING_MSG_CMD:
    277                    SampleApp_MessageMSGCB( MSGpkt );
    278                    break;
    279                    
    280                    // 设备组网或者入网成功，可以发送一个消息，并开启一个心跳事件的定时器
    281                  case ZDO_STATE_CHANGE:
    282                    SampleApp_NwkState = (devStates_t)(MSGpkt->hdr.status); // 另外MSGpkt->srcAddr.addr.shortAddr;可用于获取终端节点的网络短地址                    
    283                    // 判断不同的设备类型
    284                    if(SampleApp_NwkState == DEV_ZB_COORD) { // 协调器组建好网络
    285                      osal_start_timerEx( SampleApp_TaskID, SAMPLEAPP_SEND_PERIODIC_MSG_EVT, SAMPLEAPP_SEND_PERIODIC_MSG_TIMEOUT ); // 开启定时器
    286                      HalLedBlink(HAL_LED_2, 3, 50, 250);
    287                    } else if(SampleApp_NwkState == DEV_ROUTER) { // 路由器加入网络
    288                      HalLedBlink(HAL_LED_2, 3, 50, 250);
    289                    } else if(SampleApp_NwkState == DEV_END_DEVICE) { // 终端加入网络
   \                     ??SampleApp_ProcessEvent_2:
   \   000010   E0           MOVX    A,@DPTR
   \   000011   6406         XRL     A,#0x6
   \   000013   7017         JNZ     ??SampleApp_ProcessEvent_3
    290                      EndDeviceSendAfMessageByCmd(ENDDEVICE_NETWORK_READY); // 向协调器发送入网消息
   \   000015                ; Setup parameters for call to function EndDeviceSendAfMessageByCmd
   \   000015   7980         MOV     R1,#-0x80
   \   000017   12....       LCALL   ??EndDeviceSendAfMessageByCmd?relay
    291                      HalLedBlink(HAL_LED_2, 3, 50, 250);
   \   00001A                ; Setup parameters for call to function HalLedBlink
   \   00001A   7CFA         MOV     R4,#-0x6
   \   00001C   7D00         MOV     R5,#0x0
   \   00001E   7B32         MOV     R3,#0x32
   \   000020   7A03         MOV     R2,#0x3
   \   000022   7902         MOV     R1,#0x2
   \   000024   12....       LCALL   ??HalLedBlink?relay
    292                      osal_start_timerEx( SampleApp_TaskID, SAMPLEAPP_SEND_PERIODIC_MSG_EVT, SAMPLEAPP_SEND_PERIODIC_MSG_TIMEOUT ); // 开启定时器
   \   000027                ; Setup parameters for call to function osal_start_timerEx
   \   000027   12....       LCALL   ?Subroutine3 & 0xFFFF
    293                      IEN1 |= (0x1 << 5); // 开启端口0中断
   \                     ??CrossCallReturnLabel_10:
   \   00002A   D2BD         SETB    0xb8.5
    294                    }
    295                    break;
    296                    
    297                  default:        
    298                    break;
    299                }      
    300                
    301                osal_msg_deallocate( (uint8 *)MSGpkt );// Release the memory
   \                     ??SampleApp_ProcessEvent_3:
   \   00002C                ; Setup parameters for call to function osal_msg_deallocate
   \   00002C   EE           MOV     A,R6
   \   00002D   FA           MOV     R2,A
   \   00002E   EF           MOV     A,R7
   \   00002F   FB           MOV     R3,A
   \   000030   12....       LCALL   ??osal_msg_deallocate?relay
    302                MSGpkt = (afIncomingMSGPacket_t *)osal_msg_receive( SampleApp_TaskID );// Next - if one is available
   \   000033                ; Setup parameters for call to function osal_msg_receive
   \                     ??SampleApp_ProcessEvent_1:
   \   000033   90....       MOV     DPTR,#SampleApp_TaskID
   \   000036   E0           MOVX    A,@DPTR
   \   000037   F9           MOV     R1,A
   \   000038   12....       LCALL   ??osal_msg_receive?relay
   \   00003B   8A..         MOV     ?V0 + 2,R2
   \   00003D   8B..         MOV     ?V0 + 3,R3
   \   00003F   AE..         MOV     R6,?V0 + 2
   \   000041   AF..         MOV     R7,?V0 + 3
   \   000043   EE           MOV     A,R6
   \   000044   4F           ORL     A,R7
   \   000045   603B         JZ      ??SampleApp_ProcessEvent_4
   \   000047   8E82         MOV     DPL,R6
   \   000049   8F83         MOV     DPH,R7
   \   00004B   E0           MOVX    A,@DPTR
   \   00004C   24E6         ADD     A,#-0x1a
   \   00004E   6006         JZ      ??SampleApp_ProcessEvent_5
   \   000050   2449         ADD     A,#0x49
   \   000052   600B         JZ      ??SampleApp_ProcessEvent_6
   \   000054   80D6         SJMP    ??SampleApp_ProcessEvent_3
   \                     ??SampleApp_ProcessEvent_5:
   \   000056                ; Setup parameters for call to function SampleApp_MessageMSGCB
   \   000056   EE           MOV     A,R6
   \   000057   FA           MOV     R2,A
   \   000058   EF           MOV     A,R7
   \   000059   FB           MOV     R3,A
   \   00005A   12....       LCALL   ??SampleApp_MessageMSGCB?relay
   \   00005D   80CD         SJMP    ??SampleApp_ProcessEvent_3
   \                     ??SampleApp_ProcessEvent_6:
   \   00005F   A3           INC     DPTR
   \   000060   E0           MOVX    A,@DPTR
   \   000061   90....       MOV     DPTR,#SampleApp_NwkState
   \   000064   F0           MOVX    @DPTR,A
   \   000065   6409         XRL     A,#0x9
   \   000067   7012         JNZ     ??SampleApp_ProcessEvent_7
   \   000069                ; Setup parameters for call to function osal_start_timerEx
   \   000069   12....       LCALL   ?Subroutine3 & 0xFFFF
   \   00006C                ; Setup parameters for call to function HalLedBlink
   \                     ??CrossCallReturnLabel_11:
   \   00006C   7CFA         MOV     R4,#-0x6
   \   00006E   7D00         MOV     R5,#0x0
   \   000070   7B32         MOV     R3,#0x32
   \   000072   7A03         MOV     R2,#0x3
   \   000074   7902         MOV     R1,#0x2
   \   000076   12....       LCALL   ??HalLedBlink?relay
   \   000079   80B1         SJMP    ??SampleApp_ProcessEvent_3
   \                     ??SampleApp_ProcessEvent_7:
   \   00007B   E0           MOVX    A,@DPTR
   \   00007C   6407         XRL     A,#0x7
   \   00007E   7090         JNZ     ??SampleApp_ProcessEvent_2
   \   000080                ; Setup parameters for call to function HalLedBlink
   \   000080   80EA         SJMP    ??CrossCallReturnLabel_11
    303              }
    304              
    305              // return unprocessed events
    306              return (events ^ SYS_EVENT_MSG);
   \                     ??SampleApp_ProcessEvent_4:
   \   000082   AA..         MOV     R2,?V0 + 0
   \   000084   E5..         MOV     A,?V0 + 1
   \   000086   6480         XRL     A,#0x80
   \   000088   FB           MOV     R3,A
   \   000089   02....       LJMP    ??SampleApp_ProcessEvent_8 & 0xFFFF
    307            }
    308          
    309            // 接收到一个定时器事件
    310            if ( events & SAMPLEAPP_SEND_PERIODIC_MSG_EVT )
   \                     ??SampleApp_ProcessEvent_0:
   \   00008C   EA           MOV     A,R2
   \   00008D   A2E0         MOV     C,0xE0 /* A   */.0
   \   00008F   5014         JNC     ??SampleApp_ProcessEvent_9
    311            {
    312          #ifdef ZDO_COORDINATOR // 协调器
    313              SampleApp_SendHeartBeatMessageCoor(); // 协调器心跳功能函数，同时检测掉线的终端，将掉线信息发送到服务器
    314              osal_start_timerEx( SampleApp_TaskID, SAMPLEAPP_SEND_PERIODIC_MSG_EVT, SAMPLEAPP_SEND_PERIODIC_MSG_TIMEOUT); // 1000ms再次开启定时器
    315          #endif
    316              
    317          #ifdef END_DEVICE // 终端设备
    318              EndDeviceSendHeartBeat(); // 终端心跳功能函数，心跳函数中还检查彩票引脚输出信号，一定时间内没有彩票出来则上传出彩票结果
   \   000091                ; Setup parameters for call to function EndDeviceSendHeartBeat
   \   000091   12....       LCALL   ??EndDeviceSendHeartBeat?relay
    319              osal_start_timerEx( SampleApp_TaskID, SAMPLEAPP_SEND_PERIODIC_MSG_EVT, SAMPLEAPP_SEND_PERIODIC_MSG_TIMEOUT*3/2); // 1500ms再次开启定时器
   \   000094                ; Setup parameters for call to function osal_start_timerEx
   \   000094   7CDC         MOV     R4,#-0x24
   \   000096   7D05         MOV     R5,#0x5
   \   000098   12....       LCALL   ??Subroutine8_0 & 0xFFFF
    320          #endif
    321              
    322              return (events ^ SAMPLEAPP_SEND_PERIODIC_MSG_EVT); // 清除此已经处理事件标志位
   \                     ??CrossCallReturnLabel_12:
   \   00009B   E5..         MOV     A,?V0 + 0
   \   00009D   6401         XRL     A,#0x1
   \                     ??SampleApp_ProcessEvent_10:
   \   00009F   FA           MOV     R2,A
   \   0000A0   AB..         MOV     R3,?V0 + 1
   \   0000A2   02....       LJMP    ??SampleApp_ProcessEvent_8 & 0xFFFF
    323            }  
    324          
    325          #ifdef END_DEVICE  // 接收到线上金币的开启信号，模拟电平变化的定时器事件
    326            else if(events & SAMPLEAPP_SIMULATE_COIN_MSG_EVT) {
   \                     ??SampleApp_ProcessEvent_9:
   \   0000A5   5402         ANL     A,#0x2
   \   0000A7   604C         JZ      ??SampleApp_ProcessEvent_11
    327              myprintf("Get COIN_MSG_EVT, NeedCoinDelivered = %d, events = 0x%x\n", NeedCoinDelivered, events);    
   \   0000A9                ; Setup parameters for call to function myprintf
   \   0000A9   78..         MOV     R0,#?V0 + 0
   \   0000AB   12....       LCALL   ?PUSH_XSTACK_I_TWO
   \   0000AE   90....       MOV     DPTR,#NeedCoinDelivered
   \   0000B1   E0           MOVX    A,@DPTR
   \   0000B2   F5..         MOV     ?V0 + 2,A
   \   0000B4   33           RLC     A
   \   0000B5   95E0         SUBB    A,0xE0 /* A   */
   \   0000B7   F5..         MOV     ?V0 + 3,A
   \   0000B9   78..         MOV     R0,#?V0 + 2
   \   0000BB   12....       LCALL   ?PUSH_XSTACK_I_TWO
   \   0000BE   7A..         MOV     R2,#`?<Constant "Get COIN_MSG_EVT, Nee...">` & 0xff
   \   0000C0   7B..         MOV     R3,#(`?<Constant "Get COIN_MSG_EVT, Nee...">` >> 8) & 0xff
   \   0000C2   12....       LCALL   ??myprintf?relay
   \   0000C5   7404         MOV     A,#0x4
   \   0000C7   12....       LCALL   ?DEALLOC_XSTACK8
    328              if(COIN_SIMULATE_PIN == 1) {
   \   0000CA   A292         MOV     C,0x90.2
   \   0000CC   5004         JNC     ??SampleApp_ProcessEvent_12
    329                COIN_SIMULATE_PIN = 0; // 产生一个下降沿
   \   0000CE   C292         CLR     0x90.2
   \   0000D0   800C         SJMP    ??SampleApp_ProcessEvent_13
    330              } else if(COIN_SIMULATE_PIN == 0) {
   \                     ??SampleApp_ProcessEvent_12:
   \   0000D2   A292         MOV     C,0x90.2
   \   0000D4   4008         JC      ??SampleApp_ProcessEvent_13
    331                COIN_SIMULATE_PIN = 1; // 完整产生了一个脉冲
   \   0000D6   D292         SETB    0x90.2
    332                NeedCoinDelivered--;
   \   0000D8   90....       MOV     DPTR,#NeedCoinDelivered
   \   0000DB   E0           MOVX    A,@DPTR
   \   0000DC   14           DEC     A
   \   0000DD   F0           MOVX    @DPTR,A
    333              }
    334              if(NeedCoinDelivered > 0) { // 还需要开启定时器
   \                     ??SampleApp_ProcessEvent_13:
   \   0000DE   90....       MOV     DPTR,#NeedCoinDelivered
   \   0000E1   12....       LCALL   ?Subroutine4 & 0xFFFF
   \                     ??CrossCallReturnLabel_0:
   \   0000E4   4009         JC      ??CrossCallReturnLabel_13
    335                osal_start_timerEx( SampleApp_TaskID, SAMPLEAPP_SIMULATE_COIN_MSG_EVT, COIN_SIGNAL_HALF_TIME); // 低电平和高电平至少保持50ms
   \   0000E6                ; Setup parameters for call to function osal_start_timerEx
   \   0000E6   7C32         MOV     R4,#0x32
   \   0000E8   7D00         MOV     R5,#0x0
   \   0000EA   7A02         MOV     R2,#0x2
   \   0000EC   12....       LCALL   ??Subroutine9_0 & 0xFFFF
    336              } 
    337              
    338              return (events ^ SAMPLEAPP_SIMULATE_COIN_MSG_EVT);
   \                     ??CrossCallReturnLabel_13:
   \   0000EF   E5..         MOV     A,?V0 + 0
   \   0000F1   6402         XRL     A,#0x2
   \   0000F3   80AA         SJMP    ??SampleApp_ProcessEvent_10
    339            } 
    340            else if(events & SAMPLEAPP_TRANSPORT_COIN_MSG_EVT) { // 需要转发投币器的投币信号
   \                     ??SampleApp_ProcessEvent_11:
   \   0000F5   EA           MOV     A,R2
   \   0000F6   5404         ANL     A,#0x4
   \   0000F8   602C         JZ      ??SampleApp_ProcessEvent_14
    341              //myprintf("Get transport coin EVT, NeedCoinTransport = %d\n", NeedCoinTransport);
    342              
    343              if(COIN_SIMULATE_PIN == 1) {
   \   0000FA   A292         MOV     C,0x90.2
   \   0000FC   5004         JNC     ??SampleApp_ProcessEvent_15
    344                COIN_SIMULATE_PIN = 0; // 产生一个下降沿
   \   0000FE   C292         CLR     0x90.2
   \   000100   800C         SJMP    ??SampleApp_ProcessEvent_16
    345              } else if(COIN_SIMULATE_PIN == 0) {
   \                     ??SampleApp_ProcessEvent_15:
   \   000102   A292         MOV     C,0x90.2
   \   000104   4008         JC      ??SampleApp_ProcessEvent_16
    346                COIN_SIMULATE_PIN = 1; // 完整产生了一个脉冲
   \   000106   D292         SETB    0x90.2
    347                NeedCoinTransport--;
   \   000108   90....       MOV     DPTR,#NeedCoinTransport
   \   00010B   E0           MOVX    A,@DPTR
   \   00010C   14           DEC     A
   \   00010D   F0           MOVX    @DPTR,A
    348              }
    349              if(NeedCoinTransport > 0) { // 还需要开启定时器
   \                     ??SampleApp_ProcessEvent_16:
   \   00010E   90....       MOV     DPTR,#NeedCoinTransport
   \   000111   12....       LCALL   ?Subroutine4 & 0xFFFF
   \                     ??CrossCallReturnLabel_1:
   \   000114   4009         JC      ??CrossCallReturnLabel_14
    350                osal_start_timerEx( SampleApp_TaskID, SAMPLEAPP_TRANSPORT_COIN_MSG_EVT, COIN_SIGNAL_HALF_TIME); // 低电平和高电平至少保持50ms
   \   000116                ; Setup parameters for call to function osal_start_timerEx
   \   000116   7C32         MOV     R4,#0x32
   \   000118   7D00         MOV     R5,#0x0
   \   00011A   7A04         MOV     R2,#0x4
   \   00011C   12....       LCALL   ??Subroutine9_0 & 0xFFFF
    351              }
    352              return (events ^ SAMPLEAPP_TRANSPORT_COIN_MSG_EVT);
   \                     ??CrossCallReturnLabel_14:
   \   00011F   E5..         MOV     A,?V0 + 0
   \   000121   6404         XRL     A,#0x4
   \   000123   02....       LJMP    ??SampleApp_ProcessEvent_10 & 0xFFFF
    353            }
    354          #endif  
    355          
    356            return 0;
   \                     ??SampleApp_ProcessEvent_14:
   \   000126   7A00         MOV     R2,#0x0
   \   000128   7B00         MOV     R3,#0x0
   \                     ??SampleApp_ProcessEvent_8:
   \   00012A                REQUIRE ?Subroutine1
   \   00012A                REQUIRE _A_IEN1
   \   00012A                REQUIRE _A_P1
   \   00012A                ; // Fall through to label ?Subroutine1
    357          }

   \                                 In  segment BANKED_CODE, align 1, keep-with-next
   \                     ?Subroutine1:
   \   000000   7F04         MOV     R7,#0x4
   \   000002   02....       LJMP    ?BANKED_LEAVE_XDATA

   \                                 In  segment BANKED_CODE, align 1, keep-with-next
   \                     ?Subroutine4:
   \   000000   E0           MOVX    A,@DPTR
   \   000001   C3           CLR     C
   \   000002   9401         SUBB    A,#0x1
   \   000004   A2D2         MOV     C,0xD0 /* PSW */.2
   \   000006   65D0         XRL     A,PSW
   \   000008   33           RLC     A
   \   000009   22           RET

   \                                 In  segment BANKED_CODE, align 1, keep-with-next
   \                     ?Subroutine3:
   \   000000   7CE8         MOV     R4,#-0x18
   \   000002   7D03         MOV     R5,#0x3
   \   000004                REQUIRE ??Subroutine8_0
   \   000004                ; // Fall through to label ??Subroutine8_0

   \                                 In  segment BANKED_CODE, align 1, keep-with-next
   \                     ??Subroutine8_0:
   \   000000   7A01         MOV     R2,#0x1
   \   000002                REQUIRE ??Subroutine9_0
   \   000002                ; // Fall through to label ??Subroutine9_0

   \                                 In  segment BANKED_CODE, align 1, keep-with-next
   \                     ??Subroutine9_0:
   \   000000   7B00         MOV     R3,#0x0
   \   000002   90....       MOV     DPTR,#SampleApp_TaskID
   \   000005   E0           MOVX    A,@DPTR
   \   000006   F9           MOV     R1,A
   \   000007   12....       LCALL   ??osal_start_timerEx?relay
   \   00000A   22           RET
    358          
    359          /*********************************************************************
    360          * LOCAL FUNCTIONS
    361          */
    362          #define INIT_LEFT_SEC 5
    363          #ifdef NEED_TEST_DIStANCE
    364          uint16 recvTestMsgCount = 0;
    365          #endif

   \                                 In  segment BANKED_CODE, align 1, keep-with-next
    366          void SampleApp_MessageMSGCB( afIncomingMSGPacket_t *pkt )
   \                     SampleApp_MessageMSGCB:
    367          {
   \   000000   74F6         MOV     A,#-0xa
   \   000002   12....       LCALL   ?BANKED_ENTER_XDATA
   \   000005                ; Saved register size: 10
   \   000005                ; Auto size: 33
   \   000005   74DF         MOV     A,#-0x21
   \   000007   12....       LCALL   ?ALLOC_XSTACK8
    368            uint8* buffer = NULL;
    369            uint8 recvLen = 0;
    370            uint8 outputBuffer[SERIAL_BUFFER_SIZE] = {0};
   \   00000A   90....       MOV     DPTR,#`?<Constant {0}>`
   \   00000D   C082         PUSH    DPL
   \   00000F   7401         MOV     A,#0x1
   \   000011   12....       LCALL   ?XSTACK_DISP0_8
   \   000014   AC82         MOV     R4,DPL
   \   000016   AD83         MOV     R5,DPH
   \   000018   7583..       MOV     DPH,#(`?<Constant {0}>` >> 8) & 0xff
   \   00001B   D082         POP     DPL
   \   00001D   7420         MOV     A,#0x20
   \   00001F   12....       LCALL   ?MOVE_LONG8_XDATA_XDATA
    371            uint8 outputLen = 0;
   \   000022   85..82       MOV     DPL,?XSP + 0
   \   000025   85..83       MOV     DPH,?XSP + 1
   \   000028   F0           MOVX    @DPTR,A
    372            bool check = false;
    373            uint8 cmd = 0x0;
    374            
    375            // 协调器在发送数据的时候指定的此消息对应的命令字，即表示哪种类型的控制命令
    376            if(pkt->clusterId == SAMPLEAPP_PERIODIC_CLUSTERID) {
   \   000029   8A82         MOV     DPL,R2
   \   00002B   8B83         MOV     DPH,R3
   \   00002D   A3           INC     DPTR
   \   00002E   A3           INC     DPTR
   \   00002F   A3           INC     DPTR
   \   000030   A3           INC     DPTR
   \   000031   E0           MOVX    A,@DPTR
   \   000032   6401         XRL     A,#0x1
   \   000034   7002         JNZ     ??SampleApp_MessageMSGCB_0
   \   000036   A3           INC     DPTR
   \   000037   E0           MOVX    A,@DPTR
   \                     ??SampleApp_MessageMSGCB_0:
   \   000038   6003         JZ      $+5
   \   00003A   02....       LJMP    ??SampleApp_MessageMSGCB_1 & 0xFFFF
    377              //pkt->cmd.Data数据数组; pkt->cmd.DataLength 数据长度
    378              buffer = pkt->cmd.Data;
    379              recvLen = pkt->cmd.DataLength;
    380              re_replace_data(buffer, recvLen, outputBuffer, &outputLen); // 还原被替换的特殊数据
   \   00003D                ; Setup parameters for call to function re_replace_data
   \   00003D   85..82       MOV     DPL,?XSP + 0
   \   000040   85..83       MOV     DPH,?XSP + 1
   \   000043   8582..       MOV     ?V0 + 0,DPL
   \   000046   8583..       MOV     ?V0 + 1,DPH
   \   000049   78..         MOV     R0,#?V0 + 0
   \   00004B   12....       LCALL   ?PUSH_XSTACK_I_TWO
   \   00004E   7403         MOV     A,#0x3
   \   000050   12....       LCALL   ?XSTACK_DISP0_8
   \   000053   AC82         MOV     R4,DPL
   \   000055   AD83         MOV     R5,DPH
   \   000057   EA           MOV     A,R2
   \   000058   2420         ADD     A,#0x20
   \   00005A   F582         MOV     DPL,A
   \   00005C   EB           MOV     A,R3
   \   00005D   3400         ADDC    A,#0x0
   \   00005F   F583         MOV     DPH,A
   \   000061   E0           MOVX    A,@DPTR
   \   000062   F9           MOV     R1,A
   \   000063   EA           MOV     A,R2
   \   000064   2422         ADD     A,#0x22
   \   000066   F582         MOV     DPL,A
   \   000068   EB           MOV     A,R3
   \   000069   3400         ADDC    A,#0x0
   \   00006B   F583         MOV     DPH,A
   \   00006D   E0           MOVX    A,@DPTR
   \   00006E   FA           MOV     R2,A
   \   00006F   A3           INC     DPTR
   \   000070   E0           MOVX    A,@DPTR
   \   000071   FB           MOV     R3,A
   \   000072   12....       LCALL   ??re_replace_data?relay
   \   000075   7402         MOV     A,#0x2
   \   000077   12....       LCALL   ?DEALLOC_XSTACK8
    381              check = check_xor(outputBuffer, outputLen); // 数据校验
   \   00007A                ; Setup parameters for call to function check_xor
   \   00007A   85..82       MOV     DPL,?XSP + 0
   \   00007D   85..83       MOV     DPH,?XSP + 1
   \   000080   E0           MOVX    A,@DPTR
   \   000081   F9           MOV     R1,A
   \   000082   7401         MOV     A,#0x1
   \   000084   12....       LCALL   ?XSTACK_DISP0_8
   \   000087   AA82         MOV     R2,DPL
   \   000089   AB83         MOV     R3,DPH
   \   00008B   12....       LCALL   ??check_xor?relay
   \   00008E   E9           MOV     A,R1
   \   00008F   F8           MOV     R0,A
    382              cmd = outputBuffer[1];  
   \   000090   7402         MOV     A,#0x2
   \   000092   12....       LCALL   ?XSTACK_DISP0_8
   \   000095   E0           MOVX    A,@DPTR
   \   000096   F9           MOV     R1,A
    383              
    384          //协调器接收到终端的无线数据 
    385          #ifdef ZDO_COORDINATOR
    386              if(check) {      
    387                int8 ret = 0;
    388                if(cmd == ENDDEVICE_NETWORK_READY) { // 终端入网
    389                  uint8 machineId = outputBuffer[4];
    390                  ret = checkEPIsInListByMachineId(LL, machineId);
    391                  if(ret != -1) { // 已经在链表中，更新倒计时
    392                    updateListEleStatus(LL, ret, INIT_LEFT_SEC);       
    393                  } else if(ret == -1) { // 没有在链表中
    394                    ListInsert_L(LL, ListLength_L(LL)+1, outputBuffer[4], outputBuffer[5], outputBuffer[6], &outputBuffer[7], INIT_LEFT_SEC); // 添加一个线性列表元素到链表尾部 
    395                    printAddrInfoHex(outputBuffer+5, 10); // 打印中断的长短地址信息
    396                  }
    397                  // myprintf("length = %d\n", ListLength_L(LL));      
    398                } else if(cmd == ENDDEVICE_HEARTBEAT) { // 终端心跳
    399                  uint8 machineId = outputBuffer[4];
    400                  ret = checkEPIsInListByMachineId(LL, machineId);
    401                  if(ret != -1) { // 已经在链表中，更新倒计时
    402                    updateListEleStatus(LL, ret, INIT_LEFT_SEC);
    403                  }
    404                } else if(cmd == ENDDEVICE_REPLY_RECVED_COIN || cmd == ENDDEVICE_REPORT_GAME_REWARD) { // 将数据转发到树莓派，回复收到投币命令、上报游戏奖励彩票个数
    405                  mySendByteBuf(outputBuffer, outputLen);        
    406                }          
    407              }
    408          #endif    
    409              
    410          #ifdef END_DEVICE //终端接收数据处理
    411              if(check) {
   \   000097   E8           MOV     A,R0
   \   000098   604F         JZ      ??SampleApp_MessageMSGCB_2
    412                if(cmd == TO_PAY_COIN) { // 服务器发送的模拟投币动作
   \   00009A   7450         MOV     A,#0x50
   \   00009C   69           XRL     A,R1
   \   00009D   7036         JNZ     ??SampleApp_MessageMSGCB_3
    413                  NeedCoinDelivered = outputBuffer[4];
   \   00009F   7405         MOV     A,#0x5
   \   0000A1   12....       LCALL   ?XSTACK_DISP0_8
   \   0000A4   E0           MOVX    A,@DPTR
   \   0000A5   90....       MOV     DPTR,#NeedCoinDelivered
   \   0000A8   F0           MOVX    @DPTR,A
    414                  COIN_SIMULATE_PIN = 1; // 初始高电平
   \   0000A9   D292         SETB    0x90.2
    415                  osal_start_timerEx( SampleApp_TaskID, SAMPLEAPP_SIMULATE_COIN_MSG_EVT, COIN_SIGNAL_HALF_TIME); // 产生定时器事件                
   \   0000AB                ; Setup parameters for call to function osal_start_timerEx
   \   0000AB   7C32         MOV     R4,#0x32
   \   0000AD   7D00         MOV     R5,#0x0
   \   0000AF   7A02         MOV     R2,#0x2
   \   0000B1   12....       LCALL   ??Subroutine9_0 & 0xFFFF
    416                  
    417                  EndDeviceSendAfMessageByCmd(ENDDEVICE_REPLY_RECVED_COIN); //回复已经收到投币命令
   \                     ??CrossCallReturnLabel_15:
   \   0000B4                ; Setup parameters for call to function EndDeviceSendAfMessageByCmd
   \   0000B4   7982         MOV     R1,#-0x7e
   \   0000B6   12....       LCALL   ??EndDeviceSendAfMessageByCmd?relay
    418                  myprintf("NeedCoinDelivered = %d\n", NeedCoinDelivered);        
   \   0000B9                ; Setup parameters for call to function myprintf
   \   0000B9   90....       MOV     DPTR,#NeedCoinDelivered
   \   0000BC   E0           MOVX    A,@DPTR
   \   0000BD   F5..         MOV     ?V0 + 0,A
   \   0000BF   33           RLC     A
   \   0000C0   95E0         SUBB    A,0xE0 /* A   */
   \   0000C2   F5..         MOV     ?V0 + 1,A
   \   0000C4   78..         MOV     R0,#?V0 + 0
   \   0000C6   12....       LCALL   ?PUSH_XSTACK_I_TWO
   \   0000C9   7A..         MOV     R2,#`?<Constant "NeedCoinDelivered = %d\\n">` & 0xff
   \   0000CB   7B..         MOV     R3,#(`?<Constant "NeedCoinDelivered = %d\\n">` >> 8) & 0xff
   \   0000CD   12....       LCALL   ?Subroutine5 & 0xFFFF
    419                } else if(cmd == TEST_DISTANCE_FLASH_LED) {
   \                     ??CrossCallReturnLabel_2:
   \   0000D0   12....       LCALL   ?DEALLOC_XSTACK8
   \   0000D3   801B         SJMP    ??SampleApp_MessageMSGCB_1
   \                     ??SampleApp_MessageMSGCB_3:
   \   0000D5   7451         MOV     A,#0x51
   \   0000D7   69           XRL     A,R1
   \   0000D8   7016         JNZ     ??SampleApp_MessageMSGCB_1
    420                  HalLedBlink(HAL_LED_1, 1, 50, 500);
   \   0000DA                ; Setup parameters for call to function HalLedBlink
   \   0000DA   7CF4         MOV     R4,#-0xc
   \   0000DC   7D01         MOV     R5,#0x1
   \   0000DE   7B32         MOV     R3,#0x32
   \   0000E0   7A01         MOV     R2,#0x1
   \   0000E2   7901         MOV     R1,#0x1
   \   0000E4   12....       LCALL   ??HalLedBlink?relay
   \   0000E7   8007         SJMP    ??SampleApp_MessageMSGCB_1
    421          #ifdef NEED_TEST_DIStANCE
    422                  recvTestMsgCount++;
    423                  HalLcdWriteString("Recv:", HAL_LCD_LINE_5);
    424                  convertHexToStrLCD(recvTestMsgCount, HAL_LCD_LINE_6);
    425          #endif 
    426                }    
    427              } else {
    428                myprintf("end device check af data failed\n");
   \                     ??SampleApp_MessageMSGCB_2:
   \   0000E9                ; Setup parameters for call to function myprintf
   \   0000E9   7A..         MOV     R2,#`?<Constant "end device check af d...">` & 0xff
   \   0000EB   7B..         MOV     R3,#(`?<Constant "end device check af d...">` >> 8) & 0xff
   \   0000ED   12....       LCALL   ??myprintf?relay
    429              }     
    430          #endif        
    431            }
    432          }
   \                     ??SampleApp_MessageMSGCB_1:
   \   0000F0   7421         MOV     A,#0x21
   \   0000F2                REQUIRE ?Subroutine2
   \   0000F2                REQUIRE _A_P1
   \   0000F2                ; // Fall through to label ?Subroutine2

   \                                 In  segment BANKED_CODE, align 1, keep-with-next
   \                     ?Subroutine2:
   \   000000   12....       LCALL   ?DEALLOC_XSTACK8
   \   000003   7F02         MOV     R7,#0x2
   \   000005   02....       LJMP    ?BANKED_LEAVE_XDATA

   \                                 In  segment BANKED_CODE, align 1, keep-with-next
   \                     ?Subroutine5:
   \   000000   12....       LCALL   ??myprintf?relay
   \   000003   7402         MOV     A,#0x2
   \   000005   22           RET
    433          
    434          /**
    435            协调器心跳功能函数
    436          */
    437          #ifdef NEED_TEST_DIStANCE
    438            uint16 totalSendTestCount = 0;
    439            uint16 sendTestCount = 0;
    440          #endif  

   \                                 In  segment BANKED_CODE, align 1, keep-with-next
    441          void SampleApp_SendHeartBeatMessageCoor(void) {  
   \                     SampleApp_SendHeartBeatMessageCoor:
   \   000000   C082         PUSH    DPL
   \   000002   C083         PUSH    DPH
   \   000004                ; Saved register size: 2
   \   000004                ; Auto size: 0
    442            // 将终端列表中元素在线时长减1，如果检测到超时则将IEEE发送到上位机
    443            decAllListEPLeftSec(LL); 
   \   000004                ; Setup parameters for call to function decAllListEPLeftSec
   \   000004   90....       MOV     DPTR,#LL
   \   000007   E0           MOVX    A,@DPTR
   \   000008   FA           MOV     R2,A
   \   000009   A3           INC     DPTR
   \   00000A   E0           MOVX    A,@DPTR
   \   00000B   FB           MOV     R3,A
   \   00000C   12....       LCALL   ??decAllListEPLeftSec?relay
    444            HalLedBlink(HAL_LED_1, 1, 50, 500);
   \   00000F                ; Setup parameters for call to function HalLedBlink
   \   00000F   7CF4         MOV     R4,#-0xc
   \   000011   7D01         MOV     R5,#0x1
   \   000013   7B32         MOV     R3,#0x32
   \   000015   7A01         MOV     R2,#0x1
   \   000017   7901         MOV     R1,#0x1
   \   000019   12....       LCALL   ??HalLedBlink?relay
    445          #ifdef NEED_TEST_DIStANCE  
    446            // 发送稳定性测试数据到终端设备
    447            totalSendTestCount++;
    448            if(totalSendTestCount % 3 == 0) {
    449              SampleApp_SendPeriodicMessage(1);
    450              myprintf("sendTestCount = %d\n", totalSendTestCount); // 串口打印发送的次数
    451            }
    452          #endif  
    453          }
   \   00001C   D083         POP     DPH
   \   00001E   D082         POP     DPL
   \   000020   02....       LJMP    ?BRET
    454          
    455          /**
    456            终端心跳函数，用于定时向协调器发送心跳，包含本终端机器编号
    457          */

   \                                 In  segment BANKED_CODE, align 1, keep-with-next
    458          void EndDeviceSendHeartBeat(void) {
   \                     EndDeviceSendHeartBeat:
   \   000000   74F4         MOV     A,#-0xc
   \   000002   12....       LCALL   ?BANKED_ENTER_XDATA
   \   000005                ; Saved register size: 12
   \   000005                ; Auto size: 0
    459            EndDeviceSendAfMessageByCmd(ENDDEVICE_HEARTBEAT);
   \   000005                ; Setup parameters for call to function EndDeviceSendAfMessageByCmd
   \   000005   7981         MOV     R1,#-0x7f
   \   000007   12....       LCALL   ??EndDeviceSendAfMessageByCmd?relay
    460            HalLedBlink(HAL_LED_1, 1, 50, 500);
   \   00000A                ; Setup parameters for call to function HalLedBlink
   \   00000A   7CF4         MOV     R4,#-0xc
   \   00000C   7D01         MOV     R5,#0x1
   \   00000E   7B32         MOV     R3,#0x32
   \   000010   7A01         MOV     R2,#0x1
   \   000012   7901         MOV     R1,#0x1
   \   000014   12....       LCALL   ??HalLedBlink?relay
    461            
    462            if(startRewardInterrupt == 1 && (osal_getClock() - lastRecvRewardSecTime) >= 2) { // 如果触发了奖励中断，且奖励结束距离当前时间大于指定时间则认为是一次奖励结束
   \   000017   90....       MOV     DPTR,#startRewardInterrupt
   \   00001A   E0           MOVX    A,@DPTR
   \   00001B   6401         XRL     A,#0x1
   \   00001D   704A         JNZ     ??EndDeviceSendHeartBeat_0
   \   00001F                ; Setup parameters for call to function osal_getClock
   \   00001F   12....       LCALL   ??osal_getClock?relay
   \   000022   8A..         MOV     ?V0 + 0,R2
   \   000024   8B..         MOV     ?V0 + 1,R3
   \   000026   8C..         MOV     ?V0 + 2,R4
   \   000028   8D..         MOV     ?V0 + 3,R5
   \   00002A   90....       MOV     DPTR,#lastRecvRewardSecTime
   \   00002D   78..         MOV     R0,#?V0 + 0
   \   00002F   12....       LCALL   ?L_SUB_X
   \   000032   90....       MOV     DPTR,#__Constant_2
   \   000035   78..         MOV     R0,#?V0 + 0
   \   000037   12....       LCALL   ?UL_GE_X
   \   00003A   502D         JNC     ??EndDeviceSendHeartBeat_0
    463              if(rewardCount == 0) {
   \   00003C   90....       MOV     DPTR,#rewardCount
   \   00003F   E0           MOVX    A,@DPTR
   \   000040   7006         JNZ     ??EndDeviceSendHeartBeat_1
    464                startRewardInterrupt = 0;
   \   000042   90....       MOV     DPTR,#startRewardInterrupt
   \   000045   E4           CLR     A
   \   000046   8020         SJMP    ??EndDeviceSendHeartBeat_2
    465                return;
    466              }    
    467              EndDeviceSendAfMessageByCmd(ENDDEVICE_REPORT_GAME_REWARD); // 发送奖励彩票个数到协调器
   \                     ??EndDeviceSendHeartBeat_1:
   \   000048                ; Setup parameters for call to function EndDeviceSendAfMessageByCmd
   \   000048   7983         MOV     R1,#-0x7d
   \   00004A   12....       LCALL   ??EndDeviceSendAfMessageByCmd?relay
    468              myprintf("Upload reward result count, rewardCount = %d\n", rewardCount);    
   \   00004D                ; Setup parameters for call to function myprintf
   \   00004D   90....       MOV     DPTR,#rewardCount
   \   000050   12....       LCALL   ?Subroutine6 & 0xFFFF
   \                     ??CrossCallReturnLabel_6:
   \   000053   12....       LCALL   ?PUSH_XSTACK_I_TWO
   \   000056   7A..         MOV     R2,#`?<Constant "Upload reward result ...">` & 0xff
   \   000058   7B..         MOV     R3,#(`?<Constant "Upload reward result ...">` >> 8) & 0xff
   \   00005A   12....       LCALL   ?Subroutine5 & 0xFFFF
   \                     ??CrossCallReturnLabel_3:
   \   00005D   12....       LCALL   ?DEALLOC_XSTACK8
    469              rewardCount = 0; // 置0
   \   000060   90....       MOV     DPTR,#rewardCount
   \   000063   E4           CLR     A
   \   000064   F0           MOVX    @DPTR,A
    470              startRewardInterrupt = 0;    
   \   000065   90....       MOV     DPTR,#startRewardInterrupt
   \                     ??EndDeviceSendHeartBeat_2:
   \   000068   F0           MOVX    @DPTR,A
    471            }
   \                     ??EndDeviceSendHeartBeat_0:
   \   000069   02....       LJMP    ?Subroutine1 & 0xFFFF
    472          }

   \                                 In  segment BANKED_CODE, align 1, keep-with-next
   \                     ?Subroutine6:
   \   000000   E0           MOVX    A,@DPTR
   \   000001   F5..         MOV     ?V0 + 0,A
   \   000003   75..00       MOV     ?V0 + 1,#0x0
   \   000006   78..         MOV     R0,#?V0 + 0
   \   000008   22           RET
    473          
    474          /**
    475            终端用于发送各种信息到协调器
    476          */

   \                                 In  segment BANKED_CODE, align 1, keep-with-next
    477          void EndDeviceSendAfMessageByCmd(uint8 cmd) {
   \                     EndDeviceSendAfMessageByCmd:
   \   000000   74F5         MOV     A,#-0xb
   \   000002   12....       LCALL   ?BANKED_ENTER_XDATA
   \   000005                ; Saved register size: 11
   \   000005                ; Auto size: 65
   \   000005   74BF         MOV     A,#-0x41
   \   000007   12....       LCALL   ?ALLOC_XSTACK8
   \   00000A   E9           MOV     A,R1
   \   00000B   FE           MOV     R6,A
    478            uint8 strBuf[SEND_BUF_SIZE] = {0};
   \   00000C   7401         MOV     A,#0x1
   \   00000E   12....       LCALL   ?XSTACK_DISP0_8
   \   000011   AC82         MOV     R4,DPL
   \   000013   AD83         MOV     R5,DPH
   \   000015   7583..       MOV     DPH,#(`?<Constant {0}>_1` >> 8) & 0xff
   \   000018   7582..       MOV     DPL,#`?<Constant {0}>_1` & 0xff
   \   00001B   7420         MOV     A,#0x20
   \   00001D   12....       LCALL   ?MOVE_LONG8_XDATA_XDATA
    479            uint8 strBufLen = 0;
   \   000020   F9           MOV     R1,A
    480            uint8 outputBuf[SEND_BUF_SIZE] = {0};
   \   000021   7583..       MOV     DPH,#(`?<Constant {0}>_2` >> 8) & 0xff
   \   000024   7582..       MOV     DPL,#`?<Constant {0}>_2` & 0xff
   \   000027   7420         MOV     A,#0x20
   \   000029   12....       LCALL   ?MOVE_LONG8_XDATA_XDATA
    481            uint8 outputBufLen = 0;
   \   00002C   85..82       MOV     DPL,?XSP + 0
   \   00002F   85..83       MOV     DPH,?XSP + 1
   \   000032   F0           MOVX    @DPTR,A
    482            
    483            if(cmd == ENDDEVICE_NETWORK_READY) {
   \   000033   7480         MOV     A,#-0x80
   \   000035   6E           XRL     A,R6
   \   000036   7040         JNZ     ??EndDeviceSendAfMessageByCmd_0
    484              uint16 shortAddr = NLME_GetShortAddr(); // 获取自身网络设备地址，获取父设备网络地址：uint16 NLME_GetCoordShortAddr( void );  
   \   000038                ; Setup parameters for call to function NLME_GetShortAddr
   \   000038   12....       LCALL   ??NLME_GetShortAddr?relay
    485              strBuf[0] = MACHINE_ID; // 此终端编号
   \   00003B   7401         MOV     A,#0x1
   \   00003D   12....       LCALL   ?XSTACK_DISP0_8
   \   000040   7401         MOV     A,#0x1
   \   000042   F0           MOVX    @DPTR,A
    486              strBuf[1] = HI_UINT16(shortAddr); // 存放地址的高8位
   \   000043   04           INC     A
   \   000044   12....       LCALL   ?XSTACK_DISP0_8
   \   000047   EB           MOV     A,R3
   \   000048   F0           MOVX    @DPTR,A
    487              strBuf[2] = LO_UINT16(shortAddr); // 存放低8位
   \   000049   7403         MOV     A,#0x3
   \   00004B   12....       LCALL   ?XSTACK_DISP0_8
   \   00004E   EA           MOV     A,R2
   \   00004F   F0           MOVX    @DPTR,A
    488              osal_memcpy(&strBuf[3], NLME_GetExtAddr(), 8); // 复制IEEE地址  
   \   000050                ; Setup parameters for call to function osal_memcpy
   \   000050                ; Setup parameters for call to function NLME_GetExtAddr
   \   000050   12....       LCALL   ??NLME_GetExtAddr?relay
   \   000053   8A..         MOV     ?V0 + 0,R2
   \   000055   8B..         MOV     ?V0 + 1,R3
   \   000057   75..00       MOV     ?V0 + 2,#0x0
   \   00005A   78..         MOV     R0,#?V0 + 0
   \   00005C   12....       LCALL   ?PUSH_XSTACK_I_THREE
   \   00005F   7C08         MOV     R4,#0x8
   \   000061   7D00         MOV     R5,#0x0
   \   000063   7407         MOV     A,#0x7
   \   000065   12....       LCALL   ?XSTACK_DISP0_8
   \   000068   AA82         MOV     R2,DPL
   \   00006A   AB83         MOV     R3,DPH
   \   00006C   12....       LCALL   ??osal_memcpy?relay
   \   00006F   7403         MOV     A,#0x3
   \   000071   12....       LCALL   ?DEALLOC_XSTACK8
    489              strBufLen = 11;
   \   000074   790B         MOV     R1,#0xb
   \   000076   8031         SJMP    ??EndDeviceSendAfMessageByCmd_1
    490            } else if(cmd == ENDDEVICE_HEARTBEAT) {
   \                     ??EndDeviceSendAfMessageByCmd_0:
   \   000078   7481         MOV     A,#-0x7f
   \   00007A   6E           XRL     A,R6
   \   00007B   700A         JNZ     ??EndDeviceSendAfMessageByCmd_2
    491              strBuf[0] = MACHINE_ID; // 此终端编号
   \                     ??EndDeviceSendAfMessageByCmd_3:
   \   00007D   7401         MOV     A,#0x1
   \   00007F   12....       LCALL   ?XSTACK_DISP0_8
   \   000082   7401         MOV     A,#0x1
   \   000084   F0           MOVX    @DPTR,A
    492              strBufLen = 1;
   \   000085   8021         SJMP    ??EndDeviceSendAfMessageByCmd_4
    493            } else if(cmd == ENDDEVICE_REPLY_RECVED_COIN) { // 终端设备回复已经收到金币
   \                     ??EndDeviceSendAfMessageByCmd_2:
   \   000087   7482         MOV     A,#-0x7e
   \   000089   6E           XRL     A,R6
   \   00008A   60F1         JZ      ??EndDeviceSendAfMessageByCmd_3
    494              strBuf[0] = MACHINE_ID; // 此终端编号
    495              strBufLen = 1;
    496            } else if(cmd == ENDDEVICE_REPORT_GAME_REWARD) { // 终端上传奖励彩票个数
   \   00008C   7483         MOV     A,#-0x7d
   \   00008E   6E           XRL     A,R6
   \   00008F   7018         JNZ     ??EndDeviceSendAfMessageByCmd_1
    497              strBuf[0] = MACHINE_ID; // 此终端编号
   \   000091   7401         MOV     A,#0x1
   \   000093   12....       LCALL   ?XSTACK_DISP0_8
   \   000096   7401         MOV     A,#0x1
   \   000098   F0           MOVX    @DPTR,A
    498              strBuf[1] = rewardCount;
   \   000099   90....       MOV     DPTR,#rewardCount
   \   00009C   E0           MOVX    A,@DPTR
   \   00009D   C0E0         PUSH    A
   \   00009F   7402         MOV     A,#0x2
   \   0000A1   12....       LCALL   ?XSTACK_DISP0_8
   \   0000A4   D0E0         POP     A
   \   0000A6   F0           MOVX    @DPTR,A
    499              strBufLen = 2;
   \   0000A7   09           INC     R1
   \                     ??EndDeviceSendAfMessageByCmd_4:
   \   0000A8   09           INC     R1
    500            }
    501          
    502            // 进行数据协议封装
    503            encodeData(cmd, strBuf, strBufLen, outputBuf, &outputBufLen);
   \                     ??EndDeviceSendAfMessageByCmd_1:
   \   0000A9                ; Setup parameters for call to function encodeData
   \   0000A9   85..82       MOV     DPL,?XSP + 0
   \   0000AC   85..83       MOV     DPH,?XSP + 1
   \   0000AF   8582..       MOV     ?V0 + 0,DPL
   \   0000B2   8583..       MOV     ?V0 + 1,DPH
   \   0000B5   78..         MOV     R0,#?V0 + 0
   \   0000B7   12....       LCALL   ?PUSH_XSTACK_I_TWO
   \   0000BA   7423         MOV     A,#0x23
   \   0000BC   12....       LCALL   ?XSTACK_DISP0_8
   \   0000BF   8582..       MOV     ?V0 + 0,DPL
   \   0000C2   8583..       MOV     ?V0 + 1,DPH
   \   0000C5   78..         MOV     R0,#?V0 + 0
   \   0000C7   12....       LCALL   ?PUSH_XSTACK_I_TWO
   \   0000CA   E9           MOV     A,R1
   \   0000CB   FC           MOV     R4,A
   \   0000CC   7405         MOV     A,#0x5
   \   0000CE   12....       LCALL   ?XSTACK_DISP0_8
   \   0000D1   AA82         MOV     R2,DPL
   \   0000D3   AB83         MOV     R3,DPH
   \   0000D5   EE           MOV     A,R6
   \   0000D6   F9           MOV     R1,A
   \   0000D7   12....       LCALL   ??encodeData?relay
   \   0000DA   7404         MOV     A,#0x4
   \   0000DC   12....       LCALL   ?DEALLOC_XSTACK8
    504            if ( AF_DataRequest( &SampleApp_TxAddr,                  // 发送的目的地址+端点地址+传送模式
    505                                (endPointDesc_t *)&SampleApp_epDesc, // 源终端的描述
    506                                SAMPLEAPP_PERIODIC_CLUSTERID,        // 被profile指定的有效的集群号
    507                                outputBufLen,                                  // 发送数据长度
    508                                outputBuf,                              // 发送数据缓冲区
    509                                &SampleApp_TransID,                  // 消息发送ID
    510                                AF_DISCV_ROUTE,                      // 有效位掩码的发送选项
    511                                AF_DEFAULT_RADIUS ) != afStatus_SUCCESS ) // 传送跳数，通常设置为AF_DEFAULT_RADIUS
   \   0000DF                ; Setup parameters for call to function AF_DataRequest
   \   0000DF   75..1E       MOV     ?V0 + 0,#0x1e
   \   0000E2   78..         MOV     R0,#?V0 + 0
   \   0000E4   12....       LCALL   ?PUSH_XSTACK_I_ONE
   \   0000E7   75....       MOV     ?V0 + 0,#SampleApp_TransID & 0xff
   \   0000EA   75....       MOV     ?V0 + 1,#(SampleApp_TransID >> 8) & 0xff
   \   0000ED   78..         MOV     R0,#?V0 + 0
   \   0000EF   12....       LCALL   ?PUSH_XSTACK_I_TWO
   \   0000F2   7424         MOV     A,#0x24
   \   0000F4   12....       LCALL   ?XSTACK_DISP0_8
   \   0000F7   8582..       MOV     ?V0 + 0,DPL
   \   0000FA   8583..       MOV     ?V0 + 1,DPH
   \   0000FD   78..         MOV     R0,#?V0 + 0
   \   0000FF   12....       LCALL   ?PUSH_XSTACK_I_TWO
   \   000102   7405         MOV     A,#0x5
   \   000104   12....       LCALL   ?XSTACK_DISP0_8
   \   000107   12....       LCALL   ?Subroutine6 & 0xFFFF
   \                     ??CrossCallReturnLabel_7:
   \   00010A   12....       LCALL   ?PUSH_XSTACK_I_TWO
   \   00010D   75..01       MOV     ?V0 + 0,#0x1
   \   000110   78..         MOV     R0,#?V0 + 0
   \   000112   12....       LCALL   ?PUSH_XSTACK_I_TWO
   \   000115   7920         MOV     R1,#0x20
   \   000117   7C..         MOV     R4,#SampleApp_epDesc & 0xff
   \   000119   7D..         MOV     R5,#(SampleApp_epDesc >> 8) & 0xff
   \   00011B   7A..         MOV     R2,#SampleApp_TxAddr & 0xff
   \   00011D   7B..         MOV     R3,#(SampleApp_TxAddr >> 8) & 0xff
   \   00011F   12....       LCALL   ??AF_DataRequest?relay
   \   000122   7409         MOV     A,#0x9
   \   000124   12....       LCALL   ?DEALLOC_XSTACK8
   \   000127   E9           MOV     A,R1
   \   000128   6011         JZ      ??EndDeviceSendAfMessageByCmd_5
    512            {
    513              myprintf("send cmd = 0x%x failed\n", cmd); 
   \   00012A                ; Setup parameters for call to function myprintf
   \   00012A   8E..         MOV     ?V0 + 0,R6
   \   00012C   78..         MOV     R0,#?V0 + 0
   \   00012E   12....       LCALL   ?PUSH_XSTACK_I_TWO
   \   000131   7A..         MOV     R2,#`?<Constant "send cmd = 0x%x failed\\n">` & 0xff
   \   000133   7B..         MOV     R3,#(`?<Constant "send cmd = 0x%x failed\\n">` >> 8) & 0xff
   \   000135   12....       LCALL   ?Subroutine5 & 0xFFFF
    514            }
   \                     ??CrossCallReturnLabel_4:
   \   000138   12....       LCALL   ?DEALLOC_XSTACK8
    515          }
   \                     ??EndDeviceSendAfMessageByCmd_5:
   \   00013B   7441         MOV     A,#0x41
   \   00013D                REQUIRE ?Subroutine0
   \   00013D                ; // Fall through to label ?Subroutine0

   \                                 In  segment BANKED_CODE, align 1, keep-with-next
   \                     ?Subroutine0:
   \   000000   12....       LCALL   ?DEALLOC_XSTACK8
   \   000003                REQUIRE ??Subroutine10_0
   \   000003                ; // Fall through to label ??Subroutine10_0
    516          
    517          /**
    518            协调器打印终端上传的长短地址
    519          */

   \                                 In  segment BANKED_CODE, align 1, keep-with-next
    520          void printAddrInfoHex(uint8* buf, uint8 dataLen) {
   \                     printAddrInfoHex:
   \   000000   74F3         MOV     A,#-0xd
   \   000002   12....       LCALL   ?BANKED_ENTER_XDATA
   \   000005                ; Saved register size: 13
   \   000005                ; Auto size: 0
   \   000005   EA           MOV     A,R2
   \   000006   FE           MOV     R6,A
   \   000007   EB           MOV     A,R3
   \   000008   FF           MOV     R7,A
   \   000009   89..         MOV     ?V0 + 4,R1
    521            int i = 0;
    522            
    523            myprintf("\n");
   \   00000B                ; Setup parameters for call to function myprintf
   \   00000B   7A..         MOV     R2,#`?<Constant "\\n">` & 0xff
   \   00000D   7B..         MOV     R3,#(`?<Constant "\\n">` >> 8) & 0xff
   \   00000F   12....       LCALL   ??myprintf?relay
    524            for(i = 0; i < dataLen; i++) {
   \   000012   75..00       MOV     ?V0 + 0,#0x0
   \   000015   75..00       MOV     ?V0 + 1,#0x0
   \   000018   803C         SJMP    ??printAddrInfoHex_0
    525              if(i == 2) {
   \                     ??printAddrInfoHex_1:
   \   00001A   7402         MOV     A,#0x2
   \   00001C   65..         XRL     A,?V0 + 0
   \   00001E   7002         JNZ     ??printAddrInfoHex_2
   \   000020   E5..         MOV     A,?V0 + 1
   \                     ??printAddrInfoHex_2:
   \   000022   7007         JNZ     ??printAddrInfoHex_3
    526                myprintf("; IEEE = ");
   \   000024                ; Setup parameters for call to function myprintf
   \   000024   7A..         MOV     R2,#`?<Constant "; IEEE = ">` & 0xff
   \   000026   7B..         MOV     R3,#(`?<Constant "; IEEE = ">` >> 8) & 0xff
   \   000028   12....       LCALL   ??myprintf?relay
    527              }
    528              myprintf("0x%x,", buf[i]);
   \                     ??printAddrInfoHex_3:
   \   00002B                ; Setup parameters for call to function myprintf
   \   00002B   EE           MOV     A,R6
   \   00002C   25..         ADD     A,?V0 + 0
   \   00002E   F582         MOV     DPL,A
   \   000030   EF           MOV     A,R7
   \   000031   35..         ADDC    A,?V0 + 1
   \   000033   F583         MOV     DPH,A
   \   000035   E0           MOVX    A,@DPTR
   \   000036   F5..         MOV     ?V0 + 2,A
   \   000038   75..00       MOV     ?V0 + 3,#0x0
   \   00003B   78..         MOV     R0,#?V0 + 2
   \   00003D   12....       LCALL   ?PUSH_XSTACK_I_TWO
   \   000040   7A..         MOV     R2,#`?<Constant "0x%x,">` & 0xff
   \   000042   7B..         MOV     R3,#(`?<Constant "0x%x,">` >> 8) & 0xff
   \   000044   12....       LCALL   ?Subroutine5 & 0xFFFF
    529            }
   \                     ??CrossCallReturnLabel_5:
   \   000047   12....       LCALL   ?DEALLOC_XSTACK8
   \   00004A   E5..         MOV     A,?V0 + 0
   \   00004C   2401         ADD     A,#0x1
   \   00004E   F5..         MOV     ?V0 + 0,A
   \   000050   E5..         MOV     A,?V0 + 1
   \   000052   3400         ADDC    A,#0x0
   \   000054   F5..         MOV     ?V0 + 1,A
   \                     ??printAddrInfoHex_0:
   \   000056   85....       MOV     ?V0 + 2,?V0 + 4
   \   000059   C3           CLR     C
   \   00005A   E5..         MOV     A,?V0 + 0
   \   00005C   95..         SUBB    A,?V0 + 2
   \   00005E   E5..         MOV     A,?V0 + 1
   \   000060   9400         SUBB    A,#0x0
   \   000062   A2D2         MOV     C,0xD0 /* PSW */.2
   \   000064   65D0         XRL     A,PSW
   \   000066   33           RLC     A
   \   000067   40B1         JC      ??printAddrInfoHex_1
    530            myprintf("\n");
   \   000069                ; Setup parameters for call to function myprintf
   \   000069   7A..         MOV     R2,#`?<Constant "\\n">` & 0xff
   \   00006B   7B..         MOV     R3,#(`?<Constant "\\n">` >> 8) & 0xff
   \   00006D   12....       LCALL   ??myprintf?relay
    531          }
   \   000070   7F05         MOV     R7,#0x5
   \   000072   02....       LJMP    ?BANKED_LEAVE_XDATA
    532          
    533          /**
    534            将十六进制数转变成字符
    535          */

   \                                 In  segment BANKED_CODE, align 1, keep-with-next
    536          void convertHexToStrLCD(uint16 addr, uint8 lcdLineNum) {
   \                     convertHexToStrLCD:
   \   000000   74F5         MOV     A,#-0xb
   \   000002   12....       LCALL   ?BANKED_ENTER_XDATA
   \   000005                ; Saved register size: 11
   \   000005                ; Auto size: 7
   \   000005   74F9         MOV     A,#-0x7
   \   000007   12....       LCALL   ?ALLOC_XSTACK8
   \   00000A   7405         MOV     A,#0x5
   \   00000C   12....       LCALL   ?XSTACK_DISP0_8
   \   00000F   EA           MOV     A,R2
   \   000010   F0           MOVX    @DPTR,A
   \   000011   A3           INC     DPTR
   \   000012   EB           MOV     A,R3
   \   000013   F0           MOVX    @DPTR,A
   \   000014   E9           MOV     A,R1
   \   000015   FE           MOV     R6,A
    537            uint8 i;
    538            uint8 *xad;
    539            uint8 lcd_buf[2*2+1];
    540          
    541            // Display the extended address.
    542            xad = (uint8*)&addr + 2 - 1;
   \   000016   A882         MOV     R0,DPL
   \   000018   A983         MOV     R1,DPH
    543          
    544            for (i = 0; i < 2*2; xad--)
   \   00001A   7C00         MOV     R4,#0x0
    545            {
    546              uint8 ch;
    547              ch = (*xad >> 4) & 0x0F;
   \                     ??convertHexToStrLCD_0:
   \   00001C   8882         MOV     DPL,R0
   \   00001E   8983         MOV     DPH,R1
   \   000020   E0           MOVX    A,@DPTR
   \   000021   C4           SWAP    A
   \   000022   540F         ANL     A,#0xf
   \   000024   FD           MOV     R5,A
    548              lcd_buf[i++] = ch + (( ch < 10 ) ? '0' : '7'); // +7可以转变成大写字符ABCDEF
   \   000025   EC           MOV     A,R4
   \   000026   FF           MOV     R7,A
   \   000027   0C           INC     R4
   \   000028   ED           MOV     A,R5
   \   000029   C3           CLR     C
   \   00002A   940A         SUBB    A,#0xa
   \   00002C   5004         JNC     ??convertHexToStrLCD_1
   \   00002E   7A30         MOV     R2,#0x30
   \   000030   8002         SJMP    ??convertHexToStrLCD_2
   \                     ??convertHexToStrLCD_1:
   \   000032   7A37         MOV     R2,#0x37
   \                     ??convertHexToStrLCD_2:
   \   000034   EA           MOV     A,R2
   \   000035   2D           ADD     A,R5
   \   000036   C0E0         PUSH    A
   \   000038   8F..         MOV     ?V0 + 0,R7
   \   00003A   12....       LCALL   ?Subroutine7 & 0xFFFF
   \                     ??CrossCallReturnLabel_8:
   \   00003D   D0E0         POP     A
   \   00003F   F0           MOVX    @DPTR,A
    549              ch = *xad & 0x0F;
   \   000040   8882         MOV     DPL,R0
   \   000042   8983         MOV     DPH,R1
   \   000044   E0           MOVX    A,@DPTR
   \   000045   540F         ANL     A,#0xf
   \   000047   FD           MOV     R5,A
    550              lcd_buf[i++] = ch + (( ch < 10 ) ? '0' : '7');
   \   000048   8C..         MOV     ?V0 + 2,R4
   \   00004A   0C           INC     R4
   \   00004B   C3           CLR     C
   \   00004C   940A         SUBB    A,#0xa
   \   00004E   5004         JNC     ??convertHexToStrLCD_3
   \   000050   7A30         MOV     R2,#0x30
   \   000052   8002         SJMP    ??convertHexToStrLCD_4
   \                     ??convertHexToStrLCD_3:
   \   000054   7A37         MOV     R2,#0x37
   \                     ??convertHexToStrLCD_4:
   \   000056   EA           MOV     A,R2
   \   000057   2D           ADD     A,R5
   \   000058   C0E0         PUSH    A
   \   00005A   85....       MOV     ?V0 + 0,?V0 + 2
   \   00005D   12....       LCALL   ?Subroutine7 & 0xFFFF
    551            }
   \                     ??CrossCallReturnLabel_9:
   \   000060   D0E0         POP     A
   \   000062   F0           MOVX    @DPTR,A
   \   000063   E8           MOV     A,R0
   \   000064   24FF         ADD     A,#-0x1
   \   000066   18           DEC     R0
   \   000067   E9           MOV     A,R1
   \   000068   34FF         ADDC    A,#-0x1
   \   00006A   F9           MOV     R1,A
   \   00006B   EC           MOV     A,R4
   \   00006C   C3           CLR     C
   \   00006D   9404         SUBB    A,#0x4
   \   00006F   40AB         JC      ??convertHexToStrLCD_0
    552            lcd_buf[2*2] = '\0';
   \   000071   7404         MOV     A,#0x4
   \   000073   12....       LCALL   ?XSTACK_DISP0_8
   \   000076   E4           CLR     A
   \   000077   F0           MOVX    @DPTR,A
    553            HalLcdWriteString( (char*)lcd_buf, lcdLineNum);
   \   000078                ; Setup parameters for call to function HalLcdWriteString
   \   000078   EE           MOV     A,R6
   \   000079   F9           MOV     R1,A
   \   00007A   85..82       MOV     DPL,?XSP + 0
   \   00007D   85..83       MOV     DPH,?XSP + 1
   \   000080   AA82         MOV     R2,DPL
   \   000082   AB83         MOV     R3,DPH
   \   000084   12....       LCALL   ??HalLcdWriteString?relay
    554          }
   \   000087   7407         MOV     A,#0x7
   \   000089   02....       LJMP    ?Subroutine0 & 0xFFFF

   \                                 In  segment BANKED_CODE, align 1, keep-with-next
   \                     ?Subroutine7:
   \   000000   85..82       MOV     DPL,?XSP + 0
   \   000003   85..83       MOV     DPH,?XSP + 1
   \   000006   E582         MOV     A,DPL
   \   000008   25..         ADD     A,?V0 + 0
   \   00000A   F582         MOV     DPL,A
   \   00000C   E583         MOV     A,DPH
   \   00000E   3400         ADDC    A,#0x0
   \   000010   F583         MOV     DPH,A
   \   000012   22           RET
    555          
    556          /**
    557          * 协调器向终端发送广播类型消息
    558          */

   \                                 In  segment BANKED_CODE, align 1, keep-with-next
    559          void SampleApp_SendPeriodicMessage( int8 key )
   \                     SampleApp_SendPeriodicMessage:
    560          {
   \   000000   74F6         MOV     A,#-0xa
   \   000002   12....       LCALL   ?BANKED_ENTER_XDATA
   \   000005                ; Saved register size: 10
   \   000005                ; Auto size: 4
   \   000005   74FC         MOV     A,#-0x4
   \   000007   12....       LCALL   ?ALLOC_XSTACK8
   \   00000A   E9           MOV     A,R1
   \   00000B   FE           MOV     R6,A
    561            if(key == 1) { // 按键S1
   \   00000C   7401         MOV     A,#0x1
   \   00000E   6E           XRL     A,R6
   \   00000F   706D         JNZ     ??SampleApp_SendPeriodicMessage_0
    562              uint8 sendKeyS1Buf[4] = {'#', 0x31, 0, '@'};
   \   000011   85..82       MOV     DPL,?XSP + 0
   \   000014   85..83       MOV     DPH,?XSP + 1
   \   000017   AC82         MOV     R4,DPL
   \   000019   AD83         MOV     R5,DPH
   \   00001B   7583..       MOV     DPH,#(`?<Constant {35, 49, 0, 64}>` >> 8) & 0xff
   \   00001E   7582..       MOV     DPL,#`?<Constant {35, 49, 0, 64}>` & 0xff
   \   000021   7404         MOV     A,#0x4
   \   000023   12....       LCALL   ?MOVE_LONG8_XDATA_XDATA
    563              
    564              if ( AF_DataRequest( &SampleApp_Periodic_DstAddr, &SampleApp_epDesc,
    565                                  SAMPLEAPP_PERIODIC_CLUSTERID,
    566                                  4,
    567                                  sendKeyS1Buf,
    568                                  &SampleApp_TransID,
    569                                  AF_DISCV_ROUTE,
    570                                  AF_DEFAULT_RADIUS ) == afStatus_SUCCESS )
   \   000026                ; Setup parameters for call to function AF_DataRequest
   \   000026   75..1E       MOV     ?V0 + 0,#0x1e
   \   000029   78..         MOV     R0,#?V0 + 0
   \   00002B   12....       LCALL   ?PUSH_XSTACK_I_ONE
   \   00002E   75....       MOV     ?V0 + 0,#SampleApp_TransID & 0xff
   \   000031   75....       MOV     ?V0 + 1,#(SampleApp_TransID >> 8) & 0xff
   \   000034   78..         MOV     R0,#?V0 + 0
   \   000036   12....       LCALL   ?PUSH_XSTACK_I_TWO
   \   000039   7403         MOV     A,#0x3
   \   00003B   12....       LCALL   ?XSTACK_DISP0_8
   \   00003E   8582..       MOV     ?V0 + 0,DPL
   \   000041   8583..       MOV     ?V0 + 1,DPH
   \   000044   78..         MOV     R0,#?V0 + 0
   \   000046   12....       LCALL   ?PUSH_XSTACK_I_TWO
   \   000049   75..04       MOV     ?V0 + 0,#0x4
   \   00004C   75..00       MOV     ?V0 + 1,#0x0
   \   00004F   78..         MOV     R0,#?V0 + 0
   \   000051   12....       LCALL   ?PUSH_XSTACK_I_TWO
   \   000054   75..01       MOV     ?V0 + 0,#0x1
   \   000057   78..         MOV     R0,#?V0 + 0
   \   000059   12....       LCALL   ?PUSH_XSTACK_I_TWO
   \   00005C   7920         MOV     R1,#0x20
   \   00005E   7C..         MOV     R4,#SampleApp_epDesc & 0xff
   \   000060   7D..         MOV     R5,#(SampleApp_epDesc >> 8) & 0xff
   \   000062   7A..         MOV     R2,#SampleApp_Periodic_DstAddr & 0xff
   \   000064   7B..         MOV     R3,#(SampleApp_Periodic_DstAddr >> 8) & 0xff
   \   000066   12....       LCALL   ??AF_DataRequest?relay
   \   000069   7409         MOV     A,#0x9
   \   00006B   12....       LCALL   ?DEALLOC_XSTACK8
   \   00006E   E9           MOV     A,R1
   \   00006F   700D         JNZ     ??SampleApp_SendPeriodicMessage_0
    571              {
    572                HalLedBlink(HAL_LED_1, 1, 50, 250);
   \   000071                ; Setup parameters for call to function HalLedBlink
   \   000071   7CFA         MOV     R4,#-0x6
   \   000073   7D00         MOV     R5,#0x0
   \   000075   7B32         MOV     R3,#0x32
   \   000077   7A01         MOV     R2,#0x1
   \   000079   7901         MOV     R1,#0x1
   \   00007B   12....       LCALL   ??HalLedBlink?relay
    573              }
    574            }
    575          }
   \                     ??SampleApp_SendPeriodicMessage_0:
   \   00007E   7404         MOV     A,#0x4
   \   000080   02....       LJMP    ?Subroutine2 & 0xFFFF
    576          
    577          
    578          /*********************************************************************
    579          * Event Generation Functions
    580          * @brief   按键事件处理函数
    581          */

   \                                 In  segment BANKED_CODE, align 1, keep-with-next
    582          void SampleApp_HandleKeys( uint8 shift, uint8 keys )
   \                     SampleApp_HandleKeys:
    583          {
   \   000000                ; Saved register size: 0
   \   000000                ; Auto size: 0
    584            (void)shift;  // Intentionally unreferenced parameter
    585          #ifdef ZDO_COORDINATOR       //按协调器S1才发数据  
    586            if ( keys & HAL_KEY_SW_6 ){ // 按键S1,以广播方式发数据    
    587              SampleApp_SendPeriodicMessage(1);
    588            } else if(keys & HAL_KEY_SW_1) { // 按键S2
    589              //SampleApp_SendPeriodicMessage(2);
    590            }
    591          #endif
    592          }
   \   000000   02....       LJMP    ?BRET

   \                                 In  segment INTVEC, offset 0x6b, root
   \                     `??port0Isr??INTVEC 107`:
   \   00006B   02....       LJMP       (port0Isr)

   \                                 In  segment XDATA_ID, align 1, keep-with-next
   \                     `?<Initializer for pre_coin_pin_value>`:
   \   000000   01           DB 1

   \                                 In  segment XDATA_ID, align 1, keep-with-next
   \                     `?<Initializer for coin_pin_value>`:
   \   000000   01           DB 1

   \                                 In  segment XDATA_ID, align 1, keep-with-next
   \                     `?<Initializer for pre_reward_pin_value>`:
   \   000000   01           DB 1

   \                                 In  segment XDATA_ID, align 1, keep-with-next
   \                     `?<Initializer for reward_pin_value>`:
   \   000000   01           DB 1

   \                                 In  segment BANK_RELAYS, align 1
   \                     ??SampleApp_Init?relay:
   \   000000   12....       LCALL   ?BDISPATCH
   \   000003   ......       DC24    SampleApp_Init

   \                                 In  segment BANK_RELAYS, align 1
   \                     ??SampleApp_ProcessEvent?relay:
   \   000000   12....       LCALL   ?BDISPATCH
   \   000003   ......       DC24    SampleApp_ProcessEvent

   \                                 In  segment BANK_RELAYS, align 1
   \                     ??SampleApp_MessageMSGCB?relay:
   \   000000   12....       LCALL   ?BDISPATCH
   \   000003   ......       DC24    SampleApp_MessageMSGCB

   \                                 In  segment BANK_RELAYS, align 1
   \                     ??SampleApp_SendHeartBeatMessageCoor?relay:
   \   000000   12....       LCALL   ?BDISPATCH
   \   000003   ......       DC24    SampleApp_SendHeartBeatMessageCoor

   \                                 In  segment BANK_RELAYS, align 1
   \                     ??EndDeviceSendHeartBeat?relay:
   \   000000   12....       LCALL   ?BDISPATCH
   \   000003   ......       DC24    EndDeviceSendHeartBeat

   \                                 In  segment BANK_RELAYS, align 1
   \                     ??EndDeviceSendAfMessageByCmd?relay:
   \   000000   12....       LCALL   ?BDISPATCH
   \   000003   ......       DC24    EndDeviceSendAfMessageByCmd

   \                                 In  segment BANK_RELAYS, align 1
   \                     ??printAddrInfoHex?relay:
   \   000000   12....       LCALL   ?BDISPATCH
   \   000003   ......       DC24    printAddrInfoHex

   \                                 In  segment BANK_RELAYS, align 1
   \                     ??convertHexToStrLCD?relay:
   \   000000   12....       LCALL   ?BDISPATCH
   \   000003   ......       DC24    convertHexToStrLCD

   \                                 In  segment BANK_RELAYS, align 1
   \                     ??SampleApp_SendPeriodicMessage?relay:
   \   000000   12....       LCALL   ?BDISPATCH
   \   000003   ......       DC24    SampleApp_SendPeriodicMessage

   \                                 In  segment BANK_RELAYS, align 1
   \                     ??SampleApp_HandleKeys?relay:
   \   000000   12....       LCALL   ?BDISPATCH
   \   000003   ......       DC24    SampleApp_HandleKeys

   \                                 In  segment XDATA_ROM_C, align 1
   \                     `?<Constant "\\nP0_6=%d">`:
   \   000000   0A50305F     DB "\012P0_6=%d"
   \            363D2564
   \            00      

   \                                 In  segment XDATA_ROM_C, align 1
   \                     `?<Constant "Group 1">`:
   \   000000   47726F75     DB "Group 1"
   \            70203100

   \                                 In  segment XDATA_ROM_C, align 1
   \                     `?<Constant "UartInit OK\\n">`:
   \   000000   55617274     DB "UartInit OK\012"
   \            496E6974
   \            204F4B0A
   \            00      

   \                                 In  segment XDATA_ROM_C, align 1
   \                     `?<Constant "Get COIN_MSG_EVT, Nee...">`:
   \   000000   47657420     DB 47H, 65H, 74H, 20H, 43H, 4FH, 49H, 4EH
   \            434F494E
   \   000008   5F4D5347     DB 5FH, 4DH, 53H, 47H, 5FH, 45H, 56H, 54H
   \            5F455654
   \   000010   2C204E65     DB 2CH, 20H, 4EH, 65H, 65H, 64H, 43H, 6FH
   \            6564436F
   \   000018   696E4465     DB 69H, 6EH, 44H, 65H, 6CH, 69H, 76H, 65H
   \            6C697665
   \   000020   72656420     DB 72H, 65H, 64H, 20H, 3DH, 20H, 25H, 64H
   \            3D202564
   \   000028   2C206576     DB 2CH, 20H, 65H, 76H, 65H, 6EH, 74H, 73H
   \            656E7473
   \   000030   203D2030     DB 20H, 3DH, 20H, 30H, 78H, 25H, 78H, 0AH
   \            7825780A
   \   000038   00           DB 0

   \                                 In  segment XDATA_ROM_C, align 1
   \                     `?<Constant {0}>`:
   \   000000   00           DB 0
   \   000001   00000000     DB 0, 0, 0, 0, 0, 0, 0, 0
   \            00000000
   \   000009   00000000     DB 0, 0, 0, 0, 0, 0, 0, 0
   \            00000000
   \   000011   00000000     DB 0, 0, 0, 0, 0, 0, 0, 0
   \            00000000
   \   000019   00000000     DB 0, 0, 0, 0, 0, 0, 0
   \            000000  

   \                                 In  segment XDATA_ROM_C, align 1
   \                     `?<Constant "NeedCoinDelivered = %d\\n">`:
   \   000000   4E656564     DB "NeedCoinDelivered = %d\012"
   \            436F696E
   \            44656C69
   \            76657265
   \            64203D20
   \            25640A00

   \                                 In  segment XDATA_ROM_C, align 1
   \                     `?<Constant "end device check af d...">`:
   \   000000   656E6420     DB "end device check af data failed\012"
   \            64657669
   \            63652063
   \            6865636B
   \            20616620
   \            64617461
   \            20666169
   \            6C65640A
   \            00      

   \                                 In  segment XDATA_ROM_C, align 1
   \                     `?<Constant "Upload reward result ...">`:
   \   000000   55706C6F     DB "Upload reward result count, rewardCount = %d\012"
   \            61642072
   \            65776172
   \            64207265
   \            73756C74
   \            20636F75
   \            6E742C20
   \            72657761
   \            7264436F
   \            756E7420
   \            3D202564
   \            0A00    

   \                                 In  segment XDATA_ROM_C, align 1
   \                     `?<Constant {0}>_1`:
   \   000000   00           DB 0
   \   000001   00000000     DB 0, 0, 0, 0, 0, 0, 0, 0
   \            00000000
   \   000009   00000000     DB 0, 0, 0, 0, 0, 0, 0, 0
   \            00000000
   \   000011   00000000     DB 0, 0, 0, 0, 0, 0, 0, 0
   \            00000000
   \   000019   00000000     DB 0, 0, 0, 0, 0, 0, 0
   \            000000  

   \                                 In  segment XDATA_ROM_C, align 1
   \                     `?<Constant {0}>_2`:
   \   000000   00           DB 0
   \   000001   00000000     DB 0, 0, 0, 0, 0, 0, 0, 0
   \            00000000
   \   000009   00000000     DB 0, 0, 0, 0, 0, 0, 0, 0
   \            00000000
   \   000011   00000000     DB 0, 0, 0, 0, 0, 0, 0, 0
   \            00000000
   \   000019   00000000     DB 0, 0, 0, 0, 0, 0, 0
   \            000000  

   \                                 In  segment XDATA_ROM_C, align 1
   \                     `?<Constant "send cmd = 0x%x failed\\n">`:
   \   000000   73656E64     DB "send cmd = 0x%x failed\012"
   \            20636D64
   \            203D2030
   \            78257820
   \            6661696C
   \            65640A00

   \                                 In  segment XDATA_ROM_C, align 1
   \                     `?<Constant "\\n">`:
   \   000000   0A00         DB "\012"

   \                                 In  segment XDATA_ROM_C, align 1
   \                     `?<Constant "; IEEE = ">`:
   \   000000   3B204945     DB "; IEEE = "
   \            4545203D
   \            2000    

   \                                 In  segment XDATA_ROM_C, align 1
   \                     `?<Constant "0x%x,">`:
   \   000000   30782578     DB "0x%x,"
   \            2C00    

   \                                 In  segment XDATA_ROM_C, align 1
   \                     `?<Constant {35, 49, 0, 64}>`:
   \   000000   23           DB 35
   \   000001   31           DB 49
   \   000002   00           DB 0
   \   000003   40           DB 64

   \                                 In  segment XDATA_ROM_C, align 1
   \                     __Constant_2:
   \   000000   02000000     DD 2

   Maximum stack usage in bytes:

     Function                       ISTACK PSTACK XSTACK
     --------                       ------ ------ ------
     EndDeviceSendAfMessageByCmd        2      0    128
       -> NLME_GetShortAddr             0      0    152
       -> NLME_GetExtAddr               0      0    152
       -> osal_memcpy                   0      0    158
       -> encodeData                    0      0    160
       -> AF_DataRequest                0      0    170
       -> myprintf                      0      0    156
     EndDeviceSendHeartBeat             0      0     26
       -> EndDeviceSendAfMessageByCmd
                                        0      0     24
       -> HalLedBlink                   0      0     24
       -> osal_getClock                 0      0     24
       -> EndDeviceSendAfMessageByCmd
                                        0      0     24
       -> myprintf                      0      0     28
     SampleApp_HandleKeys               0      0      0
     SampleApp_Init                     0      0     14
       -> afRegister                    0      0     22
       -> RegisterForKeys               0      0     22
       -> osal_memcpy                   0      0     28
       -> aps_AddGroup                  0      0     22
       -> MT_UartInit                   0      0     22
       -> MT_UartRegisterTaskID         0      0     22
       -> myprintf                      0      0     22
     SampleApp_MessageMSGCB             2      0     57
       -> re_replace_data               0      0     90
       -> check_xor                     0      0     86
       -> osal_start_timerEx            0      0     86
       -> EndDeviceSendAfMessageByCmd
                                        0      0     86
       -> myprintf                      0      0     90
       -> HalLedBlink                   0      0     86
       -> myprintf                      0      0     86
     SampleApp_ProcessEvent             0      0     16
       -> osal_msg_receive              0      0     24
       -> EndDeviceSendAfMessageByCmd
                                        0      0     24
       -> HalLedBlink                   0      0     24
       -> osal_start_timerEx            0      0     24
       -> osal_msg_deallocate           0      0     24
       -> osal_msg_receive              0      0     24
       -> SampleApp_MessageMSGCB        0      0     24
       -> osal_start_timerEx            0      0     24
       -> HalLedBlink                   0      0     24
       -> HalLedBlink                   0      0     24
       -> EndDeviceSendHeartBeat        0      0     24
       -> osal_start_timerEx            0      0     24
       -> myprintf                      0      0     32
       -> osal_start_timerEx            0      0     24
       -> osal_start_timerEx            0      0     24
     SampleApp_SendHeartBeatMessageCoor
                                        2      0      0
       -> decAllListEPLeftSec           4      0      0
       -> HalLedBlink                   4      0      0
     SampleApp_SendPeriodicMessage      2      0     23
       -> AF_DataRequest                0      0     46
       -> HalLedBlink                   0      0     28
     convertHexToStrLCD                 1      0     18
       -> HalLcdWriteString             0      0     36
     port0Isr                           0      0     17
       -> osal_start_timerEx            0      0     30
       -> osal_getClock                 0      0     30
       -> myprintf                      0      0     34
     printAddrInfoHex                   0      0     15
       -> myprintf                      0      0     26
       -> myprintf                      0      0     26
       -> myprintf                      0      0     30
       -> myprintf                      0      0     26


   Segment part sizes:

     Function/Label                             Bytes
     --------------                             -----
     _A_P0                                         1
     P0IFG                                         1
     _A_P1                                         1
     _A_IEN1                                       1
     _A_IRCON                                      1
     P1SEL                                         1
     P1DIR                                         1
     SampleApp_ClusterList                         8
     SampleApp_SimpleDesc                         12
     SampleApp_epDesc                              6
     GenericApp_DstAddr                           12
     EndPoint_DstAddr                             12
     SampleApp_TaskID                              1
     SampleApp_NwkState                            1
     SampleApp_TransID                             1
     SampleApp_Periodic_DstAddr                   12
     SampleApp_TxAddr                             12
     SampleApp_Group                              18
     SampleAppPeriodicCounter                      1
     SampleAppFlashCounter                         1
     LL                                            2
     NeedCoinDelivered                             1
     NeedCoinTransport                             1
     rewardCount                                   1
     startRewardInterrupt                          1
     lastRecvRewardSecTime                         4
     pre_coin_pin_value                            1
     coin_pin_value                                1
     pre_reward_pin_value                          1
     reward_pin_value                              1
     port0Isr                                    176
     SampleApp_Init                              199
     ??Subroutine10_0                              5
     SampleApp_ProcessEvent                      298
     ?Subroutine1                                  5
     ?Subroutine4                                 10
     ?Subroutine3                                  4
     ??Subroutine8_0                               2
     ??Subroutine9_0                              11
     SampleApp_MessageMSGCB                      242
     ?Subroutine2                                  8
     ?Subroutine5                                  6
     SampleApp_SendHeartBeatMessageCoor
                                                  35
     EndDeviceSendHeartBeat                      108
     ?Subroutine6                                  9
     EndDeviceSendAfMessageByCmd                 317
     ?Subroutine0                                  3
     printAddrInfoHex                            117
     convertHexToStrLCD                          140
     ?Subroutine7                                 19
     SampleApp_SendPeriodicMessage               131
     SampleApp_HandleKeys                          3
     ??port0Isr??INTVEC 107                        3
     ?<Initializer for pre_coin_pin_value>         1
     ?<Initializer for coin_pin_value>             1
     ?<Initializer for pre_reward_pin_value>       1
     ?<Initializer for reward_pin_value>           1
     ??SampleApp_Init?relay                        6
     ??SampleApp_ProcessEvent?relay                6
     ??SampleApp_MessageMSGCB?relay                6
     ??SampleApp_SendHeartBeatMessageCoor?relay    6
     ??EndDeviceSendHeartBeat?relay                6
     ??EndDeviceSendAfMessageByCmd?relay           6
     ??printAddrInfoHex?relay                      6
     ??convertHexToStrLCD?relay                    6
     ??SampleApp_SendPeriodicMessage?relay         6
     ??SampleApp_HandleKeys?relay                  6
     ?<Constant "\nP0_6=%d">                       9
     ?<Constant "Group 1">                         8
     ?<Constant "UartInit OK\n">                  13
     ?<Constant "Get COIN_MSG_EVT, Nee...">       57
     ?<Constant {0}>                              32
     ?<Constant "NeedCoinDelivered = %d\n">       24
     ?<Constant "end device check af d...">       33
     ?<Constant "Upload reward result ...">       46
     ?<Constant {0}>_1                            32
     ?<Constant {0}>_2                            32
     ?<Constant "send cmd = 0x%x failed\n">       24
     ?<Constant "\n">                              2
     ?<Constant "; IEEE = ">                      10
     ?<Constant "0x%x,">                           6
     ?<Constant {35, 49, 0, 64}>                   4
     __Constant_2                                  4

 
 1 672 bytes in segment BANKED_CODE
    60 bytes in segment BANK_RELAYS
     3 bytes in segment INTVEC
   176 bytes in segment NEAR_CODE
     7 bytes in segment SFR_AN
     4 bytes in segment XDATA_I
     4 bytes in segment XDATA_ID
   356 bytes in segment XDATA_ROM_C
    87 bytes in segment XDATA_Z
 
 1 912 bytes of CODE  memory (+ 3 bytes shared)
   352 bytes of CONST memory (+ 4 bytes shared)
     0 bytes of DATA  memory (+ 7 bytes shared)
    91 bytes of XDATA memory

Errors: none
Warnings: none
