###############################################################################
#                                                                             #
# IAR C/C++ Compiler V8.10.3.10338/W32 for 8051         10/Jun/2019  16:30:14 #
# Copyright 2004-2011 IAR Systems AB.                                         #
#                                                                             #
#    Core               =  plain                                              #
#    Code model         =  banked                                             #
#    Data model         =  large                                              #
#    Calling convention =  xdata reentrant                                    #
#    Constant location  =  data_rom                                           #
#    Dptr setup         =  1,16                                               #
#    Source file        =  E:\Github_Repository\zigbee-net-tech\ZStack-2.5.1a #
#                          \Projects\zstack\ZMain\TI2530DB\ZMain.c            #
#    Command line       =  -f E:\Github_Repository\zigbee-net-tech\ZStack-2.5 #
#                          .1a\Projects\zstack\Samples\SampleApp\CC2530DB\..\ #
#                          ..\..\Tools\CC2530DB\f8wEndev.cfg (-DCPU32MHZ      #
#                          -DROOT=__near_func -DMAC_CFG_TX_DATA_MAX=3         #
#                          -DMAC_CFG_TX_MAX=6 -DMAC_CFG_RX_MAX=3              #
#                          -DLCD_SUPPORTED -DEND_DEVICE) -f                   #
#                          E:\Github_Repository\zigbee-net-tech\ZStack-2.5.1a #
#                          \Projects\zstack\Samples\SampleApp\CC2530DB\..\..\ #
#                          ..\Tools\CC2530DB\f8wConfig.cfg (-DZIGBEEPRO       #
#                          -DSECURE=0 -DZG_SECURE_DYNAMIC=0 -DREFLECTOR       #
#                          -DDEFAULT_CHANLIST=0x00000800                      #
#                          -DZDAPP_CONFIG_PAN_ID=0xFFF1                       #
#                          -DNWK_START_DELAY=100 -DEXTENDED_JOINING_RANDOM_MA #
#                          SK=0x007F -DBEACON_REQUEST_DELAY=100               #
#                          -DBEACON_REQ_DELAY_MASK=0x00FF                     #
#                          -DLINK_STATUS_JITTER_MASK=0x007F                   #
#                          -DROUTE_EXPIRY_TIME=30 -DAPSC_ACK_WAIT_DURATION_PO #
#                          LLED=3000 -DNWK_INDIRECT_MSG_TIMEOUT=7             #
#                          -DMAX_RREQ_ENTRIES=8 -DAPSC_MAX_FRAME_RETRIES=3    #
#                          -DNWK_MAX_DATA_RETRIES=2                           #
#                          -DMAX_POLL_FAILURE_RETRIES=2 -DMAX_BCAST=9         #
#                          -DAPS_MAX_GROUPS=16 -DMAX_RTG_ENTRIES=40           #
#                          -DNWK_MAX_BINDING_ENTRIES=4                        #
#                          -DMAX_BINDING_CLUSTER_IDS=4 "-DDEFAULT_KEY={0x01,  #
#                          0x03, 0x05, 0x07, 0x09, 0x0B, 0x0D, 0x0F, 0x00,    #
#                          0x02, 0x04, 0x06, 0x08, 0x0A, 0x0C, 0x0D}"         #
#                          -DMAC_MAX_FRAME_SIZE=116                           #
#                          -DZDNWKMGR_MIN_TRANSMISSIONS=20 "-DCONST=const     #
#                          __code" -DGENERIC=__generic                        #
#                          -DRFD_RCVC_ALWAYS_ON=FALSE -DPOLL_RATE=1000        #
#                          -DQUEUED_POLL_RATE=100 -DRESPONSE_POLL_RATE=100)   #
#                          -DREJOIN_POLL_RATE=440 E:\Github_Repository\zigbee #
#                          -net-tech\ZStack-2.5.1a\Projects\zstack\ZMain\TI25 #
#                          30DB\ZMain.c -D NWK_AUTO_POLL -D ZTOOL_P1 -D       #
#                          MT_TASK -D MT_SYS_FUNC -D MT_ZDO_FUNC -lC          #
#                          E:\Github_Repository\zigbee-net-tech\ZStack-2.5.1a #
#                          \Projects\zstack\Samples\SampleApp\CC2530DB\EndDev #
#                          iceEB\List\ -lA E:\Github_Repository\zigbee-net-te #
#                          ch\ZStack-2.5.1a\Projects\zstack\Samples\SampleApp #
#                          \CC2530DB\EndDeviceEB\List\ --diag_suppress        #
#                          Pe001,Pa010 -o E:\Github_Repository\zigbee-net-tec #
#                          h\ZStack-2.5.1a\Projects\zstack\Samples\SampleApp\ #
#                          CC2530DB\EndDeviceEB\Obj\ -e --no_code_motion      #
#                          --debug --core=plain --dptr=16,1                   #
#                          --data_model=large --code_model=banked             #
#                          --calling_convention=xdata_reentrant               #
#                          --place_constants=data_rom --nr_virtual_regs 16    #
#                          -I E:\Github_Repository\zigbee-net-tech\ZStack-2.5 #
#                          .1a\Projects\zstack\Samples\SampleApp\CC2530DB\    #
#                          -I E:\Github_Repository\zigbee-net-tech\ZStack-2.5 #
#                          .1a\Projects\zstack\Samples\SampleApp\CC2530DB\..\ #
#                          Source\ -I E:\Github_Repository\zigbee-net-tech\ZS #
#                          tack-2.5.1a\Projects\zstack\Samples\SampleApp\CC25 #
#                          30DB\..\..\..\ZMain\TI2530DB\ -I                   #
#                          E:\Github_Repository\zigbee-net-tech\ZStack-2.5.1a #
#                          \Projects\zstack\Samples\SampleApp\CC2530DB\..\..\ #
#                          ..\..\..\Components\hal\include\ -I                #
#                          E:\Github_Repository\zigbee-net-tech\ZStack-2.5.1a #
#                          \Projects\zstack\Samples\SampleApp\CC2530DB\..\..\ #
#                          ..\..\..\Components\hal\target\CC2530EB\ -I        #
#                          E:\Github_Repository\zigbee-net-tech\ZStack-2.5.1a #
#                          \Projects\zstack\Samples\SampleApp\CC2530DB\..\..\ #
#                          ..\..\..\Components\mac\include\ -I                #
#                          E:\Github_Repository\zigbee-net-tech\ZStack-2.5.1a #
#                          \Projects\zstack\Samples\SampleApp\CC2530DB\..\..\ #
#                          ..\..\..\Components\mac\high_level\ -I             #
#                          E:\Github_Repository\zigbee-net-tech\ZStack-2.5.1a #
#                          \Projects\zstack\Samples\SampleApp\CC2530DB\..\..\ #
#                          ..\..\..\Components\mac\low_level\srf04\ -I        #
#                          E:\Github_Repository\zigbee-net-tech\ZStack-2.5.1a #
#                          \Projects\zstack\Samples\SampleApp\CC2530DB\..\..\ #
#                          ..\..\..\Components\mac\low_level\srf04\single_chi #
#                          p\ -I E:\Github_Repository\zigbee-net-tech\ZStack- #
#                          2.5.1a\Projects\zstack\Samples\SampleApp\CC2530DB\ #
#                          ..\..\..\..\..\Components\mt\ -I                   #
#                          E:\Github_Repository\zigbee-net-tech\ZStack-2.5.1a #
#                          \Projects\zstack\Samples\SampleApp\CC2530DB\..\..\ #
#                          ..\..\..\Components\osal\include\ -I               #
#                          E:\Github_Repository\zigbee-net-tech\ZStack-2.5.1a #
#                          \Projects\zstack\Samples\SampleApp\CC2530DB\..\..\ #
#                          ..\..\..\Components\services\saddr\ -I             #
#                          E:\Github_Repository\zigbee-net-tech\ZStack-2.5.1a #
#                          \Projects\zstack\Samples\SampleApp\CC2530DB\..\..\ #
#                          ..\..\..\Components\services\sdata\ -I             #
#                          E:\Github_Repository\zigbee-net-tech\ZStack-2.5.1a #
#                          \Projects\zstack\Samples\SampleApp\CC2530DB\..\..\ #
#                          ..\..\..\Components\stack\af\ -I                   #
#                          E:\Github_Repository\zigbee-net-tech\ZStack-2.5.1a #
#                          \Projects\zstack\Samples\SampleApp\CC2530DB\..\..\ #
#                          ..\..\..\Components\stack\nwk\ -I                  #
#                          E:\Github_Repository\zigbee-net-tech\ZStack-2.5.1a #
#                          \Projects\zstack\Samples\SampleApp\CC2530DB\..\..\ #
#                          ..\..\..\Components\stack\sapi\ -I                 #
#                          E:\Github_Repository\zigbee-net-tech\ZStack-2.5.1a #
#                          \Projects\zstack\Samples\SampleApp\CC2530DB\..\..\ #
#                          ..\..\..\Components\stack\sec\ -I                  #
#                          E:\Github_Repository\zigbee-net-tech\ZStack-2.5.1a #
#                          \Projects\zstack\Samples\SampleApp\CC2530DB\..\..\ #
#                          ..\..\..\Components\stack\sys\ -I                  #
#                          E:\Github_Repository\zigbee-net-tech\ZStack-2.5.1a #
#                          \Projects\zstack\Samples\SampleApp\CC2530DB\..\..\ #
#                          ..\..\..\Components\stack\zdo\ -I                  #
#                          E:\Github_Repository\zigbee-net-tech\ZStack-2.5.1a #
#                          \Projects\zstack\Samples\SampleApp\CC2530DB\..\..\ #
#                          ..\..\..\Components\zmac\ -I                       #
#                          E:\Github_Repository\zigbee-net-tech\ZStack-2.5.1a #
#                          \Projects\zstack\Samples\SampleApp\CC2530DB\..\..\ #
#                          ..\..\..\Components\zmac\f8w\ -Ohz                 #
#                          --require_prototypes                               #
#    List file          =  E:\Github_Repository\zigbee-net-tech\ZStack-2.5.1a #
#                          \Projects\zstack\Samples\SampleApp\CC2530DB\EndDev #
#                          iceEB\List\ZMain.lst                               #
#    Object file        =  E:\Github_Repository\zigbee-net-tech\ZStack-2.5.1a #
#                          \Projects\zstack\Samples\SampleApp\CC2530DB\EndDev #
#                          iceEB\Obj\ZMain.r51                                #
#                                                                             #
#                                                                             #
###############################################################################

E:\Github_Repository\zigbee-net-tech\ZStack-2.5.1a\Projects\zstack\ZMain\TI2530DB\ZMain.c
      1          /**************************************************************************************************
      2            Filename:       ZMain.c
      3            Revised:        $Date: 2010-09-17 16:25:30 -0700 (Fri, 17 Sep 2010) $
      4            Revision:       $Revision: 23835 $ V1.0 ALD Andy
      5          
      6            Description:    Startup and shutdown code for ZStack
      7            Notes:          This version targets the Chipcon CC2530
      8          
      9          
     10            Copyright 2005-2010 Texas Instruments Incorporated. All rights reserved.
     11          
     12            IMPORTANT: Your use of this Software is limited to those specific rights
     13            granted under the terms of a software license agreement between the user
     14            who downloaded the software, his/her employer (which must be your employer)
     15            and Texas Instruments Incorporated (the "License").  You may not use this
     16            Software unless you agree to abide by the terms of the License. The License
     17            limits your use, and you acknowledge, that the Software may not be modified,
     18            copied or distributed unless embedded on a Texas Instruments microcontroller
     19            or used solely and exclusively in conjunction with a Texas Instruments radio
     20            frequency transceiver, which is integrated into your product.  Other than for
     21            the foregoing purpose, you may not use, reproduce, copy, prepare derivative
     22            works of, modify, distribute, perform, display or sell this Software and/or
     23            its documentation for any purpose.
     24          
     25            YOU FURTHER ACKNOWLEDGE AND AGREE THAT THE SOFTWARE AND DOCUMENTATION ARE
     26            PROVIDED AS IS?WITHOUT WARRANTY OF ANY KIND, EITHER EXPRESS OR IMPLIED,
     27            INCLUDING WITHOUT LIMITATION, ANY WARRANTY OF MERCHANTABILITY, TITLE,
     28            NON-INFRINGEMENT AND FITNESS FOR A PARTICULAR PURPOSE. IN NO EVENT SHALL
     29            TEXAS INSTRUMENTS OR ITS LICENSORS BE LIABLE OR OBLIGATED UNDER CONTRACT,
     30            NEGLIGENCE, STRICT LIABILITY, CONTRIBUTION, BREACH OF WARRANTY, OR OTHER
     31            LEGAL EQUITABLE THEORY ANY DIRECT OR INDIRECT DAMAGES OR EXPENSES
     32            INCLUDING BUT NOT LIMITED TO ANY INCIDENTAL, SPECIAL, INDIRECT, PUNITIVE
     33            OR CONSEQUENTIAL DAMAGES, LOST PROFITS OR LOST DATA, COST OF PROCUREMENT
     34            OF SUBSTITUTE GOODS, TECHNOLOGY, SERVICES, OR ANY CLAIMS BY THIRD PARTIES
     35            (INCLUDING BUT NOT LIMITED TO ANY DEFENSE THEREOF), OR OTHER SIMILAR COSTS.
     36          
     37            Should you have any questions regarding your right to use this Software,
     38            contact Texas Instruments Incorporated at https://aldsz.taobao.com
     39          **************************************************************************************************/
     40          
     41          /*********************************************************************
     42           * INCLUDES
     43           */
     44          
     45          #ifndef NONWK
     46          #include "AF.h"
     47          #endif
     48          #include "hal_adc.h"

   \                                 In  segment SFR_AN, at 0x8f
   \   unsigned char volatile __sfr P0INP
   \                     P0INP:
   \   000000                DS 1

   \                                 In  segment SFR_AN, at 0x90
   \   union <unnamed> volatile __sfr _A_P1
   \                     _A_P1:
   \   000000                DS 1

   \                                 In  segment SFR_AN, at 0x9d
   \   unsigned char volatile __sfr SLEEPSTA
   \                     SLEEPSTA:
   \   000000                DS 1

   \                                 In  segment SFR_AN, at 0x9e
   \   unsigned char volatile __sfr CLKCONSTA
   \                     CLKCONSTA:
   \   000000                DS 1

   \                                 In  segment SFR_AN, at 0xbe
   \   unsigned char volatile __sfr SLEEPCMD
   \                     SLEEPCMD:
   \   000000                DS 1

   \                                 In  segment SFR_AN, at 0xc6
   \   unsigned char volatile __sfr CLKCONCMD
   \                     CLKCONCMD:
   \   000000                DS 1

   \                                 In  segment SFR_AN, at 0xfe
   \   unsigned char volatile __sfr P1DIR
   \                     P1DIR:
   \   000000                DS 1
     49          #include "hal_flash.h"
     50          #include "hal_lcd.h"
     51          #include "hal_led.h"
     52          #include "hal_drivers.h"
     53          #include "OnBoard.h"
     54          #include "OSAL.h"
     55          #include "OSAL_Nv.h"
     56          #include "ZComDef.h"
     57          #include "ZMAC.h" 
     58          
     59          /*********************************************************************
     60           * LOCAL FUNCTIONS
     61           */
     62          
     63          static void zmain_ext_addr( void );
     64          #if defined ZCL_KEY_ESTABLISH
     65          static void zmain_cert_init( void );
     66          #endif
     67          static void zmain_dev_info( void );
     68          static void zmain_vdd_check( void );
     69          

   \                                 In  segment XDATA_I, align 1, keep-with-next
     70          uint8* AppTitle = "QingPu"; //应用程序名称
   \                     AppTitle:
   \   000000                DS 2
   \   000002                REQUIRE `?<Initializer for AppTitle>`
   \   000002                REQUIRE __INIT_XDATA_I
     71          
     72          /*********************************************************************
     73           * @fn      main
     74           * @brief   First function called after startup.
     75           * @return  don't care
     76           */

   \                                 In  segment BANKED_CODE, align 1, keep-with-next
     77          int main( void )
   \                     main:
     78          {
   \   000000                ; Auto size: 0
     79            // Turn off interrupts
     80            osal_int_disable( INTS_ALL );
   \   000000                ; Setup parameters for call to function osal_int_disable
   \   000000   79FF         MOV     R1,#-0x1
   \   000002   12....       LCALL   ??osal_int_disable?relay
     81          
     82            // Initialization for board related stuff such as LEDs
     83            HAL_BOARD_INIT();
   \   000005   53BEFB       ANL     0xbe,#0xfb
   \                     ??main_0:
   \   000008   E59D         MOV     A,0x9d
   \   00000A   A2E6         MOV     C,0xE0 /* A   */.6
   \   00000C   50FA         JNC     ??main_0
   \   00000E   00           NOP
   \   00000F   78F8         MOV     R0,#-0x8
   \   000011   7901         MOV     R1,#0x1
   \                     ??main_1:
   \   000013   00           NOP
   \   000014   E8           MOV     A,R0
   \   000015   24FF         ADD     A,#-0x1
   \   000017   18           DEC     R0
   \   000018   E9           MOV     A,R1
   \   000019   34FF         ADDC    A,#-0x1
   \   00001B   F9           MOV     R1,A
   \   00001C   E8           MOV     A,R0
   \   00001D   49           ORL     A,R1
   \   00001E   70F3         JNZ     ??main_1
   \   000020   75C600       MOV     0xc6,#0x0
   \                     ??main_2:
   \   000023   E59E         MOV     A,0x9e
   \   000025   70FC         JNZ     ??main_2
   \   000027   43BE04       ORL     0xbe,#0x4
   \   00002A   906270       MOV     DPTR,#0x6270
   \   00002D   7408         MOV     A,#0x8
   \   00002F   F0           MOVX    @DPTR,A
   \   000030   C290         CLR     0x90.0
   \   000032   43FE01       ORL     0xfe,#0x1
   \   000035   C291         CLR     0x90.1
   \   000037   43FE02       ORL     0xfe,#0x2
   \   00003A   C294         CLR     0x90.4
   \   00003C   43FE10       ORL     0xfe,#0x10
   \   00003F   438F01       ORL     0x8f,#0x1
     84          
     85            // Make sure supply voltage is high enough to run
     86            zmain_vdd_check();
   \   000042   7E10         MOV     R6,#0x10
   \                     ??main_3:
   \   000044                ; Setup parameters for call to function HalAdcCheckVdd
   \   000044   794A         MOV     R1,#0x4a
   \   000046   12....       LCALL   ??HalAdcCheckVdd?relay
   \   000049   E9           MOV     A,R1
   \   00004A   60F8         JZ      ??main_3
   \   00004C   1E           DEC     R6
   \   00004D   EE           MOV     A,R6
   \   00004E   70F4         JNZ     ??main_3
     87          
     88            // Initialize board I/O
     89            InitBoard( OB_COLD );
   \   000050                ; Setup parameters for call to function InitBoard
   \   000050   7900         MOV     R1,#0x0
   \   000052   12....       LCALL   ??InitBoard?relay
     90          
     91            // Initialze HAL drivers
     92            HalDriverInit();
   \   000055                ; Setup parameters for call to function HalDriverInit
   \   000055   12....       LCALL   ??HalDriverInit?relay
     93          
     94            // Initialize NV System
     95            osal_nv_init( NULL );
   \   000058                ; Setup parameters for call to function osal_nv_init
   \   000058   7A00         MOV     R2,#0x0
   \   00005A   7B00         MOV     R3,#0x0
   \   00005C   12....       LCALL   ??osal_nv_init?relay
     96          
     97            // Initialize the MAC
     98            ZMacInit();
   \   00005F                ; Setup parameters for call to function ZMacInit
   \   00005F   12....       LCALL   ??ZMacInit?relay
     99          
    100            // Determine the extended address
    101            zmain_ext_addr();
   \   000062                ; Setup parameters for call to function zmain_ext_addr
   \   000062   12....       LCALL   ??zmain_ext_addr?relay
    102          
    103          #if defined ZCL_KEY_ESTABLISH
    104            // Initialize the Certicom certificate information.
    105            zmain_cert_init();
    106          #endif
    107          
    108            // Initialize basic NV items
    109            zgInit();
   \   000065                ; Setup parameters for call to function zgInit
   \   000065   12....       LCALL   ??zgInit?relay
    110          
    111          #ifndef NONWK
    112            // Since the AF isn't a task, call it's initialization routine
    113            afInit();
    114          #endif
    115          
    116            // Initialize the operating system
    117            osal_init_system(); // 操作系统资源初始化，调用SampleApp_init()函数
   \   000068                ; Setup parameters for call to function osal_init_system
   \   000068   12....       LCALL   ??osal_init_system?relay
    118          
    119            // Allow interrupts
    120            osal_int_enable( INTS_ALL );
   \   00006B                ; Setup parameters for call to function osal_int_enable
   \   00006B   79FF         MOV     R1,#-0x1
   \   00006D   12....       LCALL   ??osal_int_enable?relay
    121          
    122            // Final board initialization
    123            InitBoard( OB_READY );
   \   000070                ; Setup parameters for call to function InitBoard
   \   000070   7902         MOV     R1,#0x2
   \   000072   12....       LCALL   ??InitBoard?relay
    124          
    125            // Display information about this device
    126            zmain_dev_info();
   \   000075                ; Setup parameters for call to function zmain_dev_info
   \   000075   12....       LCALL   ??zmain_dev_info?relay
    127          
    128          #ifdef WDT_IN_PM1
    129            /* If WDT is used, this is a good place to enable it. */
    130            WatchDogEnable( WDTIMX );
    131          #endif
    132          
    133            osal_start_system(); // 循环处理系统事件
   \   000078                ; Setup parameters for call to function osal_start_system
   \   000078   12....       LCALL   ??osal_start_system?relay
    134          
    135            return 0;  // Shouldn't get here.
   \   00007B   7A00         MOV     R2,#0x0
   \   00007D   7B00         MOV     R3,#0x0
   \   00007F   02....       LJMP    ?BRET
   \   000082                REQUIRE SLEEPCMD
   \   000082                REQUIRE SLEEPSTA
   \   000082                REQUIRE CLKCONCMD
   \   000082                REQUIRE CLKCONSTA
   \   000082                REQUIRE _A_P1
   \   000082                REQUIRE P1DIR
   \   000082                REQUIRE P0INP
    136          } // main()
    137          
    138          /*********************************************************************
    139           * @fn      zmain_vdd_check
    140           * @brief   Check if the Vdd is OK to run the processor.
    141           * @return  Return if Vdd is ok; otherwise, flash LED, then reset
    142           *********************************************************************/
    143          static void zmain_vdd_check( void )
    144          {
    145            uint8 cnt = 16;
    146            
    147            do {
    148              while (!HalAdcCheckVdd(VDD_MIN_RUN));
    149            } while (--cnt);
    150          }
    151          
    152          /**************************************************************************************************
    153           * @fn          zmain_ext_addr
    154           *
    155           * @brief       Execute a prioritized search for a valid extended address and write the results
    156           *              into the OSAL NV system for use by the system. Temporary address not saved to NV.
    157           *
    158           * input parameters
    159           *
    160           * None.
    161           *
    162           * output parameters
    163           *
    164           * None.
    165           *
    166           * @return      None.
    167           **************************************************************************************************
    168           */

   \                                 In  segment BANKED_CODE, align 1, keep-with-next
    169          static void zmain_ext_addr(void)
   \                     zmain_ext_addr:
    170          {
   \   000000   74F5         MOV     A,#-0xb
   \   000002   12....       LCALL   ?BANKED_ENTER_XDATA
   \   000005                ; Saved register size: 11
   \   000005                ; Auto size: 8
   \   000005   74F8         MOV     A,#-0x8
   \   000007   12....       LCALL   ?ALLOC_XSTACK8
    171            uint8 nullAddr[Z_EXTADDR_LEN] = {0xFF, 0xFF, 0xFF, 0xFF, 0xFF, 0xFF, 0xFF, 0xFF};
   \   00000A   85..82       MOV     DPL,?XSP + 0
   \   00000D   85..83       MOV     DPH,?XSP + 1
   \   000010   AC82         MOV     R4,DPL
   \   000012   AD83         MOV     R5,DPH
   \   000014   7583..       MOV     DPH,#(`?<Constant {255, 255, 255, 255, 255, 255, 255,` >> 8) & 0xff
   \   000017   7582..       MOV     DPL,#`?<Constant {255, 255, 255, 255, 255, 255, 255,` & 0xff
   \   00001A   7408         MOV     A,#0x8
   \   00001C   12....       LCALL   ?MOVE_LONG8_XDATA_XDATA
    172            uint8 writeNV = TRUE;
    173          
    174            // First check whether a non-erased extended address exists in the OSAL NV.
    175            if ((SUCCESS != osal_nv_item_init(ZCD_NV_EXTADDR, Z_EXTADDR_LEN, NULL))  ||
    176                (SUCCESS != osal_nv_read(ZCD_NV_EXTADDR, 0, Z_EXTADDR_LEN, aExtendedAddress)) ||
    177                (osal_memcmp(aExtendedAddress, nullAddr, Z_EXTADDR_LEN)))
   \   00001F                ; Setup parameters for call to function osal_nv_item_init
   \   00001F   F5..         MOV     ?V0 + 0,A
   \   000021   F5..         MOV     ?V0 + 1,A
   \   000023   78..         MOV     R0,#?V0 + 0
   \   000025   12....       LCALL   ?PUSH_XSTACK_I_TWO
   \   000028   7C08         MOV     R4,#0x8
   \   00002A   7D00         MOV     R5,#0x0
   \   00002C   7A01         MOV     R2,#0x1
   \   00002E   7B00         MOV     R3,#0x0
   \   000030   12....       LCALL   ??osal_nv_item_init?relay
   \   000033   7402         MOV     A,#0x2
   \   000035   12....       LCALL   ?DEALLOC_XSTACK8
   \   000038   E9           MOV     A,R1
   \   000039   7057         JNZ     ??zmain_ext_addr_0
   \   00003B                ; Setup parameters for call to function osal_nv_read
   \   00003B   75....       MOV     ?V0 + 0,#aExtendedAddress & 0xff
   \   00003E   75....       MOV     ?V0 + 1,#(aExtendedAddress >> 8) & 0xff
   \   000041   78..         MOV     R0,#?V0 + 0
   \   000043   12....       LCALL   ?PUSH_XSTACK_I_TWO
   \   000046   75..08       MOV     ?V0 + 0,#0x8
   \   000049   75..00       MOV     ?V0 + 1,#0x0
   \   00004C   78..         MOV     R0,#?V0 + 0
   \   00004E   12....       LCALL   ?PUSH_XSTACK_I_TWO
   \   000051   7C00         MOV     R4,#0x0
   \   000053   7D00         MOV     R5,#0x0
   \   000055   7A01         MOV     R2,#0x1
   \   000057   7B00         MOV     R3,#0x0
   \   000059   12....       LCALL   ??osal_nv_read?relay
   \   00005C   7404         MOV     A,#0x4
   \   00005E   12....       LCALL   ?DEALLOC_XSTACK8
   \   000061   E9           MOV     A,R1
   \   000062   702E         JNZ     ??zmain_ext_addr_0
   \   000064                ; Setup parameters for call to function osal_memcmp
   \   000064   85..82       MOV     DPL,?XSP + 0
   \   000067   85..83       MOV     DPH,?XSP + 1
   \   00006A   A982         MOV     R1,DPL
   \   00006C   AA83         MOV     R2,DPH
   \   00006E   89..         MOV     ?V0 + 0,R1
   \   000070   8A..         MOV     ?V0 + 1,R2
   \   000072   75..00       MOV     ?V0 + 2,#0x0
   \   000075   78..         MOV     R0,#?V0 + 0
   \   000077   12....       LCALL   ?PUSH_XSTACK_I_THREE
   \   00007A   7C08         MOV     R4,#0x8
   \   00007C   7D00         MOV     R5,#0x0
   \   00007E   79..         MOV     R1,#aExtendedAddress & 0xff
   \   000080   7A..         MOV     R2,#(aExtendedAddress >> 8) & 0xff
   \   000082   7B00         MOV     R3,#0x0
   \   000084   12....       LCALL   ??osal_memcmp?relay
   \   000087   7403         MOV     A,#0x3
   \   000089   12....       LCALL   ?DEALLOC_XSTACK8
   \   00008C   E9           MOV     A,R1
   \   00008D   7003         JNZ     $+5
   \   00008F   02....       LJMP    ??zmain_ext_addr_1 & 0xFFFF
    178            {
    179              // Attempt to read the extended address from the location on the lock bits page
    180              // where the programming tools know to reserve it.
    181              HalFlashRead(HAL_FLASH_IEEE_PAGE, HAL_FLASH_IEEE_OSET, aExtendedAddress, Z_EXTADDR_LEN);
   \                     ??zmain_ext_addr_0:
   \   000092                ; Setup parameters for call to function HalFlashRead
   \   000092   75..08       MOV     ?V0 + 0,#0x8
   \   000095   75..00       MOV     ?V0 + 1,#0x0
   \   000098   78..         MOV     R0,#?V0 + 0
   \   00009A   12....       LCALL   ?PUSH_XSTACK_I_TWO
   \   00009D   7C..         MOV     R4,#aExtendedAddress & 0xff
   \   00009F   7D..         MOV     R5,#(aExtendedAddress >> 8) & 0xff
   \   0000A1   7AE8         MOV     R2,#-0x18
   \   0000A3   7B07         MOV     R3,#0x7
   \   0000A5   797F         MOV     R1,#0x7f
   \   0000A7   12....       LCALL   ??HalFlashRead?relay
   \   0000AA   7402         MOV     A,#0x2
   \   0000AC   12....       LCALL   ?DEALLOC_XSTACK8
    182          
    183              if (osal_memcmp(aExtendedAddress, nullAddr, Z_EXTADDR_LEN))
   \   0000AF                ; Setup parameters for call to function osal_memcmp
   \   0000AF   85..82       MOV     DPL,?XSP + 0
   \   0000B2   85..83       MOV     DPH,?XSP + 1
   \   0000B5   A982         MOV     R1,DPL
   \   0000B7   AA83         MOV     R2,DPH
   \   0000B9   89..         MOV     ?V0 + 0,R1
   \   0000BB   8A..         MOV     ?V0 + 1,R2
   \   0000BD   75..00       MOV     ?V0 + 2,#0x0
   \   0000C0   78..         MOV     R0,#?V0 + 0
   \   0000C2   12....       LCALL   ?PUSH_XSTACK_I_THREE
   \   0000C5   7C08         MOV     R4,#0x8
   \   0000C7   7D00         MOV     R5,#0x0
   \   0000C9   79..         MOV     R1,#aExtendedAddress & 0xff
   \   0000CB   7A..         MOV     R2,#(aExtendedAddress >> 8) & 0xff
   \   0000CD   7B00         MOV     R3,#0x0
   \   0000CF   12....       LCALL   ??osal_memcmp?relay
   \   0000D2   7403         MOV     A,#0x3
   \   0000D4   12....       LCALL   ?DEALLOC_XSTACK8
   \   0000D7   E9           MOV     A,R1
   \   0000D8   6035         JZ      ??zmain_ext_addr_2
    184              {
    185                // Attempt to read the extended address from the designated location in the Info Page.
    186                if (!osal_memcmp((uint8 *)(P_INFOPAGE+HAL_INFOP_IEEE_OSET), nullAddr, Z_EXTADDR_LEN))
   \   0000DA                ; Setup parameters for call to function osal_memcmp
   \   0000DA   78..         MOV     R0,#?V0 + 0
   \   0000DC   12....       LCALL   ?PUSH_XSTACK_I_THREE
   \   0000DF   7C08         MOV     R4,#0x8
   \   0000E1   7D00         MOV     R5,#0x0
   \   0000E3   790C         MOV     R1,#0xc
   \   0000E5   7A78         MOV     R2,#0x78
   \   0000E7   7B00         MOV     R3,#0x0
   \   0000E9   12....       LCALL   ??osal_memcmp?relay
   \   0000EC   7403         MOV     A,#0x3
   \   0000EE   12....       LCALL   ?DEALLOC_XSTACK8
   \   0000F1   E9           MOV     A,R1
   \   0000F2   7054         JNZ     ??zmain_ext_addr_3
    187                {
    188                  osal_memcpy(aExtendedAddress, (uint8 *)(P_INFOPAGE+HAL_INFOP_IEEE_OSET), Z_EXTADDR_LEN);
   \   0000F4                ; Setup parameters for call to function osal_memcpy
   \   0000F4   75..0C       MOV     ?V0 + 0,#0xc
   \   0000F7   75..78       MOV     ?V0 + 1,#0x78
   \   0000FA   78..         MOV     R0,#?V0 + 0
   \   0000FC   12....       LCALL   ?PUSH_XSTACK_I_THREE
   \   0000FF   7C08         MOV     R4,#0x8
   \   000101   7D00         MOV     R5,#0x0
   \   000103   7A..         MOV     R2,#aExtendedAddress & 0xff
   \   000105   7B..         MOV     R3,#(aExtendedAddress >> 8) & 0xff
   \   000107   12....       LCALL   ??osal_memcpy?relay
   \   00010A   7403         MOV     A,#0x3
   \   00010C   12....       LCALL   ?DEALLOC_XSTACK8
    189                }
    190                else  // No valid extended address was found.
    191                {
    192                  uint8 idx;
    193                  
    194          #if !defined ( NV_RESTORE )
    195                  writeNV = FALSE;  // Make this a temporary IEEE address
    196          #endif
    197          
    198                  /* Attempt to create a sufficiently random extended address for expediency.
    199                   * Note: this is only valid/legal in a test environment and
    200                   *       must never be used for a commercial product.
    201                   */
    202                  for (idx = 0; idx < (Z_EXTADDR_LEN - 2);)
    203                  {
    204                    uint16 randy = osal_rand();
    205                    aExtendedAddress[idx++] = LO_UINT16(randy);
    206                    aExtendedAddress[idx++] = HI_UINT16(randy);
    207                  }
    208                  // Next-to-MSB identifies ZigBee devicetype.
    209          #if ZG_BUILD_COORDINATOR_TYPE && !ZG_BUILD_JOINING_TYPE
    210                  aExtendedAddress[idx++] = 0x10;
    211          #elif ZG_BUILD_RTRONLY_TYPE
    212                  aExtendedAddress[idx++] = 0x20;
    213          #else
    214                  aExtendedAddress[idx++] = 0x30;
    215          #endif
    216                  // MSB has historical signficance.
    217                  aExtendedAddress[idx] = 0xF8;
    218                }
    219              }
    220          
    221              if (writeNV)
    222              {
    223                (void)osal_nv_write(ZCD_NV_EXTADDR, 0, Z_EXTADDR_LEN, aExtendedAddress);
   \                     ??zmain_ext_addr_2:
   \   00010F                ; Setup parameters for call to function osal_nv_write
   \   00010F   75....       MOV     ?V0 + 0,#aExtendedAddress & 0xff
   \   000112   75....       MOV     ?V0 + 1,#(aExtendedAddress >> 8) & 0xff
   \   000115   78..         MOV     R0,#?V0 + 0
   \   000117   12....       LCALL   ?PUSH_XSTACK_I_TWO
   \   00011A   75..08       MOV     ?V0 + 0,#0x8
   \   00011D   75..00       MOV     ?V0 + 1,#0x0
   \   000120   78..         MOV     R0,#?V0 + 0
   \   000122   12....       LCALL   ?PUSH_XSTACK_I_TWO
   \   000125   7C00         MOV     R4,#0x0
   \   000127   7D00         MOV     R5,#0x0
   \   000129   7A01         MOV     R2,#0x1
   \   00012B   7B00         MOV     R3,#0x0
   \   00012D   12....       LCALL   ??osal_nv_write?relay
   \   000130   7404         MOV     A,#0x4
   \   000132   12....       LCALL   ?DEALLOC_XSTACK8
    224              }
    225            }
    226          
    227            // Set the MAC PIB extended address according to results from above.
    228            (void)ZMacSetReq(MAC_EXTENDED_ADDRESS, aExtendedAddress);
   \                     ??zmain_ext_addr_1:
   \   000135                ; Setup parameters for call to function ZMacSetReq
   \   000135   7A..         MOV     R2,#aExtendedAddress & 0xff
   \   000137   7B..         MOV     R3,#(aExtendedAddress >> 8) & 0xff
   \   000139   79E2         MOV     R1,#-0x1e
   \   00013B   12....       LCALL   ??ZMacSetReq?relay
    229          }
   \   00013E   7408         MOV     A,#0x8
   \   000140   12....       LCALL   ?DEALLOC_XSTACK8
   \   000143   7F03         MOV     R7,#0x3
   \   000145   02....       LJMP    ?BANKED_LEAVE_XDATA
   \                     ??zmain_ext_addr_3:
   \   000148   7E00         MOV     R6,#0x0
   \                     ??zmain_ext_addr_4:
   \   00014A                ; Setup parameters for call to function osal_rand
   \   00014A   12....       LCALL   ??osal_rand?relay
   \   00014D   8A..         MOV     ?V0 + 0,R2
   \   00014F   A8..         MOV     R0,?V0 + 0
   \   000151   12....       LCALL   ?Subroutine0 & 0xFFFF
   \                     ??CrossCallReturnLabel_0:
   \   000154   E8           MOV     A,R0
   \   000155   F0           MOVX    @DPTR,A
   \   000156   0E           INC     R6
   \   000157   12....       LCALL   ?Subroutine0 & 0xFFFF
   \                     ??CrossCallReturnLabel_1:
   \   00015A   EB           MOV     A,R3
   \   00015B   F0           MOVX    @DPTR,A
   \   00015C   0E           INC     R6
   \   00015D   EE           MOV     A,R6
   \   00015E   C3           CLR     C
   \   00015F   9406         SUBB    A,#0x6
   \   000161   40E7         JC      ??zmain_ext_addr_4
   \   000163   12....       LCALL   ?Subroutine0 & 0xFFFF
   \                     ??CrossCallReturnLabel_2:
   \   000166   7430         MOV     A,#0x30
   \   000168   F0           MOVX    @DPTR,A
   \   000169   7401         MOV     A,#0x1
   \   00016B   2E           ADD     A,R6
   \   00016C   F8           MOV     R0,A
   \   00016D   74..         MOV     A,#aExtendedAddress & 0xff
   \   00016F   28           ADD     A,R0
   \   000170   F582         MOV     DPL,A
   \   000172   74..         MOV     A,#(aExtendedAddress >> 8) & 0xff
   \   000174   3400         ADDC    A,#0x0
   \   000176   F583         MOV     DPH,A
   \   000178   74F8         MOV     A,#-0x8
   \   00017A   F0           MOVX    @DPTR,A
   \   00017B   80B8         SJMP    ??zmain_ext_addr_1

   \                                 In  segment BANKED_CODE, align 1, keep-with-next
   \                     ?Subroutine0:
   \   000000   8E..         MOV     ?V0 + 0,R6
   \   000002   74..         MOV     A,#aExtendedAddress & 0xff
   \   000004   25..         ADD     A,?V0 + 0
   \   000006   F582         MOV     DPL,A
   \   000008   74..         MOV     A,#(aExtendedAddress >> 8) & 0xff
   \   00000A   3400         ADDC    A,#0x0
   \   00000C   F583         MOV     DPH,A
   \   00000E   22           RET
    230          
    231          #if defined ZCL_KEY_ESTABLISH
    232          /**************************************************************************************************
    233           * @fn          zmain_cert_init
    234           *
    235           * @brief       Initialize the Certicom certificate information.
    236           *
    237           * input parameters
    238           *
    239           * None.
    240           *
    241           * output parameters
    242           *
    243           * None.
    244           *
    245           * @return      None.
    246           **************************************************************************************************
    247           */
    248          static void zmain_cert_init(void)
    249          {
    250            uint8 certData[ZCL_KE_IMPLICIT_CERTIFICATE_LEN];
    251            uint8 nullData[ZCL_KE_IMPLICIT_CERTIFICATE_LEN] = {
    252              0xFF, 0xFF, 0xFF, 0xFF, 0xFF, 0xFF, 0xFF, 0xFF,
    253              0xFF, 0xFF, 0xFF, 0xFF, 0xFF, 0xFF, 0xFF, 0xFF,
    254              0xFF, 0xFF, 0xFF, 0xFF, 0xFF, 0xFF, 0xFF, 0xFF,
    255              0xFF, 0xFF, 0xFF, 0xFF, 0xFF, 0xFF, 0xFF, 0xFF,
    256              0xFF, 0xFF, 0xFF, 0xFF, 0xFF, 0xFF, 0xFF, 0xFF,
    257              0xFF, 0xFF, 0xFF, 0xFF, 0xFF, 0xFF, 0xFF, 0xFF
    258            };
    259          
    260            (void)osal_nv_item_init(ZCD_NV_IMPLICIT_CERTIFICATE, ZCL_KE_IMPLICIT_CERTIFICATE_LEN, NULL);
    261            (void)osal_nv_item_init(ZCD_NV_DEVICE_PRIVATE_KEY, ZCL_KE_DEVICE_PRIVATE_KEY_LEN, NULL);
    262          
    263            // First check whether non-null certificate data exists in the OSAL NV. To save on code space,
    264            // just use the ZCD_NV_CA_PUBLIC_KEY as the bellwether for all three.
    265            if ((SUCCESS != osal_nv_item_init(ZCD_NV_CA_PUBLIC_KEY, ZCL_KE_CA_PUBLIC_KEY_LEN, NULL))    ||
    266                (SUCCESS != osal_nv_read(ZCD_NV_CA_PUBLIC_KEY, 0, ZCL_KE_CA_PUBLIC_KEY_LEN, certData))  ||
    267                (osal_memcmp(certData, nullData, ZCL_KE_CA_PUBLIC_KEY_LEN)))
    268            {
    269              // Attempt to read the certificate data from its corresponding location on the lock bits page.
    270              HalFlashRead(HAL_FLASH_IEEE_PAGE, HAL_FLASH_CA_PUBLIC_KEY_OSET, certData,
    271                                                   ZCL_KE_CA_PUBLIC_KEY_LEN);
    272              // If the certificate data is not NULL, use it to update the corresponding NV items.
    273              if (!osal_memcmp(certData, nullData, ZCL_KE_CA_PUBLIC_KEY_LEN))
    274              {
    275                (void)osal_nv_write(ZCD_NV_CA_PUBLIC_KEY, 0, ZCL_KE_CA_PUBLIC_KEY_LEN, certData);
    276                HalFlashRead(HAL_FLASH_IEEE_PAGE, HAL_FLASH_IMPLICIT_CERT_OSET, certData,
    277                                                     ZCL_KE_IMPLICIT_CERTIFICATE_LEN);
    278                (void)osal_nv_write(ZCD_NV_IMPLICIT_CERTIFICATE, 0,
    279                                    ZCL_KE_IMPLICIT_CERTIFICATE_LEN, certData);
    280                HalFlashRead(HAL_FLASH_IEEE_PAGE, HAL_FLASH_DEV_PRIVATE_KEY_OSET, certData,
    281                                                  ZCL_KE_DEVICE_PRIVATE_KEY_LEN);
    282                (void)osal_nv_write(ZCD_NV_DEVICE_PRIVATE_KEY, 0, ZCL_KE_DEVICE_PRIVATE_KEY_LEN, certData);
    283              }
    284            }
    285          }
    286          #endif
    287          
    288          /**************************************************************************************************
    289           * @fn          zmain_dev_info
    290           *
    291           * @brief       This displays the IEEE (MSB to LSB) on the LCD.
    292           *
    293           * input parameters
    294           *
    295           * None.
    296           *
    297           * output parameters
    298           *
    299           * None.
    300           *
    301           * @return      None.
    302           **************************************************************************************************
    303           */

   \                                 In  segment BANKED_CODE, align 1, keep-with-next
    304          static void zmain_dev_info(void)
   \                     zmain_dev_info:
    305          {
   \   000000   74F4         MOV     A,#-0xc
   \   000002   12....       LCALL   ?BANKED_ENTER_XDATA
   \   000005                ; Saved register size: 12
   \   000005                ; Auto size: 17
   \   000005   74EF         MOV     A,#-0x11
   \   000007   12....       LCALL   ?ALLOC_XSTACK8
    306          #ifdef LCD_SUPPORTED
    307            uint8 i;
    308            uint8 *xad;
    309            uint8 lcd_buf[Z_EXTADDR_LEN*2+1];
    310          
    311            // Display the extended address.
    312            xad = aExtendedAddress + Z_EXTADDR_LEN - 1;
   \   00000A   78..         MOV     R0,#(aExtendedAddress + 7) & 0xff
   \   00000C   79..         MOV     R1,#((aExtendedAddress + 7) >> 8) & 0xff
    313          
    314            for (i = 0; i < Z_EXTADDR_LEN*2; xad--)
   \   00000E   7C00         MOV     R4,#0x0
    315            {
    316              uint8 ch;
    317              ch = (*xad >> 4) & 0x0F;
   \                     ??zmain_dev_info_0:
   \   000010   8882         MOV     DPL,R0
   \   000012   8983         MOV     DPH,R1
   \   000014   E0           MOVX    A,@DPTR
   \   000015   C4           SWAP    A
   \   000016   540F         ANL     A,#0xf
   \   000018   FD           MOV     R5,A
    318              lcd_buf[i++] = ch + (( ch < 10 ) ? '0' : '7'); // +7可以转变成大写字符ABCDEF
   \   000019   EC           MOV     A,R4
   \   00001A   FF           MOV     R7,A
   \   00001B   0C           INC     R4
   \   00001C   ED           MOV     A,R5
   \   00001D   C3           CLR     C
   \   00001E   940A         SUBB    A,#0xa
   \   000020   5004         JNC     ??zmain_dev_info_1
   \   000022   7A30         MOV     R2,#0x30
   \   000024   8002         SJMP    ??zmain_dev_info_2
   \                     ??zmain_dev_info_1:
   \   000026   7A37         MOV     R2,#0x37
   \                     ??zmain_dev_info_2:
   \   000028   EA           MOV     A,R2
   \   000029   2D           ADD     A,R5
   \   00002A   C0E0         PUSH    A
   \   00002C   8F..         MOV     ?V0 + 0,R7
   \   00002E   85..82       MOV     DPL,?XSP + 0
   \   000031   85..83       MOV     DPH,?XSP + 1
   \   000034   E582         MOV     A,DPL
   \   000036   25..         ADD     A,?V0 + 0
   \   000038   F582         MOV     DPL,A
   \   00003A   E583         MOV     A,DPH
   \   00003C   3400         ADDC    A,#0x0
   \   00003E   F583         MOV     DPH,A
   \   000040   D0E0         POP     A
   \   000042   F0           MOVX    @DPTR,A
    319              ch = *xad & 0x0F;
   \   000043   8882         MOV     DPL,R0
   \   000045   8983         MOV     DPH,R1
   \   000047   E0           MOVX    A,@DPTR
   \   000048   540F         ANL     A,#0xf
   \   00004A   FD           MOV     R5,A
    320              lcd_buf[i++] = ch + (( ch < 10 ) ? '0' : '7');
   \   00004B   8C..         MOV     ?V0 + 0,R4
   \   00004D   0C           INC     R4
   \   00004E   C3           CLR     C
   \   00004F   940A         SUBB    A,#0xa
   \   000051   5004         JNC     ??zmain_dev_info_3
   \   000053   7A30         MOV     R2,#0x30
   \   000055   8002         SJMP    ??zmain_dev_info_4
   \                     ??zmain_dev_info_3:
   \   000057   7A37         MOV     R2,#0x37
   \                     ??zmain_dev_info_4:
   \   000059   EA           MOV     A,R2
   \   00005A   2D           ADD     A,R5
   \   00005B   C0E0         PUSH    A
   \   00005D   85....       MOV     ?V0 + 2,?V0 + 0
   \   000060   85..82       MOV     DPL,?XSP + 0
   \   000063   85..83       MOV     DPH,?XSP + 1
   \   000066   E582         MOV     A,DPL
   \   000068   25..         ADD     A,?V0 + 2
   \   00006A   F582         MOV     DPL,A
   \   00006C   E583         MOV     A,DPH
   \   00006E   3400         ADDC    A,#0x0
   \   000070   F583         MOV     DPH,A
   \   000072   D0E0         POP     A
   \   000074   F0           MOVX    @DPTR,A
    321            }
   \   000075   E8           MOV     A,R0
   \   000076   24FF         ADD     A,#-0x1
   \   000078   18           DEC     R0
   \   000079   E9           MOV     A,R1
   \   00007A   34FF         ADDC    A,#-0x1
   \   00007C   F9           MOV     R1,A
   \   00007D   EC           MOV     A,R4
   \   00007E   C3           CLR     C
   \   00007F   9410         SUBB    A,#0x10
   \   000081   408D         JC      ??zmain_dev_info_0
    322            lcd_buf[Z_EXTADDR_LEN*2] = '\0';
   \   000083   7410         MOV     A,#0x10
   \   000085   12....       LCALL   ?XSTACK_DISP0_8
   \   000088   E4           CLR     A
   \   000089   F0           MOVX    @DPTR,A
    323            
    324            //DrawRectFill(0 ,0 ,128,128,GREEN);//背景色
    325            DrawRectFill(3 ,20 ,122,106,WHITE); //显示窗口
   \   00008A                ; Setup parameters for call to function DrawRectFill
   \   00008A   75..FF       MOV     ?V0 + 2,#-0x1
   \   00008D   75..FF       MOV     ?V0 + 3,#-0x1
   \   000090   78..         MOV     R0,#?V0 + 2
   \   000092   12....       LCALL   ?PUSH_XSTACK_I_TWO
   \   000095   75..6A       MOV     ?V0 + 2,#0x6a
   \   000098   75..00       MOV     ?V0 + 3,#0x0
   \   00009B   78..         MOV     R0,#?V0 + 2
   \   00009D   12....       LCALL   ?PUSH_XSTACK_I_TWO
   \   0000A0   75..7A       MOV     ?V0 + 2,#0x7a
   \   0000A3   78..         MOV     R0,#?V0 + 2
   \   0000A5   12....       LCALL   ?PUSH_XSTACK_I_TWO
   \   0000A8   7C14         MOV     R4,#0x14
   \   0000AA   7D00         MOV     R5,#0x0
   \   0000AC   7A03         MOV     R2,#0x3
   \   0000AE   7B00         MOV     R3,#0x0
   \   0000B0   12....       LCALL   ??DrawRectFill?relay
   \   0000B3   7406         MOV     A,#0x6
   \   0000B5   12....       LCALL   ?DEALLOC_XSTACK8
    326             
    327            Color    = BLACK; //前景色
   \   0000B8   90....       MOV     DPTR,#Color
   \   0000BB   E4           CLR     A
   \   0000BC   F0           MOVX    @DPTR,A
   \   0000BD   A3           INC     DPTR
   \   0000BE   F0           MOVX    @DPTR,A
    328            Color_BK = GREEN; //背景色
   \   0000BF   90....       MOV     DPTR,#Color_BK
   \   0000C2   74E0         MOV     A,#-0x20
   \   0000C4   F0           MOVX    @DPTR,A
   \   0000C5   A3           INC     DPTR
   \   0000C6   7407         MOV     A,#0x7
   \   0000C8   F0           MOVX    @DPTR,A
    329            LCD_write_EN_string(64-7*osal_strlen((char*)AppTitle)/2,3,AppTitle); //显示标题
   \   0000C9                ; Setup parameters for call to function osal_strlen
   \   0000C9   90....       MOV     DPTR,#AppTitle
   \   0000CC   E0           MOVX    A,@DPTR
   \   0000CD   FA           MOV     R2,A
   \   0000CE   A3           INC     DPTR
   \   0000CF   E0           MOVX    A,@DPTR
   \   0000D0   FB           MOV     R3,A
   \   0000D1   12....       LCALL   ??osal_strlen?relay
   \   0000D4                ; Setup parameters for call to function LCD_write_EN_string
   \   0000D4   90....       MOV     DPTR,#AppTitle
   \   0000D7   E0           MOVX    A,@DPTR
   \   0000D8   FC           MOV     R4,A
   \   0000D9   A3           INC     DPTR
   \   0000DA   E0           MOVX    A,@DPTR
   \   0000DB   FD           MOV     R5,A
   \   0000DC   EA           MOV     A,R2
   \   0000DD   75F007       MOV     B,#0x7
   \   0000E0   A4           MUL     AB
   \   0000E1   F8           MOV     R0,A
   \   0000E2   AAF0         MOV     R2,B
   \   0000E4   75F007       MOV     B,#0x7
   \   0000E7   EB           MOV     A,R3
   \   0000E8   A4           MUL     AB
   \   0000E9   2A           ADD     A,R2
   \   0000EA   F9           MOV     R1,A
   \   0000EB   7A02         MOV     R2,#0x2
   \   0000ED   7B00         MOV     R3,#0x0
   \   0000EF   12....       LCALL   ?S_DIV_MOD
   \   0000F2   7440         MOV     A,#0x40
   \   0000F4   C3           CLR     C
   \   0000F5   98           SUBB    A,R0
   \   0000F6   F9           MOV     R1,A
   \   0000F7   7403         MOV     A,#0x3
   \   0000F9   FA           MOV     R2,A
   \   0000FA   12....       LCALL   ??LCD_write_EN_string?relay
    330            
    331            Color    = BLACK; //前景色
   \   0000FD   90....       MOV     DPTR,#Color
   \   000100   E4           CLR     A
   \   000101   F0           MOVX    @DPTR,A
   \   000102   A3           INC     DPTR
   \   000103   F0           MOVX    @DPTR,A
    332            Color_BK = WHITE; //背景色          
   \   000104   90....       MOV     DPTR,#Color_BK
   \   000107   74FF         MOV     A,#-0x1
   \   000109   F0           MOVX    @DPTR,A
   \   00010A   A3           INC     DPTR
   \   00010B   F0           MOVX    @DPTR,A
    333            HalLcdWriteString( (char*)lcd_buf, HAL_LCD_LINE_7);
   \   00010C                ; Setup parameters for call to function HalLcdWriteString
   \   00010C   7906         MOV     R1,#0x6
   \   00010E   85..82       MOV     DPL,?XSP + 0
   \   000111   85..83       MOV     DPH,?XSP + 1
   \   000114   AA82         MOV     R2,DPL
   \   000116   AB83         MOV     R3,DPH
   \   000118   12....       LCALL   ??HalLcdWriteString?relay
    334          #endif
    335          }
   \   00011B   7411         MOV     A,#0x11
   \   00011D   12....       LCALL   ?DEALLOC_XSTACK8
   \   000120   7F04         MOV     R7,#0x4
   \   000122   02....       LJMP    ?BANKED_LEAVE_XDATA

   \                                 In  segment XDATA_ID, align 1, keep-with-next
   \                     `?<Initializer for AppTitle>`:
   \   000000   ....         DW `?<Constant "QingPu">`

   \                                 In  segment BANK_RELAYS, align 1
   \                     ??main?relay:
   \   000000   12....       LCALL   ?BDISPATCH
   \   000003   ......       DC24    main

   \                                 In  segment BANK_RELAYS, align 1
   \                     ??zmain_ext_addr?relay:
   \   000000   12....       LCALL   ?BDISPATCH
   \   000003   ......       DC24    zmain_ext_addr

   \                                 In  segment BANK_RELAYS, align 1
   \                     ??zmain_dev_info?relay:
   \   000000   12....       LCALL   ?BDISPATCH
   \   000003   ......       DC24    zmain_dev_info

   \                                 In  segment XDATA_ROM_C, align 1
   \                     `?<Constant "QingPu">`:
   \   000000   51696E67     DB "QingPu"
   \            507500  

   \                                 In  segment XDATA_ROM_C, align 1
   \                     `?<Constant {255, 255, 255, 255, 255, 255, 255,`:
   \   000000   FF           DB 255
   \   000001   FF           DB 255
   \   000002   FF           DB 255
   \   000003   FF           DB 255
   \   000004   FF           DB 255
   \   000005   FF           DB 255
   \   000006   FF           DB 255
   \   000007   FF           DB 255
    336          
    337          /*********************************************************************
    338          *********************************************************************/

   Maximum stack usage in bytes:

     Function                 ISTACK PSTACK XSTACK
     --------                 ------ ------ ------
     main                         0      0      0
       -> osal_int_disable        0      0      0
       -> HalAdcCheckVdd          0      0      0
       -> InitBoard               0      0      0
       -> HalDriverInit           0      0      0
       -> osal_nv_init            0      0      0
       -> ZMacInit                0      0      0
       -> zmain_ext_addr          0      0      0
       -> zgInit                  0      0      0
       -> osal_init_system        0      0      0
       -> osal_int_enable         0      0      0
       -> InitBoard               0      0      0
       -> zmain_dev_info          0      0      0
       -> osal_start_system       0      0      0
     zmain_dev_info               1      0     35
       -> DrawRectFill            0      0     70
       -> osal_strlen             0      0     58
       -> LCD_write_EN_string     0      0     58
       -> HalLcdWriteString       0      0     58
     zmain_ext_addr               2      0     23
       -> osal_nv_item_init       0      0     42
       -> osal_nv_read            0      0     46
       -> osal_memcmp             0      0     44
       -> HalFlashRead            0      0     42
       -> osal_memcmp             0      0     44
       -> osal_memcmp             0      0     44
       -> osal_memcpy             0      0     44
       -> osal_nv_write           0      0     46
       -> ZMacSetReq              0      0     38
       -> osal_rand               0      0     38


   Segment part sizes:

     Function/Label                                 Bytes
     --------------                                 -----
     P0INP                                             1
     _A_P1                                             1
     SLEEPSTA                                          1
     CLKCONSTA                                         1
     SLEEPCMD                                          1
     CLKCONCMD                                         1
     P1DIR                                             1
     AppTitle                                          2
     main                                            130
     zmain_ext_addr                                  381
     ?Subroutine0                                     15
     zmain_dev_info                                  293
     ?<Initializer for AppTitle>                       2
     ??main?relay                                      6
     ??zmain_ext_addr?relay                            6
     ??zmain_dev_info?relay                            6
     ?<Constant "QingPu">                              7
     ?<Constant {255, 255, 255, 255, 255, 255, 255,    8

 
 819 bytes in segment BANKED_CODE
  18 bytes in segment BANK_RELAYS
   7 bytes in segment SFR_AN
   2 bytes in segment XDATA_I
   2 bytes in segment XDATA_ID
  15 bytes in segment XDATA_ROM_C
 
 839 bytes of CODE  memory
  15 bytes of CONST memory
   0 bytes of DATA  memory (+ 7 bytes shared)
   2 bytes of XDATA memory

Errors: none
Warnings: none
