###############################################################################
#                                                                             #
# IAR C/C++ Compiler V8.10.3.10338/W32 for 8051         10/Jun/2019  18:05:21 #
# Copyright 2004-2011 IAR Systems AB.                                         #
#                                                                             #
#    Core               =  plain                                              #
#    Code model         =  banked                                             #
#    Data model         =  large                                              #
#    Calling convention =  xdata reentrant                                    #
#    Constant location  =  data_rom                                           #
#    Dptr setup         =  1,16                                               #
#    Source file        =  E:\Github_Repository\zigbee-net-tech\ZStack-2.5.1a #
#                          \Projects\zstack\Samples\SampleApp\Source\SampleAp #
#                          p.c                                                #
#    Command line       =  -f E:\Github_Repository\zigbee-net-tech\ZStack-2.5 #
#                          .1a\Projects\zstack\Samples\SampleApp\CC2530DB\..\ #
#                          ..\..\Tools\CC2530DB\f8wRouter.cfg (-DCPU32MHZ     #
#                          -DROOT=__near_func -DMAC_CFG_APP_PENDING_QUEUE=TRU #
#                          E -DMAC_CFG_TX_DATA_MAX=5 -DMAC_CFG_TX_MAX=8       #
#                          -DMAC_CFG_RX_MAX=5 -DRTR_NWK -DROUTER_EB) -f       #
#                          E:\Github_Repository\zigbee-net-tech\ZStack-2.5.1a #
#                          \Projects\zstack\Samples\SampleApp\CC2530DB\..\..\ #
#                          ..\Tools\CC2530DB\f8wConfig.cfg (-DZIGBEEPRO       #
#                          -DSECURE=0 -DZG_SECURE_DYNAMIC=0 -DREFLECTOR       #
#                          -DDEFAULT_CHANLIST=0x00000800                      #
#                          -DZDAPP_CONFIG_PAN_ID=0xFFF1                       #
#                          -DNWK_START_DELAY=100 -DEXTENDED_JOINING_RANDOM_MA #
#                          SK=0x007F -DBEACON_REQUEST_DELAY=100               #
#                          -DBEACON_REQ_DELAY_MASK=0x00FF                     #
#                          -DLINK_STATUS_JITTER_MASK=0x007F                   #
#                          -DROUTE_EXPIRY_TIME=30 -DAPSC_ACK_WAIT_DURATION_PO #
#                          LLED=3000 -DNWK_INDIRECT_MSG_TIMEOUT=7             #
#                          -DMAX_RREQ_ENTRIES=8 -DAPSC_MAX_FRAME_RETRIES=3    #
#                          -DNWK_MAX_DATA_RETRIES=2                           #
#                          -DMAX_POLL_FAILURE_RETRIES=2 -DMAX_BCAST=9         #
#                          -DAPS_MAX_GROUPS=16 -DMAX_RTG_ENTRIES=40           #
#                          -DNWK_MAX_BINDING_ENTRIES=4                        #
#                          -DMAX_BINDING_CLUSTER_IDS=4 "-DDEFAULT_KEY={0x01,  #
#                          0x03, 0x05, 0x07, 0x09, 0x0B, 0x0D, 0x0F, 0x00,    #
#                          0x02, 0x04, 0x06, 0x08, 0x0A, 0x0C, 0x0D}"         #
#                          -DMAC_MAX_FRAME_SIZE=116                           #
#                          -DZDNWKMGR_MIN_TRANSMISSIONS=20 "-DCONST=const     #
#                          __code" -DGENERIC=__generic                        #
#                          -DRFD_RCVC_ALWAYS_ON=FALSE -DPOLL_RATE=1000        #
#                          -DQUEUED_POLL_RATE=100 -DRESPONSE_POLL_RATE=100)   #
#                          -DREJOIN_POLL_RATE=440 E:\Github_Repository\zigbee #
#                          -net-tech\ZStack-2.5.1a\Projects\zstack\Samples\Sa #
#                          mpleApp\Source\SampleApp.c -D NWK_AUTO_POLL -D     #
#                          ZTOOL_P1 -D MT_TASK -D MT_SYS_FUNC -D MT_ZDO_FUNC  #
#                          -lC E:\Github_Repository\zigbee-net-tech\ZStack-2. #
#                          5.1a\Projects\zstack\Samples\SampleApp\CC2530DB\Ro #
#                          uterEB\List\ -lA E:\Github_Repository\zigbee-net-t #
#                          ech\ZStack-2.5.1a\Projects\zstack\Samples\SampleAp #
#                          p\CC2530DB\RouterEB\List\ --diag_suppress          #
#                          Pe001,Pa010 -o E:\Github_Repository\zigbee-net-tec #
#                          h\ZStack-2.5.1a\Projects\zstack\Samples\SampleApp\ #
#                          CC2530DB\RouterEB\Obj\ -e --no_code_motion         #
#                          --debug --core=plain --dptr=16,1                   #
#                          --data_model=large --code_model=banked             #
#                          --calling_convention=xdata_reentrant               #
#                          --place_constants=data_rom --nr_virtual_regs 16    #
#                          -I E:\Github_Repository\zigbee-net-tech\ZStack-2.5 #
#                          .1a\Projects\zstack\Samples\SampleApp\CC2530DB\    #
#                          -I E:\Github_Repository\zigbee-net-tech\ZStack-2.5 #
#                          .1a\Projects\zstack\Samples\SampleApp\CC2530DB\..\ #
#                          Source\ -I E:\Github_Repository\zigbee-net-tech\ZS #
#                          tack-2.5.1a\Projects\zstack\Samples\SampleApp\CC25 #
#                          30DB\..\..\..\ZMain\TI2530DB\ -I                   #
#                          E:\Github_Repository\zigbee-net-tech\ZStack-2.5.1a #
#                          \Projects\zstack\Samples\SampleApp\CC2530DB\..\..\ #
#                          ..\..\..\Components\hal\include\ -I                #
#                          E:\Github_Repository\zigbee-net-tech\ZStack-2.5.1a #
#                          \Projects\zstack\Samples\SampleApp\CC2530DB\..\..\ #
#                          ..\..\..\Components\hal\target\CC2530EB\ -I        #
#                          E:\Github_Repository\zigbee-net-tech\ZStack-2.5.1a #
#                          \Projects\zstack\Samples\SampleApp\CC2530DB\..\..\ #
#                          ..\..\..\Components\mac\include\ -I                #
#                          E:\Github_Repository\zigbee-net-tech\ZStack-2.5.1a #
#                          \Projects\zstack\Samples\SampleApp\CC2530DB\..\..\ #
#                          ..\..\..\Components\mac\high_level\ -I             #
#                          E:\Github_Repository\zigbee-net-tech\ZStack-2.5.1a #
#                          \Projects\zstack\Samples\SampleApp\CC2530DB\..\..\ #
#                          ..\..\..\Components\mac\low_level\srf04\ -I        #
#                          E:\Github_Repository\zigbee-net-tech\ZStack-2.5.1a #
#                          \Projects\zstack\Samples\SampleApp\CC2530DB\..\..\ #
#                          ..\..\..\Components\mac\low_level\srf04\single_chi #
#                          p\ -I E:\Github_Repository\zigbee-net-tech\ZStack- #
#                          2.5.1a\Projects\zstack\Samples\SampleApp\CC2530DB\ #
#                          ..\..\..\..\..\Components\mt\ -I                   #
#                          E:\Github_Repository\zigbee-net-tech\ZStack-2.5.1a #
#                          \Projects\zstack\Samples\SampleApp\CC2530DB\..\..\ #
#                          ..\..\..\Components\osal\include\ -I               #
#                          E:\Github_Repository\zigbee-net-tech\ZStack-2.5.1a #
#                          \Projects\zstack\Samples\SampleApp\CC2530DB\..\..\ #
#                          ..\..\..\Components\services\saddr\ -I             #
#                          E:\Github_Repository\zigbee-net-tech\ZStack-2.5.1a #
#                          \Projects\zstack\Samples\SampleApp\CC2530DB\..\..\ #
#                          ..\..\..\Components\services\sdata\ -I             #
#                          E:\Github_Repository\zigbee-net-tech\ZStack-2.5.1a #
#                          \Projects\zstack\Samples\SampleApp\CC2530DB\..\..\ #
#                          ..\..\..\Components\stack\af\ -I                   #
#                          E:\Github_Repository\zigbee-net-tech\ZStack-2.5.1a #
#                          \Projects\zstack\Samples\SampleApp\CC2530DB\..\..\ #
#                          ..\..\..\Components\stack\nwk\ -I                  #
#                          E:\Github_Repository\zigbee-net-tech\ZStack-2.5.1a #
#                          \Projects\zstack\Samples\SampleApp\CC2530DB\..\..\ #
#                          ..\..\..\Components\stack\sapi\ -I                 #
#                          E:\Github_Repository\zigbee-net-tech\ZStack-2.5.1a #
#                          \Projects\zstack\Samples\SampleApp\CC2530DB\..\..\ #
#                          ..\..\..\Components\stack\sec\ -I                  #
#                          E:\Github_Repository\zigbee-net-tech\ZStack-2.5.1a #
#                          \Projects\zstack\Samples\SampleApp\CC2530DB\..\..\ #
#                          ..\..\..\Components\stack\sys\ -I                  #
#                          E:\Github_Repository\zigbee-net-tech\ZStack-2.5.1a #
#                          \Projects\zstack\Samples\SampleApp\CC2530DB\..\..\ #
#                          ..\..\..\Components\stack\zdo\ -I                  #
#                          E:\Github_Repository\zigbee-net-tech\ZStack-2.5.1a #
#                          \Projects\zstack\Samples\SampleApp\CC2530DB\..\..\ #
#                          ..\..\..\Components\zmac\ -I                       #
#                          E:\Github_Repository\zigbee-net-tech\ZStack-2.5.1a #
#                          \Projects\zstack\Samples\SampleApp\CC2530DB\..\..\ #
#                          ..\..\..\Components\zmac\f8w\ -Ohz                 #
#                          --require_prototypes                               #
#    List file          =  E:\Github_Repository\zigbee-net-tech\ZStack-2.5.1a #
#                          \Projects\zstack\Samples\SampleApp\CC2530DB\Router #
#                          EB\List\SampleApp.lst                              #
#    Object file        =  E:\Github_Repository\zigbee-net-tech\ZStack-2.5.1a #
#                          \Projects\zstack\Samples\SampleApp\CC2530DB\Router #
#                          EB\Obj\SampleApp.r51                               #
#                                                                             #
#                                                                             #
###############################################################################

E:\Github_Repository\zigbee-net-tech\ZStack-2.5.1a\Projects\zstack\Samples\SampleApp\Source\SampleApp.c
      1          /**************************************************************************************************
      2          Filename:       SampleApp.c
      3          Revised:        $Date: 2009-03-18 15:56:27 -0700 (Wed, 18 Mar 2009) $
      4          Revision:       $Revision: 19453 $
      5          
      6          Description:    Sample Application (no Profile).
      7          
      8          
      9          Copyright 2007 Texas Instruments Incorporated. All rights reserved.
     10          
     11          IMPORTANT: Your use of this Software is limited to those specific rights
     12          granted under the terms of a software license agreement between the user
     13          who downloaded the software, his/her employer (which must be your employer)
     14          and Texas Instruments Incorporated (the "License").  You may not use this
     15          Software unless you agree to abide by the terms of the License. The License
     16          limits your use, and you acknowledge, that the Software may not be modified,
     17          copied or distributed unless embedded on a Texas Instruments microcontroller
     18          or used solely and exclusively in conjunction with a Texas Instruments radio
     19          frequency transceiver, which is integrated into your product.  Other than for
     20          the foregoing purpose, you may not use, reproduce, copy, prepare derivative
     21          works of, modify, distribute, perform, display or sell this Software and/or
     22          its documentation for any purpose.
     23          
     24          YOU FURTHER ACKNOWLEDGE AND AGREE THAT THE SOFTWARE AND DOCUMENTATION ARE
     25          PROVIDED AS IS?WITHOUT WARRANTY OF ANY KIND, EITHER EXPRESS OR IMPLIED,
     26          INCLUDING WITHOUT LIMITATION, ANY WARRANTY OF MERCHANTABILITY, TITLE,
     27          NON-INFRINGEMENT AND FITNESS FOR A PARTICULAR PURPOSE. IN NO EVENT SHALL
     28          TEXAS INSTRUMENTS OR ITS LICENSORS BE LIABLE OR OBLIGATED UNDER CONTRACT,
     29          NEGLIGENCE, STRICT LIABILITY, CONTRIBUTION, BREACH OF WARRANTY, OR OTHER
     30          LEGAL EQUITABLE THEORY ANY DIRECT OR INDIRECT DAMAGES OR EXPENSES
     31          INCLUDING BUT NOT LIMITED TO ANY INCIDENTAL, SPECIAL, INDIRECT, PUNITIVE
     32          OR CONSEQUENTIAL DAMAGES, LOST PROFITS OR LOST DATA, COST OF PROCUREMENT
     33          OF SUBSTITUTE GOODS, TECHNOLOGY, SERVICES, OR ANY CLAIMS BY THIRD PARTIES
     34          (INCLUDING BUT NOT LIMITED TO ANY DEFENSE THEREOF), OR OTHER SIMILAR COSTS.
     35          
     36          Should you have any questions regarding your right to use this Software,
     37          contact Texas Instruments Incorporated at www.TI.com.
     38          **************************************************************************************************/
     39          
     40          /*********************************************************************
     41          This application isn't intended to do anything useful, it is
     42          intended to be a simple example of an application's structure.
     43          
     44          This application sends it's messages either as broadcast or
     45          broadcast filtered group messages.  The other (more normal)
     46          message addressing is unicast.  Most of the other sample
     47          applications are written to support the unicast message model.
     48          
     49          Key control:
     50          SW1:  Sends a flash command to all devices in Group 1.
     51          SW2:  Adds/Removes (toggles) this device in and out
     52          of Group 1.  This will enable and disable the
     53          reception of the flash command.
     54          **************************************************************************************************/
     55          
     56          /*********************************************************************
     57          需要修改的文件包含功能如下：
     58          ZMain/ZMain.c是主函数
     59          HAL/hal_drivers.c进行外部中断的初始化
     60          MT/MT_UART.c中进行串口消息的接收
     61          SampleApp.c中定义中断响应函数，以及事件消息处理函数等
     62          SingleLinkedList.c中定义了单链表的实现
     63          *********************************************************************/
     64          
     65          /*********************************************************************
     66          * INCLUDES
     67          */
     68          #include "OSAL.h"
     69          #include "ZGlobals.h"
     70          #include "AF.h"
     71          #include "aps_groups.h"
     72          #include "ZDObject.h"
     73          #include "ZDProfile.h"
     74          #include "ZDApp.h"
     75          
     76          #include "SampleApp.h"
     77          #include "SampleAppHw.h"
     78          #include "SinglyLinkedList.h"
     79          
     80          #include "OnBoard.h"

   \                                 In  segment SFR_AN, at 0x80
   \   union <unnamed> volatile __sfr _A_P0
   \                     _A_P0:
   \   000000                DS 1

   \                                 In  segment SFR_AN, at 0x89
   \   unsigned char volatile __sfr P0IFG
   \                     P0IFG:
   \   000000                DS 1

   \                                 In  segment SFR_AN, at 0xc0
   \   union <unnamed> volatile __sfr _A_IRCON
   \                     _A_IRCON:
   \   000000                DS 1

   \                                 In  segment SFR_AN, at 0xf3
   \   unsigned char volatile __sfr P0SEL
   \                     P0SEL:
   \   000000                DS 1

   \                                 In  segment SFR_AN, at 0xfd
   \   unsigned char volatile __sfr P0DIR
   \                     P0DIR:
   \   000000                DS 1
     81          
     82          /* HAL */
     83          #include "hal_lcd.h"
     84          #include "hal_led.h"
     85          #include "hal_key.h"
     86          
     87          #include "MT_UART.h"
     88          #include "MT_APP.h"
     89          #include "MT.h"
     90          
     91          /*********************************************************************
     92          * MACROS
     93          */
     94          #define COIN_PIN P0_5            //定义P0.5口为中断方式接收投币器信号引脚
     95          #define SIMULATE_PIN P0_7        //定义P0.7口为替换投币器模拟信号发生引脚
     96          #define UART0        0x00
     97          
     98          // This list should be filled with Application specific Cluster IDs.

   \                                 In  segment XDATA_ROM_C, align 1
     99          const cId_t SampleApp_ClusterList[SAMPLEAPP_MAX_CLUSTERS] =
   \                     SampleApp_ClusterList:
   \   000000   0100         DW 1
   \   000002   0200         DW 2
   \   000004   0000         DW 0
   \   000006   0000         DW 0
    100          {
    101            SAMPLEAPP_PERIODIC_CLUSTERID,
    102            SAMPLEAPP_FLASH_CLUSTERID
    103          };
    104          

   \                                 In  segment XDATA_ROM_C, align 1
    105          const SimpleDescriptionFormat_t SampleApp_SimpleDesc =
   \                     SampleApp_SimpleDesc:
   \   000000   14           DB 20
   \   000001   080F         DW 3848
   \   000003   0100         DW 1
   \   000005   00           DB 0
   \   000006   04           DB 4
   \   000007   ....         DW SampleApp_ClusterList
   \   000009   04           DB 4
   \   00000A   ....         DW SampleApp_ClusterList
    106          {
    107            SAMPLEAPP_ENDPOINT,              //  int Endpoint;
    108            SAMPLEAPP_PROFID,                //  uint16 AppProfId[2];
    109            SAMPLEAPP_DEVICEID,              //  uint16 AppDeviceId[2];
    110            SAMPLEAPP_DEVICE_VERSION,        //  int   AppDevVer:4;
    111            SAMPLEAPP_FLAGS,                 //  int   AppFlags:4;
    112            SAMPLEAPP_MAX_CLUSTERS,          //  uint8  AppNumInClusters;
    113            (cId_t *)SampleApp_ClusterList,  //  uint8 *pAppInClusterList;
    114            SAMPLEAPP_MAX_CLUSTERS,          //  uint8  AppNumInClusters;
    115            (cId_t *)SampleApp_ClusterList   //  uint8 *pAppInClusterList;
    116          };
    117          
    118          // This is the Endpoint/Interface description.  It is defined here, but
    119          // filled-in in SampleApp_Init().  Another way to go would be to fill
    120          // in the structure here and make it a "const" (in code space).  The
    121          // way it's defined in this sample app it is define in RAM.

   \                                 In  segment XDATA_Z, align 1, keep-with-next
    122          endPointDesc_t SampleApp_epDesc;
   \                     SampleApp_epDesc:
   \   000000                DS 6
   \   000006                REQUIRE __INIT_XDATA_Z

   \                                 In  segment XDATA_Z, align 1, keep-with-next
    123          afAddrType_t GenericApp_DstAddr;
   \                     GenericApp_DstAddr:
   \   000000                DS 12
   \   00000C                REQUIRE __INIT_XDATA_Z

   \                                 In  segment XDATA_Z, align 1, keep-with-next
    124          afAddrType_t EndPoint_DstAddr;
   \                     EndPoint_DstAddr:
   \   000000                DS 12
   \   00000C                REQUIRE __INIT_XDATA_Z
    125          
    126          /*********************************************************************
    127          * LOCAL VARIABLES
    128          */

   \                                 In  segment XDATA_Z, align 1, keep-with-next
    129          uint8 SampleApp_TaskID;   // Task ID for internal task/event processing
   \                     SampleApp_TaskID:
   \   000000                DS 1
   \   000001                REQUIRE __INIT_XDATA_Z
    130          // This variable will be received when
    131          // SampleApp_Init() is called.

   \                                 In  segment XDATA_Z, align 1, keep-with-next
    132          devStates_t SampleApp_NwkState;
   \                     SampleApp_NwkState:
   \   000000                DS 1
   \   000001                REQUIRE __INIT_XDATA_Z
    133          

   \                                 In  segment XDATA_Z, align 1, keep-with-next
    134          uint8 SampleApp_TransID;  // This is the unique message ID (counter)
   \                     SampleApp_TransID:
   \   000000                DS 1
   \   000001                REQUIRE __INIT_XDATA_Z
    135          

   \                                 In  segment XDATA_Z, align 1, keep-with-next
    136          afAddrType_t SampleApp_Periodic_DstAddr; // 用于协调器广播消息
   \                     SampleApp_Periodic_DstAddr:
   \   000000                DS 12
   \   00000C                REQUIRE __INIT_XDATA_Z

   \                                 In  segment XDATA_Z, align 1, keep-with-next
    137          afAddrType_t SampleApp_TxAddr; // 用于终端设备向协调器报告短地址信息
   \                     SampleApp_TxAddr:
   \   000000                DS 12
   \   00000C                REQUIRE __INIT_XDATA_Z
    138          

   \                                 In  segment XDATA_Z, align 1, keep-with-next
    139          aps_Group_t SampleApp_Group;
   \                     SampleApp_Group:
   \   000000                DS 18
   \   000012                REQUIRE __INIT_XDATA_Z

   \                                 In  segment XDATA_Z, align 1, keep-with-next
    140          uint8 SampleAppPeriodicCounter = 0;
   \                     SampleAppPeriodicCounter:
   \   000000                DS 1
   \   000001                REQUIRE __INIT_XDATA_Z

   \                                 In  segment XDATA_Z, align 1, keep-with-next
    141          uint8 SampleAppFlashCounter = 0;
   \                     SampleAppFlashCounter:
   \   000000                DS 1
   \   000001                REQUIRE __INIT_XDATA_Z
    142          

   \                                 In  segment XDATA_Z, align 1, keep-with-next
    143          LinkList LL; // 定义线性链表存储终端地址以及心跳信息
   \                     LL:
   \   000000                DS 2
   \   000002                REQUIRE __INIT_XDATA_Z
    144          
    145          /*********************************************************************
    146          * LOCAL FUNCTIONS
    147          */
    148          void AfSendAddrInfo(uint8 cmd);
    149          void AfReplyGetCoinCmd(void);
    150          void SampleApp_HandleKeys( uint8 shift, uint8 keys );
    151          void SampleApp_MessageMSGCB( afIncomingMSGPacket_t *pckt );
    152          void SampleApp_SendPeriodicMessage( int8 whichKey );
    153          void SampleApp_SendHeartBeatMessageCoor(void);
    154          void SampleApp_SendHeartBeatMessageEnd(void);
    155          void printAddrInfoHex(uint8* buf, uint8 dataLen);
    156          void convertHexToStr(uint16 addr, uint8 lcdLineNum);
    157          
    158          #ifndef ZDO_COORDINATOR

   \                                 In  segment XDATA_Z, align 1, keep-with-next
    159          int8 NeedCoinDelivered = 0; // 定义终端需要处理的投币个数
   \                     NeedCoinDelivered:
   \   000000                DS 1
   \   000001                REQUIRE __INIT_XDATA_Z
    160          #endif
    161          
    162          /**
    163            终端设备P1端口中断处理函数，用来接收投币器的信号
    164          */
    165          #ifndef ZDO_COORDINATOR

   \                                 In  segment NEAR_CODE, align 1, keep-with-next
    166          HAL_ISR_FUNCTION( coinPort1Isr, P0INT_VECTOR ) // P1_2配置为投币器电平变化中断引脚，在HAL/Common/hal_drivers.c中进行的引脚初始化
   \                     coinPort1Isr:
    167          {
   \   000000   C0E0         PUSH    A
   \   000002   74F2         MOV     A,#-0xe
   \   000004   12....       LCALL   ?INTERRUPT_ENTER_XSP
   \   000007                ; Saved register size: 14
   \   000007                ; Auto size: 0
    168            // ???????????????????????????????终端操作
    169            myprintf("P0 interrupt\n");
   \   000007                ; Setup parameters for call to function myprintf
   \   000007   7A..         MOV     R2,#`?<Constant "P0 interrupt\\n">` & 0xff
   \   000009   7B..         MOV     R3,#(`?<Constant "P0 interrupt\\n">` >> 8) & 0xff
   \   00000B   12....       LCALL   ??myprintf?relay
    170            P0IFG = 0;       //清中断标志
   \   00000E   758900       MOV     0x89,#0x0
    171            P0IF = 0;        //清中断标志
   \   000011   C2C5         CLR     0xc0.5
    172          }
   \   000013   7F01         MOV     R7,#0x1
   \   000015   02....       LJMP    ?INTERRUPT_LEAVE_XSP
   \   000018                REQUIRE P0IFG
   \   000018                REQUIRE _A_IRCON
    173          #endif
    174          
    175          /**
    176          * 自定义任务初始化函数
    177          */

   \                                 In  segment BANKED_CODE, align 1, keep-with-next
    178          void SampleApp_Init( uint8 task_id )
   \                     SampleApp_Init:
    179          {
   \   000000   74F5         MOV     A,#-0xb
   \   000002   12....       LCALL   ?BANKED_ENTER_XDATA
   \   000005                ; Saved register size: 11
   \   000005                ; Auto size: 0
   \   000005   E9           MOV     A,R1
   \   000006   FE           MOV     R6,A
    180            halUARTCfg_t uartConfig;
    181            
    182            SampleApp_TaskID = task_id;
   \   000007   90....       MOV     DPTR,#SampleApp_TaskID
   \   00000A   F0           MOVX    @DPTR,A
    183            SampleApp_NwkState = DEV_INIT;
   \   00000B   90....       MOV     DPTR,#SampleApp_NwkState
   \   00000E   7401         MOV     A,#0x1
   \   000010   F0           MOVX    @DPTR,A
    184            SampleApp_TransID = 0;
   \   000011   90....       MOV     DPTR,#SampleApp_TransID
   \   000014   E4           CLR     A
   \   000015   F0           MOVX    @DPTR,A
    185            
    186            P0SEL &= ~(0x01 << 7);         //设置P0.7口为普通IO
   \   000016   53F37F       ANL     0xf3,#0x7f
    187            P0DIR |= (0x01 << 7);          //设置P0.7口为输出
   \   000019   43FD80       ORL     0xfd,#0x80
    188            SIMULATE_PIN = 0;       // 投币器信号模拟输出引脚
   \   00001C   C287         CLR     0x80.7
    189            
    190          #if defined ( BUILD_ALL_DEVICES )
    191            // The "Demo" target is setup to have BUILD_ALL_DEVICES and HOLD_AUTO_START
    192            // We are looking at a jumper (defined in SampleAppHw.c) to be jumpered
    193            // together - if they are - we will start up a coordinator. Otherwise,
    194            // the device will start as a router.
    195            if ( readCoordinatorJumper() )
    196              zgDeviceLogicalType = ZG_DEVICETYPE_COORDINATOR;
    197            else
    198              zgDeviceLogicalType = ZG_DEVICETYPE_ROUTER;
    199          #endif // BUILD_ALL_DEVICES
    200            
    201          #if defined ( HOLD_AUTO_START )
    202            // HOLD_AUTO_START is a compile option that will surpress ZDApp
    203            //  from starting the device and wait for the application to
    204            //  start the device.
    205            ZDOInitDevice(0);
    206          #endif
    207            
    208            GenericApp_DstAddr.addrMode = (afAddrMode_t)AddrNotPresent;
   \   00001E   90....       MOV     DPTR,#GenericApp_DstAddr + 8
   \   000021   F0           MOVX    @DPTR,A
    209            GenericApp_DstAddr.endPoint = 0;
   \   000022   A3           INC     DPTR
   \   000023   F0           MOVX    @DPTR,A
    210            GenericApp_DstAddr.addr.shortAddr = 0;
   \   000024   90....       MOV     DPTR,#GenericApp_DstAddr
   \   000027   F0           MOVX    @DPTR,A
   \   000028   A3           INC     DPTR
   \   000029   F0           MOVX    @DPTR,A
    211            
    212            // Setup for the periodic message's destination address
    213            // Broadcast to everyone
    214            // 协调器广播发送数据到终端
    215            SampleApp_Periodic_DstAddr.addrMode = (afAddrMode_t)AddrBroadcast;
   \   00002A   90....       MOV     DPTR,#SampleApp_Periodic_DstAddr + 8
   \   00002D   740F         MOV     A,#0xf
   \   00002F   F0           MOVX    @DPTR,A
    216            SampleApp_Periodic_DstAddr.endPoint = SAMPLEAPP_ENDPOINT;
   \   000030   A3           INC     DPTR
   \   000031   7414         MOV     A,#0x14
   \   000033   F0           MOVX    @DPTR,A
    217            SampleApp_Periodic_DstAddr.addr.shortAddr = 0xFFFF; // 广播地址
   \   000034   90....       MOV     DPTR,#SampleApp_Periodic_DstAddr
   \   000037   74FF         MOV     A,#-0x1
   \   000039   F0           MOVX    @DPTR,A
   \   00003A   A3           INC     DPTR
   \   00003B   F0           MOVX    @DPTR,A
    218            
    219            // 终端单播发送数据到协调器
    220            SampleApp_TxAddr.addrMode = (afAddrMode_t)Addr16Bit;
   \   00003C   90....       MOV     DPTR,#SampleApp_TxAddr + 8
   \   00003F   7402         MOV     A,#0x2
   \   000041   F0           MOVX    @DPTR,A
    221            SampleApp_TxAddr.endPoint = SAMPLEAPP_ENDPOINT;
   \   000042   A3           INC     DPTR
   \   000043   7414         MOV     A,#0x14
   \   000045   F0           MOVX    @DPTR,A
    222            SampleApp_TxAddr.addr.shortAddr = 0x00; // 单播协调器地址
   \   000046   90....       MOV     DPTR,#SampleApp_TxAddr
   \   000049   E4           CLR     A
   \   00004A   F0           MOVX    @DPTR,A
   \   00004B   A3           INC     DPTR
   \   00004C   F0           MOVX    @DPTR,A
    223            
    224            // 协调器单播发送到指定地址的终端上  
    225            EndPoint_DstAddr.addrMode = (afAddrMode_t)Addr16Bit;
   \   00004D   90....       MOV     DPTR,#EndPoint_DstAddr + 8
   \   000050   7402         MOV     A,#0x2
   \   000052   F0           MOVX    @DPTR,A
    226            EndPoint_DstAddr.endPoint = SAMPLEAPP_ENDPOINT;
   \   000053   A3           INC     DPTR
   \   000054   7414         MOV     A,#0x14
   \   000056   F0           MOVX    @DPTR,A
    227            EndPoint_DstAddr.addr.shortAddr = 0x00; // 在发送的时候动态修改终端地址
   \   000057   90....       MOV     DPTR,#EndPoint_DstAddr
   \   00005A   E4           CLR     A
   \   00005B   F0           MOVX    @DPTR,A
   \   00005C   A3           INC     DPTR
   \   00005D   F0           MOVX    @DPTR,A
    228            
    229            // Fill out the endpoint description.
    230            SampleApp_epDesc.endPoint = SAMPLEAPP_ENDPOINT; // 端点号
   \   00005E   90....       MOV     DPTR,#SampleApp_epDesc
   \   000061   7414         MOV     A,#0x14
   \   000063   F0           MOVX    @DPTR,A
    231            SampleApp_epDesc.task_id = &SampleApp_TaskID; // 端点对应的任务
   \   000064   A3           INC     DPTR
   \   000065   74..         MOV     A,#SampleApp_TaskID & 0xff
   \   000067   F0           MOVX    @DPTR,A
   \   000068   A3           INC     DPTR
   \   000069   74..         MOV     A,#(SampleApp_TaskID >> 8) & 0xff
   \   00006B   F0           MOVX    @DPTR,A
    232            SampleApp_epDesc.simpleDesc = (SimpleDescriptionFormat_t *)&SampleApp_SimpleDesc; // 简单描述符
   \   00006C   A3           INC     DPTR
   \   00006D   74..         MOV     A,#SampleApp_SimpleDesc & 0xff
   \   00006F   F0           MOVX    @DPTR,A
   \   000070   A3           INC     DPTR
   \   000071   74..         MOV     A,#(SampleApp_SimpleDesc >> 8) & 0xff
   \   000073   F0           MOVX    @DPTR,A
    233            SampleApp_epDesc.latencyReq = noLatencyReqs;  
   \   000074   A3           INC     DPTR
   \   000075   E4           CLR     A
   \   000076   F0           MOVX    @DPTR,A
    234            afRegister( &SampleApp_epDesc ); // 注册一个应用的端点描述符，注册一个新的端点到任务，这样当有新的消息到来时直接发送到指定的任务中
   \   000077                ; Setup parameters for call to function afRegister
   \   000077   7A..         MOV     R2,#SampleApp_epDesc & 0xff
   \   000079   7B..         MOV     R3,#(SampleApp_epDesc >> 8) & 0xff
   \   00007B   12....       LCALL   ??afRegister?relay
    235            
    236            // 绑定按键事件到任务ID
    237            RegisterForKeys( SampleApp_TaskID );
   \   00007E                ; Setup parameters for call to function RegisterForKeys
   \   00007E   90....       MOV     DPTR,#SampleApp_TaskID
   \   000081   E0           MOVX    A,@DPTR
   \   000082   F9           MOV     R1,A
   \   000083   12....       LCALL   ??RegisterForKeys?relay
    238            
    239            // By default, all devices start out in Group 1
    240            SampleApp_Group.ID = 0x0001;
   \   000086   90....       MOV     DPTR,#SampleApp_Group
   \   000089   7401         MOV     A,#0x1
   \   00008B   F0           MOVX    @DPTR,A
   \   00008C   A3           INC     DPTR
   \   00008D   E4           CLR     A
   \   00008E   F0           MOVX    @DPTR,A
    241            osal_memcpy( SampleApp_Group.name, "Group 1", 7 );
   \   00008F                ; Setup parameters for call to function osal_memcpy
   \   00008F   75....       MOV     ?V0 + 0,#`?<Constant "Group 1">` & 0xff
   \   000092   75....       MOV     ?V0 + 1,#(`?<Constant "Group 1">` >> 8) & 0xff
   \   000095   F5..         MOV     ?V0 + 2,A
   \   000097   78..         MOV     R0,#?V0 + 0
   \   000099   12....       LCALL   ?PUSH_XSTACK_I_THREE
   \   00009C   7C07         MOV     R4,#0x7
   \   00009E   7D00         MOV     R5,#0x0
   \   0000A0   7A..         MOV     R2,#(SampleApp_Group + 2) & 0xff
   \   0000A2   7B..         MOV     R3,#((SampleApp_Group + 2) >> 8) & 0xff
   \   0000A4   12....       LCALL   ??osal_memcpy?relay
   \   0000A7   7403         MOV     A,#0x3
   \   0000A9   12....       LCALL   ?DEALLOC_XSTACK8
    242            aps_AddGroup( SAMPLEAPP_ENDPOINT, &SampleApp_Group );
   \   0000AC                ; Setup parameters for call to function aps_AddGroup
   \   0000AC   7A..         MOV     R2,#SampleApp_Group & 0xff
   \   0000AE   7B..         MOV     R3,#(SampleApp_Group >> 8) & 0xff
   \   0000B0   7914         MOV     R1,#0x14
   \   0000B2   12....       LCALL   ??aps_AddGroup?relay
    243            
    244            // 初始化串口
    245            MT_UartInit();                    //串口初始化
   \   0000B5                ; Setup parameters for call to function MT_UartInit
   \   0000B5   12....       LCALL   ??MT_UartInit?relay
    246            MT_UartRegisterTaskID(task_id);   //注册串口任务
   \   0000B8                ; Setup parameters for call to function MT_UartRegisterTaskID
   \   0000B8   EE           MOV     A,R6
   \   0000B9   F9           MOV     R1,A
   \   0000BA   12....       LCALL   ??MT_UartRegisterTaskID?relay
    247            
    248          #ifdef ZDO_COORDINATOR  
    249            myprintf("UartInit OK\n");
    250            
    251            int ret = InitList_L(&LL); // 单链表初始化
    252            if(ret == OVERFLOW) {
    253              myprintf("InitList_L OVERFLOW\n");
    254            }
    255          #endif  
    256          }
   \   0000BD   02....       LJMP    ??Subroutine5_0 & 0xFFFF
   \   0000C0                REQUIRE P0SEL
   \   0000C0                REQUIRE P0DIR
   \   0000C0                REQUIRE _A_P0

   \                                 In  segment BANKED_CODE, align 1, keep-with-next
   \                     ??Subroutine5_0:
   \   000000   7F03         MOV     R7,#0x3
   \   000002   02....       LJMP    ?BANKED_LEAVE_XDATA
    257          
    258          /*********************************************************************
    259          * @fn      SampleApp_ProcessEvent
    260          *
    261          * @brief   Generic Application Task event processor.  This function
    262          *          is called to process all events for the task.  Events
    263          *          include timers, messages and any other user defined events.
    264          *          系统各种事件的处理函数
    265          *
    266          * @param   task_id  - The OSAL assigned task ID.
    267          * @param   events - events to process.  This is a bit map and can
    268          *                   contain more than one event.
    269          *
    270          * @return  none
    271          */

   \                                 In  segment BANKED_CODE, align 1, keep-with-next
    272          uint16 SampleApp_ProcessEvent( uint8 task_id, uint16 events )
   \                     SampleApp_ProcessEvent:
    273          {
   \   000000   74F4         MOV     A,#-0xc
   \   000002   12....       LCALL   ?BANKED_ENTER_XDATA
   \   000005                ; Saved register size: 12
   \   000005                ; Auto size: 3
   \   000005   74FD         MOV     A,#-0x3
   \   000007   12....       LCALL   ?ALLOC_XSTACK8
   \   00000A   EA           MOV     A,R2
   \   00000B   FE           MOV     R6,A
   \   00000C   EB           MOV     A,R3
   \   00000D   FF           MOV     R7,A
    274            afIncomingMSGPacket_t *MSGpkt;
    275            afDataConfirm_t *afDataConfirm;
    276            ZStatus_t sentStatus;
    277            (void)task_id;  // Intentionally unreferenced parameter
    278            
    279            if ( events & SYS_EVENT_MSG )
   \   00000E   5480         ANL     A,#0x80
   \   000010   7003         JNZ     $+5
   \   000012   02....       LJMP    ??SampleApp_ProcessEvent_0 & 0xFFFF
    280            {
    281              MSGpkt = (afIncomingMSGPacket_t *)osal_msg_receive( SampleApp_TaskID );
   \   000015                ; Setup parameters for call to function osal_msg_receive
   \   000015   12....       LCALL   ?Subroutine4 & 0xFFFF
    282              uint8 coodStarted[3] = {'#', 0x45, '@'};
   \                     ??CrossCallReturnLabel_4:
   \   000018   85..82       MOV     DPL,?XSP + 0
   \   00001B   85..83       MOV     DPH,?XSP + 1
   \   00001E   AC82         MOV     R4,DPL
   \   000020   AD83         MOV     R5,DPH
   \   000022   7583..       MOV     DPH,#(`?<Constant {35, 69, 64}>` >> 8) & 0xff
   \   000025   7582..       MOV     DPL,#`?<Constant {35, 69, 64}>` & 0xff
   \   000028   7403         MOV     A,#0x3
   \   00002A   12....       LCALL   ?MOVE_LONG8_XDATA_XDATA
   \   00002D   8031         SJMP    ??CrossCallReturnLabel_5
    283              while ( MSGpkt )
    284              {      
    285                switch ( MSGpkt->hdr.event )
    286                {
    287                  // 系统任务事件里面的接收数据确认消息
    288                  case AF_DATA_CONFIRM_CMD:          
    289                    afDataConfirm = (afDataConfirm_t *)MSGpkt;
    290                    sentStatus = afDataConfirm->hdr.status;
    291                    // Action taken when confirmation is received.
    292                    if ( sentStatus != ZSuccess )
    293                    {
    294                      myprintf("ERROR:AF_DATA_CONFIRM_CMD failed\n");
    295                    }
    296                    break;
    297                  
    298                    // 接收到一个按键事件
    299                  case KEY_CHANGE:
    300                    SampleApp_HandleKeys( ((keyChange_t *)MSGpkt)->state, ((keyChange_t *)MSGpkt)->keys );
    301                    break;
    302                    
    303                    // 无线网络收到数据
    304                  case AF_INCOMING_MSG_CMD:
    305                    SampleApp_MessageMSGCB( MSGpkt );
    306                    break;
    307                    
    308                    // 设备组网或者入网成功，可以发送一个消息，并开启一个心跳事件的定时器
    309                  case ZDO_STATE_CHANGE:
    310                    SampleApp_NwkState = (devStates_t)(MSGpkt->hdr.status); // 另外MSGpkt->srcAddr.addr.shortAddr;可用于获取终端节点的网络短地址          
    311                    
    312                    // 判断不同的设备类型
    313                    if(SampleApp_NwkState == DEV_ZB_COORD) { // 协调器组建好网络            
    314                      mySendByteBuf(coodStarted, 3); // 向上位机发送已经启动消息            
    315                      osal_start_timerEx( SampleApp_TaskID, SAMPLEAPP_SEND_PERIODIC_MSG_EVT, SAMPLEAPP_SEND_PERIODIC_MSG_TIMEOUT ); // 开启定时器
    316                      HalLedBlink(HAL_LED_2, 3, 50, 250);
    317                    } else if(SampleApp_NwkState == DEV_ROUTER) { // 路由器加入网络
    318                      HalLedBlink(HAL_LED_2, 3, 50, 250);
    319                    } else if(SampleApp_NwkState == DEV_END_DEVICE) { // 终端加入网络
   \                     ??SampleApp_ProcessEvent_1:
   \   00002F   E0           MOVX    A,@DPTR
   \   000030   6406         XRL     A,#0x6
   \   000032   7022         JNZ     ??SampleApp_ProcessEvent_2
    320                      AfSendAddrInfo(0x71); // 向协调器发送入网消息
   \   000034                ; Setup parameters for call to function AfSendAddrInfo
   \   000034   7971         MOV     R1,#0x71
   \   000036   12....       LCALL   ??AfSendAddrInfo?relay
    321                      HalLedBlink(HAL_LED_2, 3, 50, 250);
   \   000039                ; Setup parameters for call to function HalLedBlink
   \   000039   7CFA         MOV     R4,#-0x6
   \   00003B   7D00         MOV     R5,#0x0
   \   00003D   7B32         MOV     R3,#0x32
   \   00003F   7A03         MOV     R2,#0x3
   \   000041   7902         MOV     R1,#0x2
   \   000043   12....       LCALL   ??HalLedBlink?relay
    322                      osal_start_timerEx( SampleApp_TaskID, SAMPLEAPP_SEND_PERIODIC_MSG_EVT, SAMPLEAPP_SEND_PERIODIC_MSG_TIMEOUT ); // 开启定时器
   \   000046                ; Setup parameters for call to function osal_start_timerEx
   \   000046   7CE8         MOV     R4,#-0x18
   \   000048   7D03         MOV     R5,#0x3
   \   00004A   7A01         MOV     R2,#0x1
   \   00004C   7B00         MOV     R3,#0x0
   \   00004E   90....       MOV     DPTR,#SampleApp_TaskID
   \   000051   E0           MOVX    A,@DPTR
   \   000052   F9           MOV     R1,A
   \   000053   12....       LCALL   ??osal_start_timerEx?relay
    323                    }
    324                    break;
    325                    
    326                  default:
    327          #ifdef ZDO_COORDINATOR          
    328                    myprintf("unknown pkg-event = 0x%x\n", MSGpkt->hdr.event);
    329          #endif          
    330                    break;
    331                }      
    332                
    333                osal_msg_deallocate( (uint8 *)MSGpkt );// Release the memory
   \                     ??SampleApp_ProcessEvent_2:
   \   000056                ; Setup parameters for call to function osal_msg_deallocate
   \   000056   AA..         MOV     R2,?V0 + 0
   \   000058   AB..         MOV     R3,?V0 + 1
   \   00005A   12....       LCALL   ??osal_msg_deallocate?relay
    334                MSGpkt = (afIncomingMSGPacket_t *)osal_msg_receive( SampleApp_TaskID );// Next - if one is available
   \   00005D                ; Setup parameters for call to function osal_msg_receive
   \   00005D   12....       LCALL   ?Subroutine4 & 0xFFFF
   \                     ??CrossCallReturnLabel_5:
   \   000060   E5..         MOV     A,?V0 + 0
   \   000062   45..         ORL     A,?V0 + 1
   \   000064   6060         JZ      ??SampleApp_ProcessEvent_3
   \   000066   85..82       MOV     DPL,?V0 + 0
   \   000069   85..83       MOV     DPH,?V0 + 1
   \   00006C   E0           MOVX    A,@DPTR
   \   00006D   242F         ADD     A,#0x2f
   \   00006F   6011         JZ      ??SampleApp_ProcessEvent_4
   \   000071   24D4         ADD     A,#-0x2c
   \   000073   70E1         JNZ     ??SampleApp_ProcessEvent_2
   \   000075   A3           INC     DPTR
   \   000076   E0           MOVX    A,@DPTR
   \   000077   60DD         JZ      ??SampleApp_ProcessEvent_2
   \   000079                ; Setup parameters for call to function myprintf
   \   000079   7A..         MOV     R2,#`?<Constant "ERROR:AF_DATA_CONFIRM...">` & 0xff
   \   00007B   7B..         MOV     R3,#(`?<Constant "ERROR:AF_DATA_CONFIRM...">` >> 8) & 0xff
   \   00007D   12....       LCALL   ??myprintf?relay
   \   000080   80D4         SJMP    ??SampleApp_ProcessEvent_2
   \                     ??SampleApp_ProcessEvent_4:
   \   000082   A3           INC     DPTR
   \   000083   E0           MOVX    A,@DPTR
   \   000084   90....       MOV     DPTR,#SampleApp_NwkState
   \   000087   F0           MOVX    @DPTR,A
   \   000088   6409         XRL     A,#0x9
   \   00008A   7030         JNZ     ??SampleApp_ProcessEvent_5
   \   00008C                ; Setup parameters for call to function mySendByteBuf
   \   00008C   7C03         MOV     R4,#0x3
   \   00008E   7D00         MOV     R5,#0x0
   \   000090   85..82       MOV     DPL,?XSP + 0
   \   000093   85..83       MOV     DPH,?XSP + 1
   \   000096   AA82         MOV     R2,DPL
   \   000098   AB83         MOV     R3,DPH
   \   00009A   12....       LCALL   ??mySendByteBuf?relay
   \   00009D                ; Setup parameters for call to function osal_start_timerEx
   \   00009D   7CE8         MOV     R4,#-0x18
   \   00009F   7D03         MOV     R5,#0x3
   \   0000A1   7A01         MOV     R2,#0x1
   \   0000A3   7B00         MOV     R3,#0x0
   \   0000A5   90....       MOV     DPTR,#SampleApp_TaskID
   \   0000A8   E0           MOVX    A,@DPTR
   \   0000A9   F9           MOV     R1,A
   \   0000AA   12....       LCALL   ??osal_start_timerEx?relay
   \   0000AD                ; Setup parameters for call to function HalLedBlink
   \                     ??SampleApp_ProcessEvent_6:
   \   0000AD   7CFA         MOV     R4,#-0x6
   \   0000AF   7D00         MOV     R5,#0x0
   \   0000B1   7B32         MOV     R3,#0x32
   \   0000B3   7A03         MOV     R2,#0x3
   \   0000B5   7902         MOV     R1,#0x2
   \   0000B7   12....       LCALL   ??HalLedBlink?relay
   \   0000BA   809A         SJMP    ??SampleApp_ProcessEvent_2
   \                     ??SampleApp_ProcessEvent_5:
   \   0000BC   E0           MOVX    A,@DPTR
   \   0000BD   6407         XRL     A,#0x7
   \   0000BF   6003         JZ      $+5
   \   0000C1   02....       LJMP    ??SampleApp_ProcessEvent_1 & 0xFFFF
   \   0000C4                ; Setup parameters for call to function HalLedBlink
   \   0000C4   80E7         SJMP    ??SampleApp_ProcessEvent_6
    335              }
    336              
    337              // return unprocessed events
    338              return (events ^ SYS_EVENT_MSG);
   \                     ??SampleApp_ProcessEvent_3:
   \   0000C6   EE           MOV     A,R6
   \   0000C7   FA           MOV     R2,A
   \   0000C8   EF           MOV     A,R7
   \   0000C9   6480         XRL     A,#0x80
   \   0000CB   FB           MOV     R3,A
   \   0000CC   800E         SJMP    ??SampleApp_ProcessEvent_7
    339            }
    340            
    341            // 接收到一个定时器事件
    342            if ( events & SAMPLEAPP_SEND_PERIODIC_MSG_EVT )
   \                     ??SampleApp_ProcessEvent_0:
   \   0000CE   EE           MOV     A,R6
   \   0000CF   A2E0         MOV     C,0xE0 /* A   */.0
   \   0000D1   5005         JNC     ??SampleApp_ProcessEvent_8
    343            {
    344          #ifdef ZDO_COORDINATOR // 协调器
    345              SampleApp_SendHeartBeatMessageCoor(); // 协调器心跳功能函数，同时检测掉线的终端，将掉线信息发送到服务器
    346              osal_start_timerEx( SampleApp_TaskID, SAMPLEAPP_SEND_PERIODIC_MSG_EVT, SAMPLEAPP_SEND_PERIODIC_MSG_TIMEOUT); // 1000ms再次开启定时器
    347          #endif
    348              
    349          #ifdef END_DEVICE // 终端设备
    350              SampleApp_SendHeartBeatMessageEnd(); // 终端心跳功能函数
    351              osal_start_timerEx( SampleApp_TaskID, SAMPLEAPP_SEND_PERIODIC_MSG_EVT, SAMPLEAPP_SEND_PERIODIC_MSG_TIMEOUT*2); // 2000ms再次开启定时器
    352          #endif
    353              
    354              return (events ^ SAMPLEAPP_SEND_PERIODIC_MSG_EVT); // 清除此已经处理事件标志位
   \   0000D3   6401         XRL     A,#0x1
   \   0000D5   FA           MOV     R2,A
   \   0000D6   8004         SJMP    ??SampleApp_ProcessEvent_7
    355            }  
    356          #ifdef END_DEVICE  // 接收到模拟电平变化定时器事件
    357            else if(events & SAMPLEAPP_SIMULATE_COIN_MSG_EVT) {
    358              myprintf("Get COIN_MSG_EVT, NeedCoinDelivered = %d\n", NeedCoinDelivered);
    359              if(SIMULATE_PIN == 0) {
    360                SIMULATE_PIN = 1; // 产生一个上升沿
    361              } else if(SIMULATE_PIN == 1) {
    362                SIMULATE_PIN = 0; // 完整产生了一个脉冲
    363                NeedCoinDelivered--;
    364              }
    365              if(NeedCoinDelivered > 0) { // 还需要开启定时器
    366                osal_start_timerEx( SampleApp_TaskID, SAMPLEAPP_SIMULATE_COIN_MSG_EVT, 10);
    367              }    
    368              return (events ^ SAMPLEAPP_SIMULATE_COIN_MSG_EVT);
    369            }
    370          #endif
    371            
    372          #ifdef ZDO_COORDINATOR
    373            myprintf("Discard unknown events = %d\n", events);
    374          #endif  
    375            return 0;
   \                     ??SampleApp_ProcessEvent_8:
   \   0000D8   7A00         MOV     R2,#0x0
   \   0000DA   7B00         MOV     R3,#0x0
   \                     ??SampleApp_ProcessEvent_7:
   \   0000DC   7403         MOV     A,#0x3
   \   0000DE   12....       LCALL   ?DEALLOC_XSTACK8
   \   0000E1   7F04         MOV     R7,#0x4
   \   0000E3   02....       LJMP    ?BANKED_LEAVE_XDATA
    376          }

   \                                 In  segment BANKED_CODE, align 1, keep-with-next
   \                     ?Subroutine4:
   \   000000   90....       MOV     DPTR,#SampleApp_TaskID
   \   000003   E0           MOVX    A,@DPTR
   \   000004   F9           MOV     R1,A
   \   000005   12....       LCALL   ??osal_msg_receive?relay
   \   000008   8A..         MOV     ?V0 + 0,R2
   \   00000A   8B..         MOV     ?V0 + 1,R3
   \   00000C   22           RET
    377          
    378          /*********************************************************************
    379          * Event Generation Functions
    380          */
    381          /*********************************************************************
    382          * @fn      SampleApp_HandleKeys
    383          *
    384          * @brief   按键事件处理函数
    385          *
    386          * @param   shift - true if in shift/alt.
    387          * @param   keys - bit field for key events. Valid entries:
    388          *                 HAL_KEY_SW_2
    389          *                 HAL_KEY_SW_1
    390          *
    391          * @return  none
    392          */

   \                                 In  segment BANKED_CODE, align 1, keep-with-next
    393          void SampleApp_HandleKeys( uint8 shift, uint8 keys )
   \                     SampleApp_HandleKeys:
    394          {
   \   000000                ; Saved register size: 0
   \   000000                ; Auto size: 0
    395            (void)shift;  // Intentionally unreferenced parameter
    396          #ifdef ZDO_COORDINATOR       //按协调器S1才发数据  
    397            if ( keys & HAL_KEY_SW_6 ){ // 按键S1,以广播方式发数据    
    398              SampleApp_SendPeriodicMessage(1);
    399            } else if(keys & HAL_KEY_SW_1) { // 按键S2
    400              SampleApp_SendPeriodicMessage(2);
    401            }
    402          #endif
    403          
    404          #ifdef END_DEVICE
    405            if ( keys & HAL_KEY_SW_6 ){
    406              AfSendAddrInfo(0x51); // 只用在路由和终端设备上，向协调器上传自身地址，协调器收到此消息后打印出地址
    407            }
    408          #endif
    409          }
   \   000000   02....       LJMP    ?BRET
    410          
    411          /*********************************************************************
    412          * LOCAL FUNCTIONS
    413          */
    414          
    415          /*********************************************************************
    416          * @fn      SampleApp_MessageMSGCB
    417          *
    418          * @brief   Data message processor callback.  This function processes
    419          *          any incoming data - probably from other devices.  So, based
    420          *          on cluster ID, perform the intended action.
    421          *
    422          * @param   none
    423          *
    424          * @return  none
    425          */
    426          #define INIT_LEFT_SEC 5

   \                                 In  segment XDATA_Z, align 1, keep-with-next
    427          uint16 recvTestMsgCount = 0;
   \                     recvTestMsgCount:
   \   000000                DS 2
   \   000002                REQUIRE __INIT_XDATA_Z

   \                                 In  segment BANKED_CODE, align 1, keep-with-next
    428          void SampleApp_MessageMSGCB( afIncomingMSGPacket_t *pkt )
   \                     SampleApp_MessageMSGCB:
    429          {
   \   000000                ; Saved register size: 0
   \   000000                ; Auto size: 0
    430          #ifndef ROUTER_EB  
    431            uint8 data;
    432            uint8 cmd;
    433          #endif  
    434          #ifdef ZDO_COORDINATOR  
    435            int8 ret = 0;
    436          #endif  
    437            
    438            switch ( pkt->clusterId )
    439            {    
    440            case SAMPLEAPP_PERIODIC_CLUSTERID: // 协调器在发送数据的时候指定的此消息对应的命令字，即表示哪种类型的控制命令
    441          //协调器接收到终端的无线数据 
    442          #ifdef ZDO_COORDINATOR
    443              data = pkt->cmd.Data[0];
    444              cmd = pkt->cmd.Data[1];
    445              if(data == '#') {
    446                if(cmd == 0x71 && pkt->cmd.Data[12] == '@') { // 接收到终端上传的短地址和IEEE地址
    447                  ret = checkEPInList(LL, pkt->cmd.Data + 4); // 使用IEEE地址检查终端是否已经在链表中
    448                  if(ret == -1) { // 如果当前终端没有在列表中        
    449                    ListInsert_L(LL, ListLength_L(LL)+1, pkt->cmd.Data[2], pkt->cmd.Data[3], &(pkt->cmd.Data[4]), INIT_LEFT_SEC); // 添加一个线性列表元素到链表尾部 
    450                    myprintf("Insert new EP in list\n");
    451                  } else { // 更新终端所在节点的在线时长，标记为在线状态
    452                    updateListEleStatus(LL, ret, INIT_LEFT_SEC);
    453                    // myprintf("Already In List, update()\n");
    454                  }
    455                  // myprintf("length = %d\n", ListLength_L(LL));
    456                } else if(cmd == 0x72 && pkt->cmd.Data[10] == '@') { // 收到终端回复的确认收到投币命令
    457                  mySendByteBuf(pkt->cmd.Data, 11); // 转发回复消息到上位机
    458                } else if(cmd == 0x51 && pkt->cmd.Data[12] == '@') { // 终端按键S1上传的长短地址信息
    459                  printAddrInfoHex(pkt->cmd.Data+2, 10);
    460                  mySendByteBuf(pkt->cmd.Data, 13);        
    461                }
    462              }
    463          #endif    
    464          #ifdef END_DEVICE //终端接收数据处理
    465              data = pkt->cmd.Data[0];
    466              cmd = pkt->cmd.Data[1];
    467              if(data == '#')
    468              {
    469                if(cmd == 0x81 && pkt->cmd.Data[3] == '@') { // 收到投递指定币数的消息
    470                  // 回复已经收到投币命令0x72
    471                  AfReplyGetCoinCmd(); 
    472                  
    473                  NeedCoinDelivered = pkt->cmd.Data[2]; // 开始模拟投币信号
    474                  SIMULATE_PIN = 0; // 初始低电平
    475                  osal_start_timerEx( SampleApp_TaskID, SAMPLEAPP_SIMULATE_COIN_MSG_EVT, 10); // 产生定时器事件
    476                } else if(cmd == 0x31 && pkt->cmd.Data[3] == '@') { // LED2闪灯测试命令
    477                  HalLedBlink(HAL_LED_1, 1, 50, 500);
    478          #ifdef LCD_SUPPORTED 
    479                  recvTestMsgCount++;
    480                  HalLcdWriteString("Recv:", HAL_LCD_LINE_5);
    481                  convertHexToStr(recvTestMsgCount, HAL_LCD_LINE_6);
    482          #endif        
    483                }
    484              }        
    485          #endif    
    486              break;
    487              
    488            default:
    489              break;
    490            }
    491          }
   \   000000   02....       LJMP    ?BRET
    492          
    493          /**
    494          * 协调器向终端发送广播类型消息
    495          */

   \                                 In  segment BANKED_CODE, align 1, keep-with-next
    496          void SampleApp_SendPeriodicMessage( int8 key )
   \                     SampleApp_SendPeriodicMessage:
    497          {
   \   000000   74F6         MOV     A,#-0xa
   \   000002   12....       LCALL   ?BANKED_ENTER_XDATA
   \   000005                ; Saved register size: 10
   \   000005                ; Auto size: 4
   \   000005   74FC         MOV     A,#-0x4
   \   000007   12....       LCALL   ?ALLOC_XSTACK8
   \   00000A   E9           MOV     A,R1
   \   00000B   FE           MOV     R6,A
    498            if(key == 1) { // 按键S1
   \   00000C   7401         MOV     A,#0x1
   \   00000E   6E           XRL     A,R6
   \   00000F   706D         JNZ     ??SampleApp_SendPeriodicMessage_0
    499              uint8 sendKeyS1Buf[4] = {'#', 0x31, 0, '@'};
   \   000011   85..82       MOV     DPL,?XSP + 0
   \   000014   85..83       MOV     DPH,?XSP + 1
   \   000017   AC82         MOV     R4,DPL
   \   000019   AD83         MOV     R5,DPH
   \   00001B   7583..       MOV     DPH,#(`?<Constant {35, 49, 0, 64}>` >> 8) & 0xff
   \   00001E   7582..       MOV     DPL,#`?<Constant {35, 49, 0, 64}>` & 0xff
   \   000021   7404         MOV     A,#0x4
   \   000023   12....       LCALL   ?MOVE_LONG8_XDATA_XDATA
    500              
    501              if ( AF_DataRequest( &SampleApp_Periodic_DstAddr, &SampleApp_epDesc,
    502                                  SAMPLEAPP_PERIODIC_CLUSTERID,
    503                                  4,
    504                                  sendKeyS1Buf,
    505                                  &SampleApp_TransID,
    506                                  AF_DISCV_ROUTE,
    507                                  AF_DEFAULT_RADIUS ) == afStatus_SUCCESS )
   \   000026                ; Setup parameters for call to function AF_DataRequest
   \   000026   75..1E       MOV     ?V0 + 0,#0x1e
   \   000029   78..         MOV     R0,#?V0 + 0
   \   00002B   12....       LCALL   ?PUSH_XSTACK_I_ONE
   \   00002E   75....       MOV     ?V0 + 0,#SampleApp_TransID & 0xff
   \   000031   75....       MOV     ?V0 + 1,#(SampleApp_TransID >> 8) & 0xff
   \   000034   78..         MOV     R0,#?V0 + 0
   \   000036   12....       LCALL   ?PUSH_XSTACK_I_TWO
   \   000039   7403         MOV     A,#0x3
   \   00003B   12....       LCALL   ?XSTACK_DISP0_8
   \   00003E   8582..       MOV     ?V0 + 0,DPL
   \   000041   8583..       MOV     ?V0 + 1,DPH
   \   000044   78..         MOV     R0,#?V0 + 0
   \   000046   12....       LCALL   ?PUSH_XSTACK_I_TWO
   \   000049   75..04       MOV     ?V0 + 0,#0x4
   \   00004C   75..00       MOV     ?V0 + 1,#0x0
   \   00004F   78..         MOV     R0,#?V0 + 0
   \   000051   12....       LCALL   ?PUSH_XSTACK_I_TWO
   \   000054   75..01       MOV     ?V0 + 0,#0x1
   \   000057   78..         MOV     R0,#?V0 + 0
   \   000059   12....       LCALL   ?PUSH_XSTACK_I_TWO
   \   00005C   7920         MOV     R1,#0x20
   \   00005E   7C..         MOV     R4,#SampleApp_epDesc & 0xff
   \   000060   7D..         MOV     R5,#(SampleApp_epDesc >> 8) & 0xff
   \   000062   7A..         MOV     R2,#SampleApp_Periodic_DstAddr & 0xff
   \   000064   7B..         MOV     R3,#(SampleApp_Periodic_DstAddr >> 8) & 0xff
   \   000066   12....       LCALL   ??AF_DataRequest?relay
   \   000069   7409         MOV     A,#0x9
   \   00006B   12....       LCALL   ?DEALLOC_XSTACK8
   \   00006E   E9           MOV     A,R1
   \   00006F   700D         JNZ     ??SampleApp_SendPeriodicMessage_0
    508              {
    509                HalLedBlink(HAL_LED_1, 1, 50, 500);
   \   000071                ; Setup parameters for call to function HalLedBlink
   \   000071   7CF4         MOV     R4,#-0xc
   \   000073   7D01         MOV     R5,#0x1
   \   000075   7B32         MOV     R3,#0x32
   \   000077   7A01         MOV     R2,#0x1
   \   000079   7901         MOV     R1,#0x1
   \   00007B   12....       LCALL   ??HalLedBlink?relay
    510              }
    511            } else if(key == 2) { // 按键S2
    512              // myprintf("press key S2\n");
    513            }
    514          }
   \                     ??SampleApp_SendPeriodicMessage_0:
   \   00007E   7404         MOV     A,#0x4
   \   000080   12....       LCALL   ?DEALLOC_XSTACK8
   \   000083   7F02         MOV     R7,#0x2
   \   000085   02....       LJMP    ?BANKED_LEAVE_XDATA
    515          
    516          /**
    517            协调器心跳功能函数，使用串口向树莓派发送心跳信息
    518          */

   \                                 In  segment XDATA_Z, align 1, keep-with-next
    519          uint16 totalSendTestCount = 0;
   \                     totalSendTestCount:
   \   000000                DS 2
   \   000002                REQUIRE __INIT_XDATA_Z

   \                                 In  segment XDATA_Z, align 1, keep-with-next
    520          uint16 sendTestCount = 0;
   \                     sendTestCount:
   \   000000                DS 2
   \   000002                REQUIRE __INIT_XDATA_Z

   \                                 In  segment BANKED_CODE, align 1, keep-with-next
    521          void SampleApp_SendHeartBeatMessageCoor(void) {
   \                     SampleApp_SendHeartBeatMessageCoor:
   \   000000   C082         PUSH    DPL
   \   000002   C083         PUSH    DPH
   \   000004                ; Saved register size: 2
   \   000004                ; Auto size: 3
   \   000004   74FD         MOV     A,#-0x3
   \   000006   12....       LCALL   ?ALLOC_XSTACK8
    522            // 遍历终端列表，将所有节点剩余时间-1，如果小于0，则置0
    523            uint8 heartBeatBuf[3] = {'#', 0x46, '@'};
   \   000009   85..82       MOV     DPL,?XSP + 0
   \   00000C   85..83       MOV     DPH,?XSP + 1
   \   00000F   AC82         MOV     R4,DPL
   \   000011   AD83         MOV     R5,DPH
   \   000013   7583..       MOV     DPH,#(`?<Constant {35, 70, 64}>` >> 8) & 0xff
   \   000016   7582..       MOV     DPL,#`?<Constant {35, 70, 64}>` & 0xff
   \   000019   7403         MOV     A,#0x3
   \   00001B   12....       LCALL   ?MOVE_LONG8_XDATA_XDATA
    524            mySendByteBuf(heartBeatBuf, 3);
   \   00001E                ; Setup parameters for call to function mySendByteBuf
   \   00001E   7C03         MOV     R4,#0x3
   \   000020   FD           MOV     R5,A
   \   000021   85..82       MOV     DPL,?XSP + 0
   \   000024   85..83       MOV     DPH,?XSP + 1
   \   000027   AA82         MOV     R2,DPL
   \   000029   AB83         MOV     R3,DPH
   \   00002B   12....       LCALL   ??mySendByteBuf?relay
    525            
    526            // 将终端列表中元素在线时长-1，如果检测到超时则将IEEE发送到上位机
    527            decAllListEPLeftSec(LL); 
   \   00002E                ; Setup parameters for call to function decAllListEPLeftSec
   \   00002E   90....       MOV     DPTR,#LL
   \   000031   E0           MOVX    A,@DPTR
   \   000032   FA           MOV     R2,A
   \   000033   A3           INC     DPTR
   \   000034   E0           MOVX    A,@DPTR
   \   000035   FB           MOV     R3,A
   \   000036   12....       LCALL   ??decAllListEPLeftSec?relay
    528            HalLedBlink(HAL_LED_2, 1, 50, 500);
   \   000039                ; Setup parameters for call to function HalLedBlink
   \   000039   7CF4         MOV     R4,#-0xc
   \   00003B   7D01         MOV     R5,#0x1
   \   00003D   7B32         MOV     R3,#0x32
   \   00003F   7A01         MOV     R2,#0x1
   \   000041   7902         MOV     R1,#0x2
   \   000043   12....       LCALL   ??HalLedBlink?relay
    529            
    530            // 发送稳定性测试数据到终端设备
    531            totalSendTestCount++;
   \   000046   90....       MOV     DPTR,#totalSendTestCount
   \   000049   E0           MOVX    A,@DPTR
   \   00004A   2401         ADD     A,#0x1
   \   00004C   F0           MOVX    @DPTR,A
   \   00004D   A3           INC     DPTR
   \   00004E   E0           MOVX    A,@DPTR
   \   00004F   3400         ADDC    A,#0x0
   \   000051   F0           MOVX    @DPTR,A
    532            if(totalSendTestCount % 2 == 0) {
   \   000052   90....       MOV     DPTR,#totalSendTestCount
   \   000055   E0           MOVX    A,@DPTR
   \   000056   A2E0         MOV     C,0xE0 /* A   */.0
   \   000058   4017         JC      ??SampleApp_SendHeartBeatMessageCoor_0
    533              SampleApp_SendPeriodicMessage(1);
   \   00005A                ; Setup parameters for call to function SampleApp_SendPeriodicMessage
   \   00005A   7901         MOV     R1,#0x1
   \   00005C   12....       LCALL   ??SampleApp_SendPeriodicMessage?relay
    534              myprintf("sendTestCount = %d\n", sendTestCount); // 串口打印发送的次数
   \   00005F                ; Setup parameters for call to function myprintf
   \   00005F   90....       MOV     DPTR,#sendTestCount
   \   000062   12....       LCALL   ?PUSH_XSTACK8_X_TWO
   \   000065   7A..         MOV     R2,#`?<Constant "sendTestCount = %d\\n">` & 0xff
   \   000067   7B..         MOV     R3,#(`?<Constant "sendTestCount = %d\\n">` >> 8) & 0xff
   \   000069   12....       LCALL   ??myprintf?relay
   \   00006C   7402         MOV     A,#0x2
   \   00006E   12....       LCALL   ?DEALLOC_XSTACK8
    535            }
    536          }
   \                     ??SampleApp_SendHeartBeatMessageCoor_0:
   \   000071   7403         MOV     A,#0x3
   \   000073   12....       LCALL   ?DEALLOC_XSTACK8
   \   000076                REQUIRE ?Subroutine1
   \   000076                ; // Fall through to label ?Subroutine1

   \                                 In  segment BANKED_CODE, align 1, keep-with-next
   \                     ?Subroutine1:
   \   000000   D083         POP     DPH
   \   000002   D082         POP     DPL
   \   000004   02....       LJMP    ?BRET
    537          
    538          /**
    539            终端心跳函数，用于定时向协调器发送本机地址信息
    540          */

   \                                 In  segment BANKED_CODE, align 1, keep-with-next
    541          void SampleApp_SendHeartBeatMessageEnd(void) { 
   \                     SampleApp_SendHeartBeatMessageEnd:
   \   000000   C082         PUSH    DPL
   \   000002   C083         PUSH    DPH
   \   000004                ; Saved register size: 2
   \   000004                ; Auto size: 0
    542            AfSendAddrInfo(0x71);  
   \   000004                ; Setup parameters for call to function AfSendAddrInfo
   \   000004   7971         MOV     R1,#0x71
   \   000006   12....       LCALL   ??AfSendAddrInfo?relay
    543          }
   \   000009   80..         SJMP    ?Subroutine1
    544          
    545          /**
    546            发送终端地址信息到协调器
    547          */

   \                                 In  segment BANKED_CODE, align 1, keep-with-next
    548          void AfSendAddrInfo(uint8 cmd) {
   \                     AfSendAddrInfo:
   \   000000   74F5         MOV     A,#-0xb
   \   000002   12....       LCALL   ?BANKED_ENTER_XDATA
   \   000005                ; Saved register size: 11
   \   000005                ; Auto size: 13
   \   000005   74F3         MOV     A,#-0xd
   \   000007   12....       LCALL   ?ALLOC_XSTACK8
   \   00000A   E9           MOV     A,R1
   \   00000B   FE           MOV     R6,A
    549            uint16 shortAddr;
    550            uint8 strBuf[13] = {0};  
   \   00000C   85..82       MOV     DPL,?XSP + 0
   \   00000F   85..83       MOV     DPH,?XSP + 1
   \   000012   AC82         MOV     R4,DPL
   \   000014   AD83         MOV     R5,DPH
   \   000016   7583..       MOV     DPH,#(`?<Constant {0}>` >> 8) & 0xff
   \   000019   7582..       MOV     DPL,#`?<Constant {0}>` & 0xff
   \   00001C   740D         MOV     A,#0xd
   \   00001E   12....       LCALL   ?MOVE_LONG8_XDATA_XDATA
    551            
    552            shortAddr = NLME_GetShortAddr(); // 获取自身网络设备地址，获取父设备网络地址：uint16 NLME_GetCoordShortAddr( void );
   \   000021                ; Setup parameters for call to function NLME_GetShortAddr
   \   000021   12....       LCALL   ??NLME_GetShortAddr?relay
    553            strBuf[0] = '#';  // 发送数据的标识，便于协调器解析
   \   000024   85..82       MOV     DPL,?XSP + 0
   \   000027   85..83       MOV     DPH,?XSP + 1
   \   00002A   7423         MOV     A,#0x23
   \   00002C   F0           MOVX    @DPTR,A
    554            strBuf[1] = cmd; // 消息类型标识
   \   00002D   7401         MOV     A,#0x1
   \   00002F   12....       LCALL   ?XSTACK_DISP0_8
   \   000032   EE           MOV     A,R6
   \   000033   F0           MOVX    @DPTR,A
    555            strBuf[2] = HI_UINT16(shortAddr); // 存放地址的高8位
   \   000034   7402         MOV     A,#0x2
   \   000036   12....       LCALL   ?XSTACK_DISP0_8
   \   000039   EB           MOV     A,R3
   \   00003A   F0           MOVX    @DPTR,A
    556            strBuf[3] = LO_UINT16(shortAddr); // 存放低8位
   \   00003B   7403         MOV     A,#0x3
   \   00003D   12....       LCALL   ?XSTACK_DISP0_8
   \   000040   EA           MOV     A,R2
   \   000041   12....       LCALL   ?Subroutine2 & 0xFFFF
    557            osal_memcpy(&strBuf[4], NLME_GetExtAddr(), 8); // 复制IEEE地址
   \                     ??CrossCallReturnLabel_0:
   \   000044   12....       LCALL   ?PUSH_XSTACK_I_THREE
   \   000047   7C08         MOV     R4,#0x8
   \   000049   7D00         MOV     R5,#0x0
   \   00004B   7407         MOV     A,#0x7
   \   00004D   12....       LCALL   ?XSTACK_DISP0_8
   \   000050   AA82         MOV     R2,DPL
   \   000052   AB83         MOV     R3,DPH
   \   000054   12....       LCALL   ??osal_memcpy?relay
   \   000057   7403         MOV     A,#0x3
   \   000059   12....       LCALL   ?DEALLOC_XSTACK8
    558            strBuf[12] = '@'; // 尾部字节
   \   00005C   740C         MOV     A,#0xc
   \   00005E   12....       LCALL   ?XSTACK_DISP0_8
   \   000061   7440         MOV     A,#0x40
   \   000063   F0           MOVX    @DPTR,A
    559            if ( AF_DataRequest( &SampleApp_TxAddr,                  // 发送的目的地址+端点地址+传送模式
    560                                (endPointDesc_t *)&SampleApp_epDesc, // 源终端的描述
    561                                SAMPLEAPP_PERIODIC_CLUSTERID,        // 被profile指定的有效的集群号
    562                                13,                                  // 发送数据长度
    563                                strBuf,                              // 发送数据缓冲区
    564                                &SampleApp_TransID,                  // 消息发送ID
    565                                AF_DISCV_ROUTE,                      // 有效位掩码的发送选项
    566                                AF_DEFAULT_RADIUS ) != afStatus_SUCCESS ) // 传送跳数，通常设置为AF_DEFAULT_RADIUS
   \   000064                ; Setup parameters for call to function AF_DataRequest
   \   000064   75..1E       MOV     ?V0 + 0,#0x1e
   \   000067   78..         MOV     R0,#?V0 + 0
   \   000069   12....       LCALL   ?PUSH_XSTACK_I_ONE
   \   00006C   75....       MOV     ?V0 + 0,#SampleApp_TransID & 0xff
   \   00006F   75....       MOV     ?V0 + 1,#(SampleApp_TransID >> 8) & 0xff
   \   000072   78..         MOV     R0,#?V0 + 0
   \   000074   12....       LCALL   ?PUSH_XSTACK_I_TWO
   \   000077   7403         MOV     A,#0x3
   \   000079   12....       LCALL   ?XSTACK_DISP0_8
   \   00007C   8582..       MOV     ?V0 + 0,DPL
   \   00007F   8583..       MOV     ?V0 + 1,DPH
   \   000082   78..         MOV     R0,#?V0 + 0
   \   000084   12....       LCALL   ?PUSH_XSTACK_I_TWO
   \   000087   75..0D       MOV     ?V0 + 0,#0xd
   \   00008A   75..00       MOV     ?V0 + 1,#0x0
   \   00008D   78..         MOV     R0,#?V0 + 0
   \   00008F   12....       LCALL   ?PUSH_XSTACK_I_TWO
   \   000092   75..01       MOV     ?V0 + 0,#0x1
   \   000095   78..         MOV     R0,#?V0 + 0
   \   000097   12....       LCALL   ?PUSH_XSTACK_I_TWO
   \   00009A   7920         MOV     R1,#0x20
   \   00009C   7C..         MOV     R4,#SampleApp_epDesc & 0xff
   \   00009E   7D..         MOV     R5,#(SampleApp_epDesc >> 8) & 0xff
   \   0000A0   7A..         MOV     R2,#SampleApp_TxAddr & 0xff
   \   0000A2   7B..         MOV     R3,#(SampleApp_TxAddr >> 8) & 0xff
   \   0000A4   12....       LCALL   ??AF_DataRequest?relay
   \   0000A7   7409         MOV     A,#0x9
   \   0000A9   12....       LCALL   ?DEALLOC_XSTACK8
   \   0000AC   E9           MOV     A,R1
   \   0000AD   600C         JZ      ??AfSendAddrInfo_0
    567            {
    568              HalLedBlink(HAL_LED_1, 2, 50, 250); // 发送失败快速闪烁两次
   \   0000AF                ; Setup parameters for call to function HalLedBlink
   \   0000AF   7CFA         MOV     R4,#-0x6
   \   0000B1   7D00         MOV     R5,#0x0
   \   0000B3   7B32         MOV     R3,#0x32
   \   0000B5   7A02         MOV     R2,#0x2
   \   0000B7   7901         MOV     R1,#0x1
   \   0000B9   800A         SJMP    ??AfSendAddrInfo_1
    569            } else {
    570              HalLedBlink(HAL_LED_2, 1, 50, 500); // 发送成功正常闪烁一次
   \                     ??AfSendAddrInfo_0:
   \   0000BB                ; Setup parameters for call to function HalLedBlink
   \   0000BB   7CF4         MOV     R4,#-0xc
   \   0000BD   7D01         MOV     R5,#0x1
   \   0000BF   7B32         MOV     R3,#0x32
   \   0000C1   7A01         MOV     R2,#0x1
   \   0000C3   7902         MOV     R1,#0x2
   \                     ??AfSendAddrInfo_1:
   \   0000C5   12....       LCALL   ??HalLedBlink?relay
    571            }
    572          }
   \   0000C8   740D         MOV     A,#0xd
   \   0000CA   02....       LJMP    ?Subroutine0 & 0xFFFF

   \                                 In  segment BANKED_CODE, align 1, keep-with-next
   \                     ?Subroutine2:
   \   000000   F0           MOVX    @DPTR,A
   \   000001                ; Setup parameters for call to function osal_memcpy
   \   000001                ; Setup parameters for call to function NLME_GetExtAddr
   \   000001                ; Setup parameters for call to function osal_memcpy
   \   000001                ; Setup parameters for call to function NLME_GetExtAddr
   \   000001   12....       LCALL   ??NLME_GetExtAddr?relay
   \   000004   8A..         MOV     ?V0 + 0,R2
   \   000006   8B..         MOV     ?V0 + 1,R3
   \   000008   75..00       MOV     ?V0 + 2,#0x0
   \   00000B   78..         MOV     R0,#?V0 + 0
   \   00000D   22           RET

   \                                 In  segment BANKED_CODE, align 1, keep-with-next
   \                     ?Subroutine0:
   \   000000   12....       LCALL   ?DEALLOC_XSTACK8
   \   000003                REQUIRE ??Subroutine5_0
   \   000003                ; // Fall through to label ??Subroutine5_0
    573          
    574          /**
    575            终端发送已经收到投币开始游戏命令
    576          */

   \                                 In  segment BANKED_CODE, align 1, keep-with-next
    577          void AfReplyGetCoinCmd(void) {
   \                     AfReplyGetCoinCmd:
   \   000000   74F5         MOV     A,#-0xb
   \   000002   12....       LCALL   ?BANKED_ENTER_XDATA
   \   000005                ; Saved register size: 11
   \   000005                ; Auto size: 11
   \   000005   74F5         MOV     A,#-0xb
   \   000007   12....       LCALL   ?ALLOC_XSTACK8
    578            uint8 strBuf[11] = {0};  
   \   00000A   85..82       MOV     DPL,?XSP + 0
   \   00000D   85..83       MOV     DPH,?XSP + 1
   \   000010   AC82         MOV     R4,DPL
   \   000012   AD83         MOV     R5,DPH
   \   000014   7583..       MOV     DPH,#(`?<Constant {0}>_1` >> 8) & 0xff
   \   000017   7582..       MOV     DPL,#`?<Constant {0}>_1` & 0xff
   \   00001A   740B         MOV     A,#0xb
   \   00001C   12....       LCALL   ?MOVE_LONG8_XDATA_XDATA
    579            
    580            strBuf[0] = '#';  // 发送数据的标识，便于协调器解析
   \   00001F   85..82       MOV     DPL,?XSP + 0
   \   000022   85..83       MOV     DPH,?XSP + 1
   \   000025   7423         MOV     A,#0x23
   \   000027   F0           MOVX    @DPTR,A
    581            strBuf[1] = 0x72; // 消息类型标识
   \   000028   7401         MOV     A,#0x1
   \   00002A   12....       LCALL   ?XSTACK_DISP0_8
   \   00002D   7472         MOV     A,#0x72
   \   00002F   12....       LCALL   ?Subroutine2 & 0xFFFF
    582            osal_memcpy(&strBuf[2], NLME_GetExtAddr(), 8); // 复制IEEE地址
   \                     ??CrossCallReturnLabel_1:
   \   000032   12....       LCALL   ?PUSH_XSTACK_I_THREE
   \   000035   7C08         MOV     R4,#0x8
   \   000037   7D00         MOV     R5,#0x0
   \   000039   7405         MOV     A,#0x5
   \   00003B   12....       LCALL   ?XSTACK_DISP0_8
   \   00003E   AA82         MOV     R2,DPL
   \   000040   AB83         MOV     R3,DPH
   \   000042   12....       LCALL   ??osal_memcpy?relay
   \   000045   7403         MOV     A,#0x3
   \   000047   12....       LCALL   ?DEALLOC_XSTACK8
    583            strBuf[10] = '@'; // 尾部字节
   \   00004A   740A         MOV     A,#0xa
   \   00004C   12....       LCALL   ?XSTACK_DISP0_8
   \   00004F   7440         MOV     A,#0x40
   \   000051   F0           MOVX    @DPTR,A
    584            if ( AF_DataRequest( &SampleApp_TxAddr,                  // 发送的目的地址+端点地址+传送模式
    585                                (endPointDesc_t *)&SampleApp_epDesc, // 源终端的描述
    586                                SAMPLEAPP_PERIODIC_CLUSTERID,        // 被profile指定的有效的集群号
    587                                11,                                  // 发送数据长度
    588                                strBuf,                              // 发送数据缓冲区
    589                                &SampleApp_TransID,                  // 消息发送ID
    590                                AF_DISCV_ROUTE,                      // 有效位掩码的发送选项
    591                                AF_DEFAULT_RADIUS ) != afStatus_SUCCESS ) // 传送跳数，通常设置为AF_DEFAULT_RADIUS
   \   000052                ; Setup parameters for call to function AF_DataRequest
   \   000052   75..1E       MOV     ?V0 + 0,#0x1e
   \   000055   78..         MOV     R0,#?V0 + 0
   \   000057   12....       LCALL   ?PUSH_XSTACK_I_ONE
   \   00005A   75....       MOV     ?V0 + 0,#SampleApp_TransID & 0xff
   \   00005D   75....       MOV     ?V0 + 1,#(SampleApp_TransID >> 8) & 0xff
   \   000060   78..         MOV     R0,#?V0 + 0
   \   000062   12....       LCALL   ?PUSH_XSTACK_I_TWO
   \   000065   7403         MOV     A,#0x3
   \   000067   12....       LCALL   ?XSTACK_DISP0_8
   \   00006A   8582..       MOV     ?V0 + 0,DPL
   \   00006D   8583..       MOV     ?V0 + 1,DPH
   \   000070   78..         MOV     R0,#?V0 + 0
   \   000072   12....       LCALL   ?PUSH_XSTACK_I_TWO
   \   000075   75..0B       MOV     ?V0 + 0,#0xb
   \   000078   75..00       MOV     ?V0 + 1,#0x0
   \   00007B   78..         MOV     R0,#?V0 + 0
   \   00007D   12....       LCALL   ?PUSH_XSTACK_I_TWO
   \   000080   75..01       MOV     ?V0 + 0,#0x1
   \   000083   78..         MOV     R0,#?V0 + 0
   \   000085   12....       LCALL   ?PUSH_XSTACK_I_TWO
   \   000088   7920         MOV     R1,#0x20
   \   00008A   7C..         MOV     R4,#SampleApp_epDesc & 0xff
   \   00008C   7D..         MOV     R5,#(SampleApp_epDesc >> 8) & 0xff
   \   00008E   7A..         MOV     R2,#SampleApp_TxAddr & 0xff
   \   000090   7B..         MOV     R3,#(SampleApp_TxAddr >> 8) & 0xff
   \   000092   12....       LCALL   ??AF_DataRequest?relay
   \   000095   7409         MOV     A,#0x9
   \   000097   12....       LCALL   ?DEALLOC_XSTACK8
   \   00009A   E9           MOV     A,R1
   \   00009B   600A         JZ      ??AfReplyGetCoinCmd_0
    592            {
    593              HalLedBlink(HAL_LED_1, 4, 50, 250); // 发送失败快速闪烁两次
   \   00009D                ; Setup parameters for call to function HalLedBlink
   \   00009D   7CFA         MOV     R4,#-0x6
   \   00009F   7D00         MOV     R5,#0x0
   \   0000A1   7B32         MOV     R3,#0x32
   \   0000A3   7A04         MOV     R2,#0x4
   \   0000A5   8008         SJMP    ??AfReplyGetCoinCmd_1
    594            } else {
    595              HalLedBlink(HAL_LED_1, 2, 50, 500); // 发送成功正常闪烁2次
   \                     ??AfReplyGetCoinCmd_0:
   \   0000A7                ; Setup parameters for call to function HalLedBlink
   \   0000A7   7CF4         MOV     R4,#-0xc
   \   0000A9   7D01         MOV     R5,#0x1
   \   0000AB   7B32         MOV     R3,#0x32
   \   0000AD   7A02         MOV     R2,#0x2
   \                     ??AfReplyGetCoinCmd_1:
   \   0000AF   7901         MOV     R1,#0x1
   \   0000B1   12....       LCALL   ??HalLedBlink?relay
    596            }
    597          }
   \   0000B4   740B         MOV     A,#0xb
   \   0000B6   02....       LJMP    ?Subroutine0 & 0xFFFF
    598          
    599          /**
    600            协调器打印终端上传的长短地址
    601          */

   \                                 In  segment BANKED_CODE, align 1, keep-with-next
    602          void printAddrInfoHex(uint8* buf, uint8 dataLen) {
   \                     printAddrInfoHex:
   \   000000   74F3         MOV     A,#-0xd
   \   000002   12....       LCALL   ?BANKED_ENTER_XDATA
   \   000005                ; Saved register size: 13
   \   000005                ; Auto size: 0
   \   000005   EA           MOV     A,R2
   \   000006   FE           MOV     R6,A
   \   000007   EB           MOV     A,R3
   \   000008   FF           MOV     R7,A
   \   000009   89..         MOV     ?V0 + 4,R1
    603            int i = 0;
    604            
    605            myprintf("\n");
   \   00000B                ; Setup parameters for call to function myprintf
   \   00000B   7A..         MOV     R2,#`?<Constant "\\n">` & 0xff
   \   00000D   7B..         MOV     R3,#(`?<Constant "\\n">` >> 8) & 0xff
   \   00000F   12....       LCALL   ??myprintf?relay
    606            for(i = 0; i < dataLen; i++) {
   \   000012   75..00       MOV     ?V0 + 0,#0x0
   \   000015   75..00       MOV     ?V0 + 1,#0x0
   \   000018   803E         SJMP    ??printAddrInfoHex_0
    607              if(i == 2) {
   \                     ??printAddrInfoHex_1:
   \   00001A   7402         MOV     A,#0x2
   \   00001C   65..         XRL     A,?V0 + 0
   \   00001E   7002         JNZ     ??printAddrInfoHex_2
   \   000020   E5..         MOV     A,?V0 + 1
   \                     ??printAddrInfoHex_2:
   \   000022   7007         JNZ     ??printAddrInfoHex_3
    608                myprintf("; IEEE = ");
   \   000024                ; Setup parameters for call to function myprintf
   \   000024   7A..         MOV     R2,#`?<Constant "; IEEE = ">` & 0xff
   \   000026   7B..         MOV     R3,#(`?<Constant "; IEEE = ">` >> 8) & 0xff
   \   000028   12....       LCALL   ??myprintf?relay
    609              }
    610              myprintf("0x%x,", buf[i]);
   \                     ??printAddrInfoHex_3:
   \   00002B                ; Setup parameters for call to function myprintf
   \   00002B   EE           MOV     A,R6
   \   00002C   25..         ADD     A,?V0 + 0
   \   00002E   F582         MOV     DPL,A
   \   000030   EF           MOV     A,R7
   \   000031   35..         ADDC    A,?V0 + 1
   \   000033   F583         MOV     DPH,A
   \   000035   E0           MOVX    A,@DPTR
   \   000036   F5..         MOV     ?V0 + 2,A
   \   000038   75..00       MOV     ?V0 + 3,#0x0
   \   00003B   78..         MOV     R0,#?V0 + 2
   \   00003D   12....       LCALL   ?PUSH_XSTACK_I_TWO
   \   000040   7A..         MOV     R2,#`?<Constant "0x%x,">` & 0xff
   \   000042   7B..         MOV     R3,#(`?<Constant "0x%x,">` >> 8) & 0xff
   \   000044   12....       LCALL   ??myprintf?relay
   \   000047   7402         MOV     A,#0x2
   \   000049   12....       LCALL   ?DEALLOC_XSTACK8
    611            }
   \   00004C   E5..         MOV     A,?V0 + 0
   \   00004E   2401         ADD     A,#0x1
   \   000050   F5..         MOV     ?V0 + 0,A
   \   000052   E5..         MOV     A,?V0 + 1
   \   000054   3400         ADDC    A,#0x0
   \   000056   F5..         MOV     ?V0 + 1,A
   \                     ??printAddrInfoHex_0:
   \   000058   85....       MOV     ?V0 + 2,?V0 + 4
   \   00005B   C3           CLR     C
   \   00005C   E5..         MOV     A,?V0 + 0
   \   00005E   95..         SUBB    A,?V0 + 2
   \   000060   E5..         MOV     A,?V0 + 1
   \   000062   9400         SUBB    A,#0x0
   \   000064   A2D2         MOV     C,0xD0 /* PSW */.2
   \   000066   65D0         XRL     A,PSW
   \   000068   33           RLC     A
   \   000069   40AF         JC      ??printAddrInfoHex_1
    612            myprintf("\n");
   \   00006B                ; Setup parameters for call to function myprintf
   \   00006B   7A..         MOV     R2,#`?<Constant "\\n">` & 0xff
   \   00006D   7B..         MOV     R3,#(`?<Constant "\\n">` >> 8) & 0xff
   \   00006F   12....       LCALL   ??myprintf?relay
    613          }
   \   000072   7F05         MOV     R7,#0x5
   \   000074   02....       LJMP    ?BANKED_LEAVE_XDATA
    614          
    615          /**
    616            将十六进制数转变成字符
    617          */

   \                                 In  segment BANKED_CODE, align 1, keep-with-next
    618          void convertHexToStr(uint16 addr, uint8 lcdLineNum) {
   \                     convertHexToStr:
   \   000000   74F5         MOV     A,#-0xb
   \   000002   12....       LCALL   ?BANKED_ENTER_XDATA
   \   000005                ; Saved register size: 11
   \   000005                ; Auto size: 7
   \   000005   74F9         MOV     A,#-0x7
   \   000007   12....       LCALL   ?ALLOC_XSTACK8
   \   00000A   7405         MOV     A,#0x5
   \   00000C   12....       LCALL   ?XSTACK_DISP0_8
   \   00000F   EA           MOV     A,R2
   \   000010   F0           MOVX    @DPTR,A
   \   000011   A3           INC     DPTR
   \   000012   EB           MOV     A,R3
   \   000013   F0           MOVX    @DPTR,A
   \   000014   E9           MOV     A,R1
   \   000015   FE           MOV     R6,A
    619            uint8 i;
    620            uint8 *xad;
    621            uint8 lcd_buf[2*2+1];
    622          
    623            // Display the extended address.
    624            xad = (uint8*)&addr + 2 - 1;
   \   000016   A882         MOV     R0,DPL
   \   000018   A983         MOV     R1,DPH
    625          
    626            for (i = 0; i < 2*2; xad--)
   \   00001A   7C00         MOV     R4,#0x0
    627            {
    628              uint8 ch;
    629              ch = (*xad >> 4) & 0x0F;
   \                     ??convertHexToStr_0:
   \   00001C   8882         MOV     DPL,R0
   \   00001E   8983         MOV     DPH,R1
   \   000020   E0           MOVX    A,@DPTR
   \   000021   C4           SWAP    A
   \   000022   540F         ANL     A,#0xf
   \   000024   FD           MOV     R5,A
    630              lcd_buf[i++] = ch + (( ch < 10 ) ? '0' : '7'); // +7可以转变成大写字符ABCDEF
   \   000025   EC           MOV     A,R4
   \   000026   FF           MOV     R7,A
   \   000027   0C           INC     R4
   \   000028   ED           MOV     A,R5
   \   000029   C3           CLR     C
   \   00002A   940A         SUBB    A,#0xa
   \   00002C   5004         JNC     ??convertHexToStr_1
   \   00002E   7A30         MOV     R2,#0x30
   \   000030   8002         SJMP    ??convertHexToStr_2
   \                     ??convertHexToStr_1:
   \   000032   7A37         MOV     R2,#0x37
   \                     ??convertHexToStr_2:
   \   000034   EA           MOV     A,R2
   \   000035   2D           ADD     A,R5
   \   000036   C0E0         PUSH    A
   \   000038   8F..         MOV     ?V0 + 0,R7
   \   00003A   12....       LCALL   ?Subroutine3 & 0xFFFF
   \                     ??CrossCallReturnLabel_2:
   \   00003D   D0E0         POP     A
   \   00003F   F0           MOVX    @DPTR,A
    631              ch = *xad & 0x0F;
   \   000040   8882         MOV     DPL,R0
   \   000042   8983         MOV     DPH,R1
   \   000044   E0           MOVX    A,@DPTR
   \   000045   540F         ANL     A,#0xf
   \   000047   FD           MOV     R5,A
    632              lcd_buf[i++] = ch + (( ch < 10 ) ? '0' : '7');
   \   000048   8C..         MOV     ?V0 + 2,R4
   \   00004A   0C           INC     R4
   \   00004B   C3           CLR     C
   \   00004C   940A         SUBB    A,#0xa
   \   00004E   5004         JNC     ??convertHexToStr_3
   \   000050   7A30         MOV     R2,#0x30
   \   000052   8002         SJMP    ??convertHexToStr_4
   \                     ??convertHexToStr_3:
   \   000054   7A37         MOV     R2,#0x37
   \                     ??convertHexToStr_4:
   \   000056   EA           MOV     A,R2
   \   000057   2D           ADD     A,R5
   \   000058   C0E0         PUSH    A
   \   00005A   85....       MOV     ?V0 + 0,?V0 + 2
   \   00005D   12....       LCALL   ?Subroutine3 & 0xFFFF
    633            }
   \                     ??CrossCallReturnLabel_3:
   \   000060   D0E0         POP     A
   \   000062   F0           MOVX    @DPTR,A
   \   000063   E8           MOV     A,R0
   \   000064   24FF         ADD     A,#-0x1
   \   000066   18           DEC     R0
   \   000067   E9           MOV     A,R1
   \   000068   34FF         ADDC    A,#-0x1
   \   00006A   F9           MOV     R1,A
   \   00006B   EC           MOV     A,R4
   \   00006C   C3           CLR     C
   \   00006D   9404         SUBB    A,#0x4
   \   00006F   40AB         JC      ??convertHexToStr_0
    634            lcd_buf[2*2] = '\0';
   \   000071   7404         MOV     A,#0x4
   \   000073   12....       LCALL   ?XSTACK_DISP0_8
   \   000076   E4           CLR     A
   \   000077   F0           MOVX    @DPTR,A
    635            HalLcdWriteString( (char*)lcd_buf, lcdLineNum);
   \   000078                ; Setup parameters for call to function HalLcdWriteString
   \   000078   EE           MOV     A,R6
   \   000079   F9           MOV     R1,A
   \   00007A   85..82       MOV     DPL,?XSP + 0
   \   00007D   85..83       MOV     DPH,?XSP + 1
   \   000080   AA82         MOV     R2,DPL
   \   000082   AB83         MOV     R3,DPH
   \   000084   12....       LCALL   ??HalLcdWriteString?relay
    636          }
   \   000087   7407         MOV     A,#0x7
   \   000089                REQUIRE ?Subroutine0
   \   000089                ; // Fall through to label ?Subroutine0

   \                                 In  segment BANKED_CODE, align 1, keep-with-next
   \                     ?Subroutine3:
   \   000000   85..82       MOV     DPL,?XSP + 0
   \   000003   85..83       MOV     DPH,?XSP + 1
   \   000006   E582         MOV     A,DPL
   \   000008   25..         ADD     A,?V0 + 0
   \   00000A   F582         MOV     DPL,A
   \   00000C   E583         MOV     A,DPH
   \   00000E   3400         ADDC    A,#0x0
   \   000010   F583         MOV     DPH,A
   \   000012   22           RET

   \                                 In  segment INTVEC, offset 0x6b, root
   \                     `??coinPort1Isr??INTVEC 107`:
   \   00006B   02....       LJMP       (coinPort1Isr)

   \                                 In  segment BANK_RELAYS, align 1
   \                     ??SampleApp_Init?relay:
   \   000000   12....       LCALL   ?BDISPATCH
   \   000003   ......       DC24    SampleApp_Init

   \                                 In  segment BANK_RELAYS, align 1
   \                     ??SampleApp_ProcessEvent?relay:
   \   000000   12....       LCALL   ?BDISPATCH
   \   000003   ......       DC24    SampleApp_ProcessEvent

   \                                 In  segment BANK_RELAYS, align 1
   \                     ??SampleApp_HandleKeys?relay:
   \   000000   12....       LCALL   ?BDISPATCH
   \   000003   ......       DC24    SampleApp_HandleKeys

   \                                 In  segment BANK_RELAYS, align 1
   \                     ??SampleApp_MessageMSGCB?relay:
   \   000000   12....       LCALL   ?BDISPATCH
   \   000003   ......       DC24    SampleApp_MessageMSGCB

   \                                 In  segment BANK_RELAYS, align 1
   \                     ??SampleApp_SendPeriodicMessage?relay:
   \   000000   12....       LCALL   ?BDISPATCH
   \   000003   ......       DC24    SampleApp_SendPeriodicMessage

   \                                 In  segment BANK_RELAYS, align 1
   \                     ??SampleApp_SendHeartBeatMessageCoor?relay:
   \   000000   12....       LCALL   ?BDISPATCH
   \   000003   ......       DC24    SampleApp_SendHeartBeatMessageCoor

   \                                 In  segment BANK_RELAYS, align 1
   \                     ??SampleApp_SendHeartBeatMessageEnd?relay:
   \   000000   12....       LCALL   ?BDISPATCH
   \   000003   ......       DC24    SampleApp_SendHeartBeatMessageEnd

   \                                 In  segment BANK_RELAYS, align 1
   \                     ??AfSendAddrInfo?relay:
   \   000000   12....       LCALL   ?BDISPATCH
   \   000003   ......       DC24    AfSendAddrInfo

   \                                 In  segment BANK_RELAYS, align 1
   \                     ??AfReplyGetCoinCmd?relay:
   \   000000   12....       LCALL   ?BDISPATCH
   \   000003   ......       DC24    AfReplyGetCoinCmd

   \                                 In  segment BANK_RELAYS, align 1
   \                     ??printAddrInfoHex?relay:
   \   000000   12....       LCALL   ?BDISPATCH
   \   000003   ......       DC24    printAddrInfoHex

   \                                 In  segment BANK_RELAYS, align 1
   \                     ??convertHexToStr?relay:
   \   000000   12....       LCALL   ?BDISPATCH
   \   000003   ......       DC24    convertHexToStr

   \                                 In  segment XDATA_ROM_C, align 1
   \                     `?<Constant "P0 interrupt\\n">`:
   \   000000   50302069     DB "P0 interrupt\012"
   \            6E746572
   \            72757074
   \            0A00    

   \                                 In  segment XDATA_ROM_C, align 1
   \                     `?<Constant "Group 1">`:
   \   000000   47726F75     DB "Group 1"
   \            70203100

   \                                 In  segment XDATA_ROM_C, align 1
   \                     `?<Constant {35, 69, 64}>`:
   \   000000   23           DB 35
   \   000001   45           DB 69
   \   000002   40           DB 64

   \                                 In  segment XDATA_ROM_C, align 1
   \                     `?<Constant "ERROR:AF_DATA_CONFIRM...">`:
   \   000000   4552524F     DB "ERROR:AF_DATA_CONFIRM_CMD failed\012"
   \            523A4146
   \            5F444154
   \            415F434F
   \            4E464952
   \            4D5F434D
   \            44206661
   \            696C6564
   \            0A00    

   \                                 In  segment XDATA_ROM_C, align 1
   \                     `?<Constant {35, 49, 0, 64}>`:
   \   000000   23           DB 35
   \   000001   31           DB 49
   \   000002   00           DB 0
   \   000003   40           DB 64

   \                                 In  segment XDATA_ROM_C, align 1
   \                     `?<Constant {35, 70, 64}>`:
   \   000000   23           DB 35
   \   000001   46           DB 70
   \   000002   40           DB 64

   \                                 In  segment XDATA_ROM_C, align 1
   \                     `?<Constant "sendTestCount = %d\\n">`:
   \   000000   73656E64     DB "sendTestCount = %d\012"
   \            54657374
   \            436F756E
   \            74203D20
   \            25640A00

   \                                 In  segment XDATA_ROM_C, align 1
   \                     `?<Constant {0}>`:
   \   000000   00           DB 0
   \   000001   00000000     DB 0, 0, 0, 0, 0, 0, 0, 0
   \            00000000
   \   000009   00000000     DB 0, 0, 0, 0

   \                                 In  segment XDATA_ROM_C, align 1
   \                     `?<Constant {0}>_1`:
   \   000000   00           DB 0
   \   000001   00000000     DB 0, 0, 0, 0, 0, 0, 0, 0
   \            00000000
   \   000009   0000         DB 0, 0

   \                                 In  segment XDATA_ROM_C, align 1
   \                     `?<Constant "\\n">`:
   \   000000   0A00         DB "\012"

   \                                 In  segment XDATA_ROM_C, align 1
   \                     `?<Constant "; IEEE = ">`:
   \   000000   3B204945     DB "; IEEE = "
   \            4545203D
   \            2000    

   \                                 In  segment XDATA_ROM_C, align 1
   \                     `?<Constant "0x%x,">`:
   \   000000   30782578     DB "0x%x,"
   \            2C00    

   Maximum stack usage in bytes:

     Function                       ISTACK PSTACK XSTACK
     --------                       ------ ------ ------
     AfReplyGetCoinCmd                  2      0     31
       -> NLME_GetExtAddr               0      0     44
       -> osal_memcpy                   0      0     50
       -> AF_DataRequest                0      0     62
       -> HalLedBlink                   0      0     44
       -> HalLedBlink                   0      0     44
     AfSendAddrInfo                     2      0     48
       -> NLME_GetShortAddr             0      0     48
       -> NLME_GetExtAddr               0      0     48
       -> osal_memcpy                   0      0     54
       -> AF_DataRequest                0      0     66
       -> HalLedBlink                   0      0     48
       -> HalLedBlink                   0      0     48
     SampleApp_HandleKeys               0      0      0
     SampleApp_Init                     0      0     14
       -> afRegister                    0      0     22
       -> RegisterForKeys               0      0     22
       -> osal_memcpy                   0      0     28
       -> aps_AddGroup                  0      0     22
       -> MT_UartInit                   0      0     22
       -> MT_UartRegisterTaskID         0      0     22
     SampleApp_MessageMSGCB             0      0      0
     SampleApp_ProcessEvent             2      0     15
       -> osal_msg_receive              0      0     30
       -> AfSendAddrInfo                0      0     30
       -> HalLedBlink                   0      0     30
       -> osal_start_timerEx            0      0     30
       -> osal_msg_deallocate           0      0     30
       -> osal_msg_receive              0      0     30
       -> myprintf                      0      0     30
       -> mySendByteBuf                 0      0     30
       -> osal_start_timerEx            0      0     30
       -> HalLedBlink                   0      0     30
       -> HalLedBlink                   0      0     30
     SampleApp_SendHeartBeatMessageCoor
                                        4      0      5
       -> mySendByteBuf                 4      0      6
       -> decAllListEPLeftSec           4      0      6
       -> HalLedBlink                   4      0      6
       -> SampleApp_SendPeriodicMessage
                                        4      0      6
       -> myprintf                      4      0     10
     SampleApp_SendHeartBeatMessageEnd
                                        2      0      0
       -> AfSendAddrInfo                4      0      0
     SampleApp_SendPeriodicMessage      2      0     26
       -> AF_DataRequest                0      0     46
       -> HalLedBlink                   0      0     28
     coinPort1Isr                       0      0     14
       -> myprintf                      0      0     28
     convertHexToStr                    1      0     18
       -> HalLcdWriteString             0      0     36
     printAddrInfoHex                   0      0     15
       -> myprintf                      0      0     26
       -> myprintf                      0      0     26
       -> myprintf                      0      0     30
       -> myprintf                      0      0     26


   Segment part sizes:

     Function/Label                             Bytes
     --------------                             -----
     _A_P0                                         1
     P0IFG                                         1
     _A_IRCON                                      1
     P0SEL                                         1
     P0DIR                                         1
     SampleApp_ClusterList                         8
     SampleApp_SimpleDesc                         12
     SampleApp_epDesc                              6
     GenericApp_DstAddr                           12
     EndPoint_DstAddr                             12
     SampleApp_TaskID                              1
     SampleApp_NwkState                            1
     SampleApp_TransID                             1
     SampleApp_Periodic_DstAddr                   12
     SampleApp_TxAddr                             12
     SampleApp_Group                              18
     SampleAppPeriodicCounter                      1
     SampleAppFlashCounter                         1
     LL                                            2
     NeedCoinDelivered                             1
     coinPort1Isr                                 24
     SampleApp_Init                              192
     ??Subroutine5_0                               5
     SampleApp_ProcessEvent                      230
     ?Subroutine4                                 13
     SampleApp_HandleKeys                          3
     recvTestMsgCount                              2
     SampleApp_MessageMSGCB                        3
     SampleApp_SendPeriodicMessage               136
     totalSendTestCount                            2
     sendTestCount                                 2
     SampleApp_SendHeartBeatMessageCoor
                                                 118
     ?Subroutine1                                  7
     SampleApp_SendHeartBeatMessageEnd
                                                  11
     AfSendAddrInfo                              205
     ?Subroutine2                                 14
     ?Subroutine0                                  3
     AfReplyGetCoinCmd                           185
     printAddrInfoHex                            119
     convertHexToStr                             137
     ?Subroutine3                                 19
     ??coinPort1Isr??INTVEC 107                    3
     ??SampleApp_Init?relay                        6
     ??SampleApp_ProcessEvent?relay                6
     ??SampleApp_HandleKeys?relay                  6
     ??SampleApp_MessageMSGCB?relay                6
     ??SampleApp_SendPeriodicMessage?relay         6
     ??SampleApp_SendHeartBeatMessageCoor?relay    6
     ??SampleApp_SendHeartBeatMessageEnd?relay     6
     ??AfSendAddrInfo?relay                        6
     ??AfReplyGetCoinCmd?relay                     6
     ??printAddrInfoHex?relay                      6
     ??convertHexToStr?relay                       6
     ?<Constant "P0 interrupt\n">                 14
     ?<Constant "Group 1">                         8
     ?<Constant {35, 69, 64}>                      3
     ?<Constant "ERROR:AF_DATA_CONFIRM...">       34
     ?<Constant {35, 49, 0, 64}>                   4
     ?<Constant {35, 70, 64}>                      3
     ?<Constant "sendTestCount = %d\n">           20
     ?<Constant {0}>                              13
     ?<Constant {0}>_1                            11
     ?<Constant "\n">                              2
     ?<Constant "; IEEE = ">                      10
     ?<Constant "0x%x,">                           6

 
 1 400 bytes in segment BANKED_CODE
    66 bytes in segment BANK_RELAYS
     3 bytes in segment INTVEC
    24 bytes in segment NEAR_CODE
     5 bytes in segment SFR_AN
   148 bytes in segment XDATA_ROM_C
    86 bytes in segment XDATA_Z
 
 1 490 bytes of CODE  memory (+ 3 bytes shared)
   148 bytes of CONST memory
     0 bytes of DATA  memory (+ 5 bytes shared)
    86 bytes of XDATA memory

Errors: none
Warnings: none
