###############################################################################
#                                                                             #
# IAR C/C++ Compiler V8.10.3.10338/W32 for 8051         29/May/2019  14:22:48 #
# Copyright 2004-2011 IAR Systems AB.                                         #
#                                                                             #
#    Core               =  plain                                              #
#    Code model         =  banked                                             #
#    Data model         =  large                                              #
#    Calling convention =  xdata reentrant                                    #
#    Constant location  =  data_rom                                           #
#    Dptr setup         =  1,16                                               #
#    Source file        =  E:\Github_Repository\zigbee-net-tech\ZStack-2.5.1a #
#                          \Projects\zstack\Samples\SampleApp\Source\SampleAp #
#                          p.c                                                #
#    Command line       =  -f E:\Github_Repository\zigbee-net-tech\ZStack-2.5 #
#                          .1a\Projects\zstack\Samples\SampleApp\CC2530DB\..\ #
#                          ..\..\Tools\CC2530DB\f8wCoord.cfg (-DCPU32MHZ      #
#                          -DROOT=__near_func -DMAC_CFG_APP_PENDING_QUEUE=TRU #
#                          E -DMAC_CFG_TX_DATA_MAX=5 -DMAC_CFG_TX_MAX=8       #
#                          -DMAC_CFG_RX_MAX=5 -DZDO_COORDINATOR -DRTR_NWK)    #
#                          -f E:\Github_Repository\zigbee-net-tech\ZStack-2.5 #
#                          .1a\Projects\zstack\Samples\SampleApp\CC2530DB\..\ #
#                          ..\..\Tools\CC2530DB\f8wConfig.cfg (-DZIGBEEPRO    #
#                          -DSECURE=0 -DZG_SECURE_DYNAMIC=0 -DREFLECTOR       #
#                          -DDEFAULT_CHANLIST=0x00000800                      #
#                          -DZDAPP_CONFIG_PAN_ID=0xFFF1                       #
#                          -DNWK_START_DELAY=100 -DEXTENDED_JOINING_RANDOM_MA #
#                          SK=0x007F -DBEACON_REQUEST_DELAY=100               #
#                          -DBEACON_REQ_DELAY_MASK=0x00FF                     #
#                          -DLINK_STATUS_JITTER_MASK=0x007F                   #
#                          -DROUTE_EXPIRY_TIME=30 -DAPSC_ACK_WAIT_DURATION_PO #
#                          LLED=3000 -DNWK_INDIRECT_MSG_TIMEOUT=7             #
#                          -DMAX_RREQ_ENTRIES=8 -DAPSC_MAX_FRAME_RETRIES=3    #
#                          -DNWK_MAX_DATA_RETRIES=2                           #
#                          -DMAX_POLL_FAILURE_RETRIES=2 -DMAX_BCAST=9         #
#                          -DAPS_MAX_GROUPS=16 -DMAX_RTG_ENTRIES=40           #
#                          -DNWK_MAX_BINDING_ENTRIES=4                        #
#                          -DMAX_BINDING_CLUSTER_IDS=4 "-DDEFAULT_KEY={0x01,  #
#                          0x03, 0x05, 0x07, 0x09, 0x0B, 0x0D, 0x0F, 0x00,    #
#                          0x02, 0x04, 0x06, 0x08, 0x0A, 0x0C, 0x0D}"         #
#                          -DMAC_MAX_FRAME_SIZE=116                           #
#                          -DZDNWKMGR_MIN_TRANSMISSIONS=20 "-DCONST=const     #
#                          __code" -DGENERIC=__generic                        #
#                          -DRFD_RCVC_ALWAYS_ON=FALSE -DPOLL_RATE=1000        #
#                          -DQUEUED_POLL_RATE=100 -DRESPONSE_POLL_RATE=100)   #
#                          -DREJOIN_POLL_RATE=440 E:\Github_Repository\zigbee #
#                          -net-tech\ZStack-2.5.1a\Projects\zstack\Samples\Sa #
#                          mpleApp\Source\SampleApp.c -D ZTOOL_P1 -D          #
#                          xMT_TASK -D xMT_SYS_FUNC -D xMT_ZDO_FUNC -lC       #
#                          E:\Github_Repository\zigbee-net-tech\ZStack-2.5.1a #
#                          \Projects\zstack\Samples\SampleApp\CC2530DB\Coordi #
#                          natorEB\List\ -lA E:\Github_Repository\zigbee-net- #
#                          tech\ZStack-2.5.1a\Projects\zstack\Samples\SampleA #
#                          pp\CC2530DB\CoordinatorEB\List\ --diag_suppress    #
#                          Pe001,Pa010 -o E:\Github_Repository\zigbee-net-tec #
#                          h\ZStack-2.5.1a\Projects\zstack\Samples\SampleApp\ #
#                          CC2530DB\CoordinatorEB\Obj\ -e --no_code_motion    #
#                          --debug --core=plain --dptr=16,1                   #
#                          --data_model=large --code_model=banked             #
#                          --calling_convention=xdata_reentrant               #
#                          --place_constants=data_rom --nr_virtual_regs 16    #
#                          -I E:\Github_Repository\zigbee-net-tech\ZStack-2.5 #
#                          .1a\Projects\zstack\Samples\SampleApp\CC2530DB\    #
#                          -I E:\Github_Repository\zigbee-net-tech\ZStack-2.5 #
#                          .1a\Projects\zstack\Samples\SampleApp\CC2530DB\..\ #
#                          Source\ -I E:\Github_Repository\zigbee-net-tech\ZS #
#                          tack-2.5.1a\Projects\zstack\Samples\SampleApp\CC25 #
#                          30DB\..\..\..\ZMain\TI2530DB\ -I                   #
#                          E:\Github_Repository\zigbee-net-tech\ZStack-2.5.1a #
#                          \Projects\zstack\Samples\SampleApp\CC2530DB\..\..\ #
#                          ..\..\..\Components\hal\include\ -I                #
#                          E:\Github_Repository\zigbee-net-tech\ZStack-2.5.1a #
#                          \Projects\zstack\Samples\SampleApp\CC2530DB\..\..\ #
#                          ..\..\..\Components\hal\target\CC2530EB\ -I        #
#                          E:\Github_Repository\zigbee-net-tech\ZStack-2.5.1a #
#                          \Projects\zstack\Samples\SampleApp\CC2530DB\..\..\ #
#                          ..\..\..\Components\mac\include\ -I                #
#                          E:\Github_Repository\zigbee-net-tech\ZStack-2.5.1a #
#                          \Projects\zstack\Samples\SampleApp\CC2530DB\..\..\ #
#                          ..\..\..\Components\mac\high_level\ -I             #
#                          E:\Github_Repository\zigbee-net-tech\ZStack-2.5.1a #
#                          \Projects\zstack\Samples\SampleApp\CC2530DB\..\..\ #
#                          ..\..\..\Components\mac\low_level\srf04\ -I        #
#                          E:\Github_Repository\zigbee-net-tech\ZStack-2.5.1a #
#                          \Projects\zstack\Samples\SampleApp\CC2530DB\..\..\ #
#                          ..\..\..\Components\mac\low_level\srf04\single_chi #
#                          p\ -I E:\Github_Repository\zigbee-net-tech\ZStack- #
#                          2.5.1a\Projects\zstack\Samples\SampleApp\CC2530DB\ #
#                          ..\..\..\..\..\Components\mt\ -I                   #
#                          E:\Github_Repository\zigbee-net-tech\ZStack-2.5.1a #
#                          \Projects\zstack\Samples\SampleApp\CC2530DB\..\..\ #
#                          ..\..\..\Components\osal\include\ -I               #
#                          E:\Github_Repository\zigbee-net-tech\ZStack-2.5.1a #
#                          \Projects\zstack\Samples\SampleApp\CC2530DB\..\..\ #
#                          ..\..\..\Components\services\saddr\ -I             #
#                          E:\Github_Repository\zigbee-net-tech\ZStack-2.5.1a #
#                          \Projects\zstack\Samples\SampleApp\CC2530DB\..\..\ #
#                          ..\..\..\Components\services\sdata\ -I             #
#                          E:\Github_Repository\zigbee-net-tech\ZStack-2.5.1a #
#                          \Projects\zstack\Samples\SampleApp\CC2530DB\..\..\ #
#                          ..\..\..\Components\stack\af\ -I                   #
#                          E:\Github_Repository\zigbee-net-tech\ZStack-2.5.1a #
#                          \Projects\zstack\Samples\SampleApp\CC2530DB\..\..\ #
#                          ..\..\..\Components\stack\nwk\ -I                  #
#                          E:\Github_Repository\zigbee-net-tech\ZStack-2.5.1a #
#                          \Projects\zstack\Samples\SampleApp\CC2530DB\..\..\ #
#                          ..\..\..\Components\stack\sapi\ -I                 #
#                          E:\Github_Repository\zigbee-net-tech\ZStack-2.5.1a #
#                          \Projects\zstack\Samples\SampleApp\CC2530DB\..\..\ #
#                          ..\..\..\Components\stack\sec\ -I                  #
#                          E:\Github_Repository\zigbee-net-tech\ZStack-2.5.1a #
#                          \Projects\zstack\Samples\SampleApp\CC2530DB\..\..\ #
#                          ..\..\..\Components\stack\sys\ -I                  #
#                          E:\Github_Repository\zigbee-net-tech\ZStack-2.5.1a #
#                          \Projects\zstack\Samples\SampleApp\CC2530DB\..\..\ #
#                          ..\..\..\Components\stack\zdo\ -I                  #
#                          E:\Github_Repository\zigbee-net-tech\ZStack-2.5.1a #
#                          \Projects\zstack\Samples\SampleApp\CC2530DB\..\..\ #
#                          ..\..\..\Components\zmac\ -I                       #
#                          E:\Github_Repository\zigbee-net-tech\ZStack-2.5.1a #
#                          \Projects\zstack\Samples\SampleApp\CC2530DB\..\..\ #
#                          ..\..\..\Components\zmac\f8w\ -Ohz                 #
#                          --require_prototypes                               #
#    List file          =  E:\Github_Repository\zigbee-net-tech\ZStack-2.5.1a #
#                          \Projects\zstack\Samples\SampleApp\CC2530DB\Coordi #
#                          natorEB\List\SampleApp.lst                         #
#    Object file        =  E:\Github_Repository\zigbee-net-tech\ZStack-2.5.1a #
#                          \Projects\zstack\Samples\SampleApp\CC2530DB\Coordi #
#                          natorEB\Obj\SampleApp.r51                          #
#                                                                             #
#                                                                             #
###############################################################################

E:\Github_Repository\zigbee-net-tech\ZStack-2.5.1a\Projects\zstack\Samples\SampleApp\Source\SampleApp.c
      1          /**************************************************************************************************
      2          Filename:       SampleApp.c
      3          Revised:        $Date: 2009-03-18 15:56:27 -0700 (Wed, 18 Mar 2009) $
      4          Revision:       $Revision: 19453 $
      5          
      6          Description:    Sample Application (no Profile).
      7          
      8          
      9          Copyright 2007 Texas Instruments Incorporated. All rights reserved.
     10          
     11          IMPORTANT: Your use of this Software is limited to those specific rights
     12          granted under the terms of a software license agreement between the user
     13          who downloaded the software, his/her employer (which must be your employer)
     14          and Texas Instruments Incorporated (the "License").  You may not use this
     15          Software unless you agree to abide by the terms of the License. The License
     16          limits your use, and you acknowledge, that the Software may not be modified,
     17          copied or distributed unless embedded on a Texas Instruments microcontroller
     18          or used solely and exclusively in conjunction with a Texas Instruments radio
     19          frequency transceiver, which is integrated into your product.  Other than for
     20          the foregoing purpose, you may not use, reproduce, copy, prepare derivative
     21          works of, modify, distribute, perform, display or sell this Software and/or
     22          its documentation for any purpose.
     23          
     24          YOU FURTHER ACKNOWLEDGE AND AGREE THAT THE SOFTWARE AND DOCUMENTATION ARE
     25          PROVIDED AS IS?WITHOUT WARRANTY OF ANY KIND, EITHER EXPRESS OR IMPLIED,
     26          INCLUDING WITHOUT LIMITATION, ANY WARRANTY OF MERCHANTABILITY, TITLE,
     27          NON-INFRINGEMENT AND FITNESS FOR A PARTICULAR PURPOSE. IN NO EVENT SHALL
     28          TEXAS INSTRUMENTS OR ITS LICENSORS BE LIABLE OR OBLIGATED UNDER CONTRACT,
     29          NEGLIGENCE, STRICT LIABILITY, CONTRIBUTION, BREACH OF WARRANTY, OR OTHER
     30          LEGAL EQUITABLE THEORY ANY DIRECT OR INDIRECT DAMAGES OR EXPENSES
     31          INCLUDING BUT NOT LIMITED TO ANY INCIDENTAL, SPECIAL, INDIRECT, PUNITIVE
     32          OR CONSEQUENTIAL DAMAGES, LOST PROFITS OR LOST DATA, COST OF PROCUREMENT
     33          OF SUBSTITUTE GOODS, TECHNOLOGY, SERVICES, OR ANY CLAIMS BY THIRD PARTIES
     34          (INCLUDING BUT NOT LIMITED TO ANY DEFENSE THEREOF), OR OTHER SIMILAR COSTS.
     35          
     36          Should you have any questions regarding your right to use this Software,
     37          contact Texas Instruments Incorporated at www.TI.com.
     38          **************************************************************************************************/
     39          
     40          /*********************************************************************
     41          This application isn't intended to do anything useful, it is
     42          intended to be a simple example of an application's structure.
     43          
     44          This application sends it's messages either as broadcast or
     45          broadcast filtered group messages.  The other (more normal)
     46          message addressing is unicast.  Most of the other sample
     47          applications are written to support the unicast message model.
     48          
     49          Key control:
     50          SW1:  Sends a flash command to all devices in Group 1.
     51          SW2:  Adds/Removes (toggles) this device in and out
     52          of Group 1.  This will enable and disable the
     53          reception of the flash command.
     54          *********************************************************************/
     55          
     56          /*********************************************************************
     57          * INCLUDES
     58          */
     59          #include "OSAL.h"
     60          #include "ZGlobals.h"
     61          #include "AF.h"
     62          #include "aps_groups.h"
     63          #include "ZDObject.h"
     64          #include "ZDProfile.h"
     65          #include "ZDApp.h"
     66          
     67          #include "SampleApp.h"
     68          #include "SampleAppHw.h"
     69          #include "SinglyLinkedList.h"
     70          
     71          #include "OnBoard.h"

   \                                 In  segment SFR_AN, at 0x80
   \   union <unnamed> volatile __sfr _A_P0
   \                     _A_P0:
   \   000000                DS 1

   \                                 In  segment SFR_AN, at 0xf3
   \   unsigned char volatile __sfr P0SEL
   \                     P0SEL:
   \   000000                DS 1

   \                                 In  segment SFR_AN, at 0xfd
   \   unsigned char volatile __sfr P0DIR
   \                     P0DIR:
   \   000000                DS 1
     72          
     73          /* HAL */
     74          #include "hal_lcd.h"
     75          #include "hal_led.h"
     76          #include "hal_key.h"
     77          
     78          #include "MT_UART.h"
     79          #include "MT_APP.h"
     80          #include "MT.h"
     81          
     82          /*********************************************************************
     83          * MACROS
     84          */
     85          #define DATA_PIN P0_5            //定义P0.5口为继电器的控制端
     86          #define UART0        0x00
     87          
     88          // This list should be filled with Application specific Cluster IDs.

   \                                 In  segment XDATA_ROM_C, align 1
     89          const cId_t SampleApp_ClusterList[SAMPLEAPP_MAX_CLUSTERS] =
   \                     SampleApp_ClusterList:
   \   000000   0100         DW 1
   \   000002   0200         DW 2
   \   000004   0000         DW 0
   \   000006   0000         DW 0
     90          {
     91            SAMPLEAPP_PERIODIC_CLUSTERID,
     92            SAMPLEAPP_FLASH_CLUSTERID
     93          };
     94          

   \                                 In  segment XDATA_ROM_C, align 1
     95          const SimpleDescriptionFormat_t SampleApp_SimpleDesc =
   \                     SampleApp_SimpleDesc:
   \   000000   14           DB 20
   \   000001   080F         DW 3848
   \   000003   0100         DW 1
   \   000005   00           DB 0
   \   000006   04           DB 4
   \   000007   ....         DW SampleApp_ClusterList
   \   000009   04           DB 4
   \   00000A   ....         DW SampleApp_ClusterList
     96          {
     97            SAMPLEAPP_ENDPOINT,              //  int Endpoint;
     98            SAMPLEAPP_PROFID,                //  uint16 AppProfId[2];
     99            SAMPLEAPP_DEVICEID,              //  uint16 AppDeviceId[2];
    100            SAMPLEAPP_DEVICE_VERSION,        //  int   AppDevVer:4;
    101            SAMPLEAPP_FLAGS,                 //  int   AppFlags:4;
    102            SAMPLEAPP_MAX_CLUSTERS,          //  uint8  AppNumInClusters;
    103            (cId_t *)SampleApp_ClusterList,  //  uint8 *pAppInClusterList;
    104            SAMPLEAPP_MAX_CLUSTERS,          //  uint8  AppNumInClusters;
    105            (cId_t *)SampleApp_ClusterList   //  uint8 *pAppInClusterList;
    106          };
    107          
    108          // This is the Endpoint/Interface description.  It is defined here, but
    109          // filled-in in SampleApp_Init().  Another way to go would be to fill
    110          // in the structure here and make it a "const" (in code space).  The
    111          // way it's defined in this sample app it is define in RAM.

   \                                 In  segment XDATA_Z, align 1, keep-with-next
    112          endPointDesc_t SampleApp_epDesc;
   \                     SampleApp_epDesc:
   \   000000                DS 6
   \   000006                REQUIRE __INIT_XDATA_Z

   \                                 In  segment XDATA_Z, align 1, keep-with-next
    113          afAddrType_t GenericApp_DstAddr;
   \                     GenericApp_DstAddr:
   \   000000                DS 12
   \   00000C                REQUIRE __INIT_XDATA_Z

   \                                 In  segment XDATA_Z, align 1, keep-with-next
    114          afAddrType_t EndPoint_DstAddr;
   \                     EndPoint_DstAddr:
   \   000000                DS 12
   \   00000C                REQUIRE __INIT_XDATA_Z
    115          
    116          /*********************************************************************
    117          * LOCAL VARIABLES
    118          */

   \                                 In  segment XDATA_Z, align 1, keep-with-next
    119          uint8 SampleApp_TaskID;   // Task ID for internal task/event processing
   \                     SampleApp_TaskID:
   \   000000                DS 1
   \   000001                REQUIRE __INIT_XDATA_Z
    120          // This variable will be received when
    121          // SampleApp_Init() is called.

   \                                 In  segment XDATA_Z, align 1, keep-with-next
    122          devStates_t SampleApp_NwkState;
   \                     SampleApp_NwkState:
   \   000000                DS 1
   \   000001                REQUIRE __INIT_XDATA_Z
    123          

   \                                 In  segment XDATA_Z, align 1, keep-with-next
    124          uint8 SampleApp_TransID;  // This is the unique message ID (counter)
   \                     SampleApp_TransID:
   \   000000                DS 1
   \   000001                REQUIRE __INIT_XDATA_Z
    125          

   \                                 In  segment XDATA_Z, align 1, keep-with-next
    126          afAddrType_t SampleApp_Periodic_DstAddr; // 用于协调器广播消息
   \                     SampleApp_Periodic_DstAddr:
   \   000000                DS 12
   \   00000C                REQUIRE __INIT_XDATA_Z

   \                                 In  segment XDATA_Z, align 1, keep-with-next
    127          afAddrType_t SampleApp_TxAddr; // 用于终端设备向协调器报告短地址信息
   \                     SampleApp_TxAddr:
   \   000000                DS 12
   \   00000C                REQUIRE __INIT_XDATA_Z
    128          

   \                                 In  segment XDATA_Z, align 1, keep-with-next
    129          aps_Group_t SampleApp_Group;
   \                     SampleApp_Group:
   \   000000                DS 18
   \   000012                REQUIRE __INIT_XDATA_Z

   \                                 In  segment XDATA_Z, align 1, keep-with-next
    130          uint8 SampleAppPeriodicCounter = 0;
   \                     SampleAppPeriodicCounter:
   \   000000                DS 1
   \   000001                REQUIRE __INIT_XDATA_Z

   \                                 In  segment XDATA_Z, align 1, keep-with-next
    131          uint8 SampleAppFlashCounter = 0;
   \                     SampleAppFlashCounter:
   \   000000                DS 1
   \   000001                REQUIRE __INIT_XDATA_Z
    132          

   \                                 In  segment XDATA_Z, align 1, keep-with-next
    133          LinkList LL; // 定义线性链表存储终端地址以及心跳信息
   \                     LL:
   \   000000                DS 2
   \   000002                REQUIRE __INIT_XDATA_Z
    134          
    135          /*********************************************************************
    136          * LOCAL FUNCTIONS
    137          */
    138          void AfSendAddrInfo(uint8 cmd);
    139          void AfReplyGetCoinCmd(void);
    140          void SampleApp_HandleKeys( uint8 shift, uint8 keys );
    141          void SampleApp_MessageMSGCB( afIncomingMSGPacket_t *pckt );
    142          void SampleApp_SendPeriodicMessage( int8 whichKey );
    143          void SampleApp_SendHeartBeatMessageCoor(void);
    144          void SampleApp_SendHeartBeatMessageEnd(void);
    145          
    146          /**
    147          * 自定义任务初始化函数
    148          */

   \                                 In  segment BANKED_CODE, align 1, keep-with-next
    149          void SampleApp_Init( uint8 task_id )
   \                     SampleApp_Init:
    150          {
   \   000000   74F5         MOV     A,#-0xb
   \   000002   12....       LCALL   ?BANKED_ENTER_XDATA
   \   000005                ; Saved register size: 11
   \   000005                ; Auto size: 0
   \   000005   E9           MOV     A,R1
   \   000006   FE           MOV     R6,A
    151            halUARTCfg_t uartConfig;
    152            
    153            SampleApp_TaskID = task_id;
   \   000007   90....       MOV     DPTR,#SampleApp_TaskID
   \   00000A   F0           MOVX    @DPTR,A
    154            SampleApp_NwkState = DEV_INIT;
   \   00000B   90....       MOV     DPTR,#SampleApp_NwkState
   \   00000E   7401         MOV     A,#0x1
   \   000010   F0           MOVX    @DPTR,A
    155            SampleApp_TransID = 0;
   \   000011   90....       MOV     DPTR,#SampleApp_TransID
   \   000014   E4           CLR     A
   \   000015   F0           MOVX    @DPTR,A
    156            
    157            P0SEL &= ~0x20;               //设置P0.5口为普通IO
   \   000016   53F3DF       ANL     0xf3,#0xdf
    158            P0DIR |= 0x20;                //设置P0.5口为输出
   \   000019   43FD20       ORL     0xfd,#0x20
    159            DATA_PIN = 0;                 //继电器默认断开 继电器默认是高电平触发可自行切换
   \   00001C   C285         CLR     0x80.5
    160            
    161          #if defined ( BUILD_ALL_DEVICES )
    162            // The "Demo" target is setup to have BUILD_ALL_DEVICES and HOLD_AUTO_START
    163            // We are looking at a jumper (defined in SampleAppHw.c) to be jumpered
    164            // together - if they are - we will start up a coordinator. Otherwise,
    165            // the device will start as a router.
    166            if ( readCoordinatorJumper() )
    167              zgDeviceLogicalType = ZG_DEVICETYPE_COORDINATOR;
    168            else
    169              zgDeviceLogicalType = ZG_DEVICETYPE_ROUTER;
    170          #endif // BUILD_ALL_DEVICES
    171            
    172          #if defined ( HOLD_AUTO_START )
    173            // HOLD_AUTO_START is a compile option that will surpress ZDApp
    174            //  from starting the device and wait for the application to
    175            //  start the device.
    176            ZDOInitDevice(0);
    177          #endif
    178            
    179            GenericApp_DstAddr.addrMode = (afAddrMode_t)AddrNotPresent;
   \   00001E   90....       MOV     DPTR,#GenericApp_DstAddr + 8
   \   000021   F0           MOVX    @DPTR,A
    180            GenericApp_DstAddr.endPoint = 0;
   \   000022   A3           INC     DPTR
   \   000023   F0           MOVX    @DPTR,A
    181            GenericApp_DstAddr.addr.shortAddr = 0;
   \   000024   90....       MOV     DPTR,#GenericApp_DstAddr
   \   000027   F0           MOVX    @DPTR,A
   \   000028   A3           INC     DPTR
   \   000029   F0           MOVX    @DPTR,A
    182            
    183            // Setup for the periodic message's destination address
    184            // Broadcast to everyone
    185            // 协调器广播发送数据到终端
    186            SampleApp_Periodic_DstAddr.addrMode = (afAddrMode_t)AddrBroadcast;
   \   00002A   90....       MOV     DPTR,#SampleApp_Periodic_DstAddr + 8
   \   00002D   740F         MOV     A,#0xf
   \   00002F   F0           MOVX    @DPTR,A
    187            SampleApp_Periodic_DstAddr.endPoint = SAMPLEAPP_ENDPOINT;
   \   000030   A3           INC     DPTR
   \   000031   7414         MOV     A,#0x14
   \   000033   F0           MOVX    @DPTR,A
    188            SampleApp_Periodic_DstAddr.addr.shortAddr = 0xFFFF; // 广播地址
   \   000034   90....       MOV     DPTR,#SampleApp_Periodic_DstAddr
   \   000037   74FF         MOV     A,#-0x1
   \   000039   F0           MOVX    @DPTR,A
   \   00003A   A3           INC     DPTR
   \   00003B   F0           MOVX    @DPTR,A
    189            
    190            // 终端单播发送数据到协调器
    191            SampleApp_TxAddr.addrMode = (afAddrMode_t)Addr16Bit;
   \   00003C   90....       MOV     DPTR,#SampleApp_TxAddr + 8
   \   00003F   7402         MOV     A,#0x2
   \   000041   F0           MOVX    @DPTR,A
    192            SampleApp_TxAddr.endPoint = SAMPLEAPP_ENDPOINT;
   \   000042   A3           INC     DPTR
   \   000043   7414         MOV     A,#0x14
   \   000045   F0           MOVX    @DPTR,A
    193            SampleApp_TxAddr.addr.shortAddr = 0x00; // 单播协调器地址
   \   000046   90....       MOV     DPTR,#SampleApp_TxAddr
   \   000049   E4           CLR     A
   \   00004A   F0           MOVX    @DPTR,A
   \   00004B   A3           INC     DPTR
   \   00004C   F0           MOVX    @DPTR,A
    194            
    195            // 协调器单播发送到指定地址的终端上  
    196            EndPoint_DstAddr.addrMode = (afAddrMode_t)Addr16Bit;
   \   00004D   90....       MOV     DPTR,#EndPoint_DstAddr + 8
   \   000050   7402         MOV     A,#0x2
   \   000052   F0           MOVX    @DPTR,A
    197            EndPoint_DstAddr.endPoint = SAMPLEAPP_ENDPOINT;
   \   000053   A3           INC     DPTR
   \   000054   7414         MOV     A,#0x14
   \   000056   F0           MOVX    @DPTR,A
    198            EndPoint_DstAddr.addr.shortAddr = 0x00; // 在发送的时候修改终端地址
   \   000057   90....       MOV     DPTR,#EndPoint_DstAddr
   \   00005A   E4           CLR     A
   \   00005B   F0           MOVX    @DPTR,A
   \   00005C   A3           INC     DPTR
   \   00005D   F0           MOVX    @DPTR,A
    199              
    200            
    201            // Fill out the endpoint description.
    202            SampleApp_epDesc.endPoint = SAMPLEAPP_ENDPOINT; // 端点号
   \   00005E   90....       MOV     DPTR,#SampleApp_epDesc
   \   000061   7414         MOV     A,#0x14
   \   000063   F0           MOVX    @DPTR,A
    203            SampleApp_epDesc.task_id = &SampleApp_TaskID; // 端点对应的任务
   \   000064   A3           INC     DPTR
   \   000065   74..         MOV     A,#SampleApp_TaskID & 0xff
   \   000067   F0           MOVX    @DPTR,A
   \   000068   A3           INC     DPTR
   \   000069   74..         MOV     A,#(SampleApp_TaskID >> 8) & 0xff
   \   00006B   F0           MOVX    @DPTR,A
    204            SampleApp_epDesc.simpleDesc = (SimpleDescriptionFormat_t *)&SampleApp_SimpleDesc; // 简单描述符
   \   00006C   A3           INC     DPTR
   \   00006D   74..         MOV     A,#SampleApp_SimpleDesc & 0xff
   \   00006F   F0           MOVX    @DPTR,A
   \   000070   A3           INC     DPTR
   \   000071   74..         MOV     A,#(SampleApp_SimpleDesc >> 8) & 0xff
   \   000073   F0           MOVX    @DPTR,A
    205            SampleApp_epDesc.latencyReq = noLatencyReqs;  
   \   000074   A3           INC     DPTR
   \   000075   E4           CLR     A
   \   000076   F0           MOVX    @DPTR,A
    206            afRegister( &SampleApp_epDesc ); // 注册一个应用的端点描述符，注册一个新的端点到任务，这样当有新的消息到来时直接发送到指定的任务中
   \   000077                ; Setup parameters for call to function afRegister
   \   000077   7A..         MOV     R2,#SampleApp_epDesc & 0xff
   \   000079   7B..         MOV     R3,#(SampleApp_epDesc >> 8) & 0xff
   \   00007B   12....       LCALL   ??afRegister?relay
    207            
    208            // 绑定按键事件到任务ID
    209            RegisterForKeys( SampleApp_TaskID );
   \   00007E                ; Setup parameters for call to function RegisterForKeys
   \   00007E   90....       MOV     DPTR,#SampleApp_TaskID
   \   000081   E0           MOVX    A,@DPTR
   \   000082   F9           MOV     R1,A
   \   000083   12....       LCALL   ??RegisterForKeys?relay
    210            
    211            // By default, all devices start out in Group 1
    212            SampleApp_Group.ID = 0x0001;
   \   000086   90....       MOV     DPTR,#SampleApp_Group
   \   000089   7401         MOV     A,#0x1
   \   00008B   F0           MOVX    @DPTR,A
   \   00008C   A3           INC     DPTR
   \   00008D   E4           CLR     A
   \   00008E   F0           MOVX    @DPTR,A
    213            osal_memcpy( SampleApp_Group.name, "Group 1", 7 );
   \   00008F                ; Setup parameters for call to function osal_memcpy
   \   00008F   75....       MOV     ?V0 + 0,#`?<Constant "Group 1">` & 0xff
   \   000092   75....       MOV     ?V0 + 1,#(`?<Constant "Group 1">` >> 8) & 0xff
   \   000095   F5..         MOV     ?V0 + 2,A
   \   000097   78..         MOV     R0,#?V0 + 0
   \   000099   12....       LCALL   ?PUSH_XSTACK_I_THREE
   \   00009C   7C07         MOV     R4,#0x7
   \   00009E   7D00         MOV     R5,#0x0
   \   0000A0   7A..         MOV     R2,#(SampleApp_Group + 2) & 0xff
   \   0000A2   7B..         MOV     R3,#((SampleApp_Group + 2) >> 8) & 0xff
   \   0000A4   12....       LCALL   ??osal_memcpy?relay
   \   0000A7   7403         MOV     A,#0x3
   \   0000A9   12....       LCALL   ?DEALLOC_XSTACK8
    214            aps_AddGroup( SAMPLEAPP_ENDPOINT, &SampleApp_Group );
   \   0000AC                ; Setup parameters for call to function aps_AddGroup
   \   0000AC   7A..         MOV     R2,#SampleApp_Group & 0xff
   \   0000AE   7B..         MOV     R3,#(SampleApp_Group >> 8) & 0xff
   \   0000B0   7914         MOV     R1,#0x14
   \   0000B2   12....       LCALL   ??aps_AddGroup?relay
    215            
    216            // 初始化串口
    217            MT_UartInit();                    //串口初始化
   \   0000B5                ; Setup parameters for call to function MT_UartInit
   \   0000B5   12....       LCALL   ??MT_UartInit?relay
    218            MT_UartRegisterTaskID(task_id);   //注册串口任务
   \   0000B8                ; Setup parameters for call to function MT_UartRegisterTaskID
   \   0000B8   EE           MOV     A,R6
   \   0000B9   F9           MOV     R1,A
   \   0000BA   12....       LCALL   ??MT_UartRegisterTaskID?relay
    219            myprintf("UartInit OK\n");
   \   0000BD                ; Setup parameters for call to function myprintf
   \   0000BD   7A..         MOV     R2,#`?<Constant "UartInit OK\\n">` & 0xff
   \   0000BF   7B..         MOV     R3,#(`?<Constant "UartInit OK\\n">` >> 8) & 0xff
   \   0000C1   12....       LCALL   ??myprintf?relay
    220            
    221            int ret = InitList_L(&LL); // 单链表初始化
    222            if(ret == OVERFLOW) {
   \   0000C4                ; Setup parameters for call to function InitList_L
   \   0000C4   7A..         MOV     R2,#LL & 0xff
   \   0000C6   7B..         MOV     R3,#(LL >> 8) & 0xff
   \   0000C8   12....       LCALL   ??InitList_L?relay
   \   0000CB   8A..         MOV     ?V0 + 0,R2
   \   0000CD   8B..         MOV     ?V0 + 1,R3
   \   0000CF   74FE         MOV     A,#-0x2
   \   0000D1   65..         XRL     A,?V0 + 0
   \   0000D3   7004         JNZ     ??SampleApp_Init_0
   \   0000D5   74FF         MOV     A,#-0x1
   \   0000D7   65..         XRL     A,?V0 + 1
   \                     ??SampleApp_Init_0:
   \   0000D9   7007         JNZ     ??SampleApp_Init_1
    223              myprintf("InitList_L OVERFLOW\n");
   \   0000DB                ; Setup parameters for call to function myprintf
   \   0000DB   7A..         MOV     R2,#`?<Constant "InitList_L OVERFLOW\\n">` & 0xff
   \   0000DD   7B..         MOV     R3,#(`?<Constant "InitList_L OVERFLOW\\n">` >> 8) & 0xff
   \   0000DF   12....       LCALL   ??myprintf?relay
    224            }
    225          }
   \                     ??SampleApp_Init_1:
   \   0000E2   02....       LJMP    ??Subroutine15_0 & 0xFFFF
   \   0000E5                REQUIRE P0SEL
   \   0000E5                REQUIRE P0DIR
   \   0000E5                REQUIRE _A_P0

   \                                 In  segment BANKED_CODE, align 1, keep-with-next
   \                     ??Subroutine15_0:
   \   000000   7F03         MOV     R7,#0x3
   \   000002   02....       LJMP    ?BANKED_LEAVE_XDATA
    226          
    227          /*********************************************************************
    228          * @fn      SampleApp_ProcessEvent
    229          *
    230          * @brief   Generic Application Task event processor.  This function
    231          *          is called to process all events for the task.  Events
    232          *          include timers, messages and any other user defined events.
    233          *          系统各种事件的处理函数
    234          *
    235          * @param   task_id  - The OSAL assigned task ID.
    236          * @param   events - events to process.  This is a bit map and can
    237          *                   contain more than one event.
    238          *
    239          * @return  none
    240          */

   \                                 In  segment BANKED_CODE, align 1, keep-with-next
    241          uint16 SampleApp_ProcessEvent( uint8 task_id, uint16 events )
   \                     SampleApp_ProcessEvent:
    242          {
   \   000000   74F4         MOV     A,#-0xc
   \   000002   12....       LCALL   ?BANKED_ENTER_XDATA
   \   000005                ; Saved register size: 12
   \   000005                ; Auto size: 3
   \   000005   74FD         MOV     A,#-0x3
   \   000007   12....       LCALL   ?ALLOC_XSTACK8
   \   00000A   EA           MOV     A,R2
   \   00000B   FE           MOV     R6,A
   \   00000C   EB           MOV     A,R3
   \   00000D   FF           MOV     R7,A
    243            afIncomingMSGPacket_t *MSGpkt;
    244            afDataConfirm_t *afDataConfirm;
    245            byte sentEP;
    246            ZStatus_t sentStatus;
    247            byte sentTransID;       // This should match the value sent
    248            (void)task_id;  // Intentionally unreferenced parameter
    249            
    250            if ( events & SYS_EVENT_MSG )
   \   00000E   5480         ANL     A,#0x80
   \   000010   7003         JNZ     $+5
   \   000012   02....       LJMP    ??SampleApp_ProcessEvent_0 & 0xFFFF
    251            {
    252              MSGpkt = (afIncomingMSGPacket_t *)osal_msg_receive( SampleApp_TaskID ); // 接收一个用户自定义任务的消息
   \   000015                ; Setup parameters for call to function osal_msg_receive
   \   000015   12....       LCALL   ?Subroutine6 & 0xFFFF
    253              uint8 coodStarted[3] = {'#', 0x45, '@'};
   \                     ??CrossCallReturnLabel_6:
   \   000018   85..82       MOV     DPL,?XSP + 0
   \   00001B   85..83       MOV     DPH,?XSP + 1
   \   00001E   AC82         MOV     R4,DPL
   \   000020   AD83         MOV     R5,DPH
   \   000022   7583..       MOV     DPH,#(`?<Constant {35, 69, 64}>` >> 8) & 0xff
   \   000025   7582..       MOV     DPL,#`?<Constant {35, 69, 64}>` & 0xff
   \   000028   7403         MOV     A,#0x3
   \   00002A   12....       LCALL   ?MOVE_LONG8_XDATA_XDATA
   \   00002D   8021         SJMP    ??CrossCallReturnLabel_7
    254              while ( MSGpkt )
    255              {      
    256                switch ( MSGpkt->hdr.event )
    257                {
    258                  // 系统任务事件里面的接收数据确认消息
    259                  case AF_DATA_CONFIRM_CMD:
    260                    myprintf("AF_DATA_CONFIRM_CMD\n");
    261                    
    262                    afDataConfirm = (afDataConfirm_t *)MSGpkt;
    263                    sentEP = afDataConfirm->endpoint;
    264                    sentStatus = afDataConfirm->hdr.status;
    265                    sentTransID = afDataConfirm->transID;
    266                    (void)sentEP;
    267                    (void)sentTransID;
    268                    // Action taken when confirmation is received.
    269                    if ( sentStatus != ZSuccess )
    270                    {
    271                      myprintf("AF_DATA_CONFIRM_CMD failed\n");
    272                    }
    273                    break;
    274                  
    275                    // 接收到一个按键事件
    276                  case KEY_CHANGE:
    277                    SampleApp_HandleKeys( ((keyChange_t *)MSGpkt)->state, ((keyChange_t *)MSGpkt)->keys );
    278                    break;
    279                    
    280                    // 无线网络收到数据
    281                  case AF_INCOMING_MSG_CMD:
    282                    myprintf("AF_INCOMING_MSG_CMD\n");
    283                    SampleApp_MessageMSGCB( MSGpkt );
    284                    break;
    285                    
    286                    // 设备组网或者入网成功，可以发送一个消息，并开启一个心跳事件的定时器
    287                  case ZDO_STATE_CHANGE:
    288                    SampleApp_NwkState = (devStates_t)(MSGpkt->hdr.status); // 另外MSGpkt->srcAddr.addr.shortAddr;可用于获取终端节点的网络短地址
    289                    myprintf("SampleApp_NwkState = %d\n", SampleApp_NwkState);
    290                    
    291                    if(SampleApp_NwkState == DEV_ZB_COORD) {
    292                      myprintf("COORD device started\n");
    293                      // 向上位机发送已经启动消息
    294                      mySendByteBuf(coodStarted, 3);
    295                    } else if(SampleApp_NwkState == DEV_ROUTER) {
    296                      myprintf("ROUTER device started\n");
    297                    } else if(SampleApp_NwkState == DEV_END_DEVICE) {
    298                      myprintf("END device started\n");            
    299                      AfSendAddrInfo(0x71); // 向协调器发送入网消息
    300                      HalLedBlink(HAL_LED_1, 1, 50, 500);
    301                    }
    302                    osal_start_timerEx( SampleApp_TaskID, SAMPLEAPP_SEND_PERIODIC_MSG_EVT, SAMPLEAPP_SEND_PERIODIC_MSG_TIMEOUT ); // 开启定时器
    303                    break;
    304                    
    305                  default:
    306                    myprintf("unknown pkg-event = 0x%x\n", MSGpkt->hdr.event);
   \                     ??SampleApp_ProcessEvent_1:
   \   00002F                ; Setup parameters for call to function myprintf
   \   00002F   E0           MOVX    A,@DPTR
   \   000030   F5..         MOV     ?V0 + 2,A
   \   000032   75..00       MOV     ?V0 + 3,#0x0
   \   000035   78..         MOV     R0,#?V0 + 2
   \   000037   12....       LCALL   ?PUSH_XSTACK_I_TWO
   \   00003A   7A..         MOV     R2,#`?<Constant "unknown pkg-event = 0...">` & 0xff
   \   00003C   7B..         MOV     R3,#(`?<Constant "unknown pkg-event = 0...">` >> 8) & 0xff
   \   00003E   12....       LCALL   ??myprintf?relay
   \   000041   7402         MOV     A,#0x2
   \   000043   12....       LCALL   ?DEALLOC_XSTACK8
    307                    break;
    308                }      
    309                // Release the memory
    310                osal_msg_deallocate( (uint8 *)MSGpkt );      
   \                     ??SampleApp_ProcessEvent_2:
   \   000046                ; Setup parameters for call to function osal_msg_deallocate
   \   000046   AA..         MOV     R2,?V0 + 0
   \   000048   AB..         MOV     R3,?V0 + 1
   \   00004A   12....       LCALL   ??osal_msg_deallocate?relay
    311                // Next - if one is available
    312                MSGpkt = (afIncomingMSGPacket_t *)osal_msg_receive( SampleApp_TaskID );
   \   00004D                ; Setup parameters for call to function osal_msg_receive
   \   00004D   12....       LCALL   ?Subroutine6 & 0xFFFF
   \                     ??CrossCallReturnLabel_7:
   \   000050   E5..         MOV     A,?V0 + 0
   \   000052   45..         ORL     A,?V0 + 1
   \   000054   7003         JNZ     $+5
   \   000056   02....       LJMP    ??SampleApp_ProcessEvent_3 & 0xFFFF
   \   000059   85..82       MOV     DPL,?V0 + 0
   \   00005C   85..83       MOV     DPH,?V0 + 1
   \   00005F   E0           MOVX    A,@DPTR
   \   000060   24E6         ADD     A,#-0x1a
   \   000062   603A         JZ      ??SampleApp_ProcessEvent_4
   \   000064   245A         ADD     A,#0x5a
   \   000066   6022         JZ      ??SampleApp_ProcessEvent_5
   \   000068   24EF         ADD     A,#-0x11
   \   00006A   6042         JZ      ??SampleApp_ProcessEvent_6
   \   00006C   24D4         ADD     A,#-0x2c
   \   00006E   70BF         JNZ     ??SampleApp_ProcessEvent_1
   \   000070                ; Setup parameters for call to function myprintf
   \   000070   7A..         MOV     R2,#`?<Constant "AF_DATA_CONFIRM_CMD\\n">` & 0xff
   \   000072   7B..         MOV     R3,#(`?<Constant "AF_DATA_CONFIRM_CMD\\n">` >> 8) & 0xff
   \   000074   12....       LCALL   ??myprintf?relay
   \   000077   85..82       MOV     DPL,?V0 + 0
   \   00007A   85..83       MOV     DPH,?V0 + 1
   \   00007D   A3           INC     DPTR
   \   00007E   E0           MOVX    A,@DPTR
   \   00007F   60C5         JZ      ??SampleApp_ProcessEvent_2
   \   000081                ; Setup parameters for call to function myprintf
   \   000081   7A..         MOV     R2,#`?<Constant "AF_DATA_CONFIRM_CMD f...">` & 0xff
   \   000083   7B..         MOV     R3,#(`?<Constant "AF_DATA_CONFIRM_CMD f...">` >> 8) & 0xff
   \   000085   12....       LCALL   ??myprintf?relay
   \   000088   80BC         SJMP    ??SampleApp_ProcessEvent_2
   \                     ??SampleApp_ProcessEvent_5:
   \   00008A                ; Setup parameters for call to function SampleApp_HandleKeys
   \   00008A   A3           INC     DPTR
   \   00008B   A3           INC     DPTR
   \   00008C   A3           INC     DPTR
   \   00008D   E0           MOVX    A,@DPTR
   \   00008E   FA           MOV     R2,A
   \   00008F   85..82       MOV     DPL,?V0 + 0
   \   000092   85..83       MOV     DPH,?V0 + 1
   \   000095   A3           INC     DPTR
   \   000096   A3           INC     DPTR
   \   000097   E0           MOVX    A,@DPTR
   \   000098   F9           MOV     R1,A
   \   000099   12....       LCALL   ??SampleApp_HandleKeys?relay
   \   00009C   80A8         SJMP    ??SampleApp_ProcessEvent_2
   \                     ??SampleApp_ProcessEvent_4:
   \   00009E                ; Setup parameters for call to function myprintf
   \   00009E   7A..         MOV     R2,#`?<Constant "AF_INCOMING_MSG_CMD\\n">` & 0xff
   \   0000A0   7B..         MOV     R3,#(`?<Constant "AF_INCOMING_MSG_CMD\\n">` >> 8) & 0xff
   \   0000A2   12....       LCALL   ??myprintf?relay
   \   0000A5                ; Setup parameters for call to function SampleApp_MessageMSGCB
   \   0000A5   AA..         MOV     R2,?V0 + 0
   \   0000A7   AB..         MOV     R3,?V0 + 1
   \   0000A9   12....       LCALL   ??SampleApp_MessageMSGCB?relay
   \   0000AC   8098         SJMP    ??SampleApp_ProcessEvent_2
   \                     ??SampleApp_ProcessEvent_6:
   \   0000AE   A3           INC     DPTR
   \   0000AF   E0           MOVX    A,@DPTR
   \   0000B0   90....       MOV     DPTR,#SampleApp_NwkState
   \   0000B3   F0           MOVX    @DPTR,A
   \   0000B4                ; Setup parameters for call to function myprintf
   \   0000B4   F5..         MOV     ?V0 + 2,A
   \   0000B6   75..00       MOV     ?V0 + 3,#0x0
   \   0000B9   78..         MOV     R0,#?V0 + 2
   \   0000BB   12....       LCALL   ?PUSH_XSTACK_I_TWO
   \   0000BE   7A..         MOV     R2,#`?<Constant "SampleApp_NwkState = %d\\n">` & 0xff
   \   0000C0   7B..         MOV     R3,#(`?<Constant "SampleApp_NwkState = %d\\n">` >> 8) & 0xff
   \   0000C2   12....       LCALL   ??myprintf?relay
   \   0000C5   7402         MOV     A,#0x2
   \   0000C7   12....       LCALL   ?DEALLOC_XSTACK8
   \   0000CA   90....       MOV     DPTR,#SampleApp_NwkState
   \   0000CD   E0           MOVX    A,@DPTR
   \   0000CE   6409         XRL     A,#0x9
   \   0000D0   701A         JNZ     ??SampleApp_ProcessEvent_7
   \   0000D2                ; Setup parameters for call to function myprintf
   \   0000D2   7A..         MOV     R2,#`?<Constant "COORD device started\\n">` & 0xff
   \   0000D4   7B..         MOV     R3,#(`?<Constant "COORD device started\\n">` >> 8) & 0xff
   \   0000D6   12....       LCALL   ??myprintf?relay
   \   0000D9                ; Setup parameters for call to function mySendByteBuf
   \   0000D9   7C03         MOV     R4,#0x3
   \   0000DB   7D00         MOV     R5,#0x0
   \   0000DD   85..82       MOV     DPL,?XSP + 0
   \   0000E0   85..83       MOV     DPH,?XSP + 1
   \   0000E3   AA82         MOV     R2,DPL
   \   0000E5   AB83         MOV     R3,DPH
   \   0000E7   12....       LCALL   ??mySendByteBuf?relay
   \   0000EA   801D         SJMP    ??CrossCallReturnLabel_10
   \                     ??SampleApp_ProcessEvent_7:
   \   0000EC   E0           MOVX    A,@DPTR
   \   0000ED   6407         XRL     A,#0x7
   \   0000EF   7009         JNZ     ??SampleApp_ProcessEvent_8
   \   0000F1                ; Setup parameters for call to function myprintf
   \   0000F1   7A..         MOV     R2,#`?<Constant "ROUTER device started\\n">` & 0xff
   \   0000F3   7B..         MOV     R3,#(`?<Constant "ROUTER device started\\n">` >> 8) & 0xff
   \   0000F5   12....       LCALL   ??myprintf?relay
   \   0000F8   800F         SJMP    ??CrossCallReturnLabel_10
   \                     ??SampleApp_ProcessEvent_8:
   \   0000FA   E0           MOVX    A,@DPTR
   \   0000FB   6406         XRL     A,#0x6
   \   0000FD   700A         JNZ     ??CrossCallReturnLabel_10
   \   0000FF                ; Setup parameters for call to function myprintf
   \   0000FF   7A..         MOV     R2,#`?<Constant "END device started\\n">` & 0xff
   \   000101   7B..         MOV     R3,#(`?<Constant "END device started\\n">` >> 8) & 0xff
   \   000103   12....       LCALL   ??myprintf?relay
   \   000106                ; Setup parameters for call to function AfSendAddrInfo
   \   000106   12....       LCALL   ?Subroutine9 & 0xFFFF
   \                     ??CrossCallReturnLabel_10:
   \   000109                ; Setup parameters for call to function osal_start_timerEx
   \   000109   7CE8         MOV     R4,#-0x18
   \   00010B   7D03         MOV     R5,#0x3
   \   00010D   7A01         MOV     R2,#0x1
   \   00010F   7B00         MOV     R3,#0x0
   \   000111   90....       MOV     DPTR,#SampleApp_TaskID
   \   000114   E0           MOVX    A,@DPTR
   \   000115   F9           MOV     R1,A
   \   000116   12....       LCALL   ??osal_start_timerEx?relay
   \   000119   02....       LJMP    ??SampleApp_ProcessEvent_2 & 0xFFFF
    313              }
    314              
    315              // return unprocessed events
    316              return (events ^ SYS_EVENT_MSG);
   \                     ??SampleApp_ProcessEvent_3:
   \   00011C   EE           MOV     A,R6
   \   00011D   FA           MOV     R2,A
   \   00011E   EF           MOV     A,R7
   \   00011F   6480         XRL     A,#0x80
   \                     ??SampleApp_ProcessEvent_9:
   \   000121   FB           MOV     R3,A
   \   000122   8023         SJMP    ??SampleApp_ProcessEvent_10
    317            }
    318            
    319            // 接收到一个定时器事件
    320            if ( events & SAMPLEAPP_SEND_PERIODIC_MSG_EVT )
   \                     ??SampleApp_ProcessEvent_0:
   \   000124   EE           MOV     A,R6
   \   000125   A2E0         MOV     C,0xE0 /* A   */.0
   \   000127   501A         JNC     ??SampleApp_ProcessEvent_11
    321            {
    322          #ifdef ZDO_COORDINATOR
    323              SampleApp_SendHeartBeatMessageCoor(); // 协调器心跳功能函数
   \   000129                ; Setup parameters for call to function SampleApp_SendHeartBeatMessageCoor
   \   000129   12....       LCALL   ??SampleApp_SendHeartBeatMessageCoor?relay
    324              osal_start_timerEx( SampleApp_TaskID, SAMPLEAPP_SEND_PERIODIC_MSG_EVT, SAMPLEAPP_SEND_PERIODIC_MSG_TIMEOUT); // 1000ms再次开启定时器
   \   00012C                ; Setup parameters for call to function osal_start_timerEx
   \   00012C   7CE8         MOV     R4,#-0x18
   \   00012E   7D03         MOV     R5,#0x3
   \   000130   7A01         MOV     R2,#0x1
   \   000132   7B00         MOV     R3,#0x0
   \   000134   90....       MOV     DPTR,#SampleApp_TaskID
   \   000137   E0           MOVX    A,@DPTR
   \   000138   F9           MOV     R1,A
   \   000139   12....       LCALL   ??osal_start_timerEx?relay
    325          #else
    326              SampleApp_SendHeartBeatMessageEnd(); // 终端心跳功能函数
    327              osal_start_timerEx( SampleApp_TaskID, SAMPLEAPP_SEND_PERIODIC_MSG_EVT, SAMPLEAPP_SEND_PERIODIC_MSG_TIMEOUT*2); // 2000ms再次开启定时器
    328          #endif
    329              return (events ^ SAMPLEAPP_SEND_PERIODIC_MSG_EVT); // 清除此已经处理事件标志位
   \   00013C   EE           MOV     A,R6
   \   00013D   6401         XRL     A,#0x1
   \   00013F   FA           MOV     R2,A
   \   000140   EF           MOV     A,R7
   \   000141   80DE         SJMP    ??SampleApp_ProcessEvent_9
    330            }
    331            
    332            // Discard unknown events
    333            return 0;
   \                     ??SampleApp_ProcessEvent_11:
   \   000143   7A00         MOV     R2,#0x0
   \   000145   7B00         MOV     R3,#0x0
   \                     ??SampleApp_ProcessEvent_10:
   \   000147   7403         MOV     A,#0x3
   \   000149   12....       LCALL   ?DEALLOC_XSTACK8
   \   00014C   7F04         MOV     R7,#0x4
   \   00014E   02....       LJMP    ?BANKED_LEAVE_XDATA
    334          }

   \                                 In  segment BANKED_CODE, align 1, keep-with-next
   \                     ?Subroutine6:
   \   000000   90....       MOV     DPTR,#SampleApp_TaskID
   \   000003   E0           MOVX    A,@DPTR
   \   000004   F9           MOV     R1,A
   \   000005   12....       LCALL   ??osal_msg_receive?relay
   \   000008   8A..         MOV     ?V0 + 0,R2
   \   00000A   8B..         MOV     ?V0 + 1,R3
   \   00000C   22           RET

   \                                 In  segment BANKED_CODE, align 1, keep-with-next
   \                     ?Subroutine9:
   \   000000   7971         MOV     R1,#0x71
   \   000002   12....       LCALL   ??AfSendAddrInfo?relay
   \   000005                ; Setup parameters for call to function HalLedBlink
   \   000005                ; Setup parameters for call to function HalLedBlink
   \   000005   7CF4         MOV     R4,#-0xc
   \   000007   7D01         MOV     R5,#0x1
   \   000009   7B32         MOV     R3,#0x32
   \   00000B   7A01         MOV     R2,#0x1
   \   00000D   7901         MOV     R1,#0x1
   \   00000F   12....       LCALL   ??HalLedBlink?relay
   \   000012   22           RET
    335          
    336          /*********************************************************************
    337          * Event Generation Functions
    338          */
    339          /*********************************************************************
    340          * @fn      SampleApp_HandleKeys
    341          *
    342          * @brief   按键事件处理函数
    343          *
    344          * @param   shift - true if in shift/alt.
    345          * @param   keys - bit field for key events. Valid entries:
    346          *                 HAL_KEY_SW_2
    347          *                 HAL_KEY_SW_1
    348          *
    349          * @return  none
    350          */

   \                                 In  segment BANKED_CODE, align 1, keep-with-next
    351          void SampleApp_HandleKeys( uint8 shift, uint8 keys )
   \                     SampleApp_HandleKeys:
    352          {
   \   000000   74F7         MOV     A,#-0x9
   \   000002   12....       LCALL   ?BANKED_ENTER_XDATA
   \   000005                ; Saved register size: 9
   \   000005                ; Auto size: 0
   \   000005   EA           MOV     A,R2
    353            (void)shift;  // Intentionally unreferenced parameter
    354          #ifdef ZDO_COORDINATOR       //按协调器S1才发数据  
    355            if ( keys & HAL_KEY_SW_6 ){ // 按键S1,以广播方式发数据    
   \   000006   A2E5         MOV     C,0xE0 /* A   */.5
   \   000008   5004         JNC     ??SampleApp_HandleKeys_0
    356              SampleApp_SendPeriodicMessage(1);
   \   00000A                ; Setup parameters for call to function SampleApp_SendPeriodicMessage
   \   00000A   7901         MOV     R1,#0x1
   \   00000C   8006         SJMP    ??SampleApp_HandleKeys_1
    357            } else if(keys & HAL_KEY_SW_1) { // 按键S2
   \                     ??SampleApp_HandleKeys_0:
   \   00000E   A2E0         MOV     C,0xE0 /* A   */.0
   \   000010   5005         JNC     ??SampleApp_HandleKeys_2
    358              SampleApp_SendPeriodicMessage(2);
   \   000012                ; Setup parameters for call to function SampleApp_SendPeriodicMessage
   \   000012   7902         MOV     R1,#0x2
   \                     ??SampleApp_HandleKeys_1:
   \   000014   12....       LCALL   ??SampleApp_SendPeriodicMessage?relay
    359            }
    360          #endif
    361          
    362          #ifndef ZDO_COORDINATOR
    363            if ( keys & HAL_KEY_SW_6 ){
    364              AfSendAddrInfo(0x51); // 只用在路由和终端设备上，向协调器上传自身地址，协调器收到此消息后打印出地址
    365            }else if ( keys & HAL_KEY_SW_1 ){ // 按键S2
    366              myprintf("S2\n");    
    367            }
    368          #endif
    369          }
   \                     ??SampleApp_HandleKeys_2:
   \   000017   7F01         MOV     R7,#0x1
   \   000019   02....       LJMP    ?BANKED_LEAVE_XDATA
    370          
    371          /*********************************************************************
    372          * LOCAL FUNCTIONS
    373          */
    374          
    375          /*********************************************************************
    376          * @fn      SampleApp_MessageMSGCB
    377          *
    378          * @brief   Data message processor callback.  This function processes
    379          *          any incoming data - probably from other devices.  So, based
    380          *          on cluster ID, perform the intended action.
    381          *
    382          * @param   none
    383          *
    384          * @return  none
    385          */
    386          #define INIT_LEFT_SEC 5

   \                                 In  segment BANKED_CODE, align 1, keep-with-next
    387          void SampleApp_MessageMSGCB( afIncomingMSGPacket_t *pkt )
   \                     SampleApp_MessageMSGCB:
    388          {
   \   000000   74F6         MOV     A,#-0xa
   \   000002   12....       LCALL   ?BANKED_ENTER_XDATA
   \   000005                ; Saved register size: 10
   \   000005                ; Auto size: 0
   \   000005   EA           MOV     A,R2
   \   000006   FE           MOV     R6,A
   \   000007   EB           MOV     A,R3
   \   000008   FF           MOV     R7,A
    389            uint8 data;
    390            uint8 cmd;
    391            int ret = 0;
    392            
    393            switch ( pkt->clusterId )
   \   000009   8E82         MOV     DPL,R6
   \   00000B   8F83         MOV     DPH,R7
   \   00000D   A3           INC     DPTR
   \   00000E   A3           INC     DPTR
   \   00000F   A3           INC     DPTR
   \   000010   A3           INC     DPTR
   \   000011   E0           MOVX    A,@DPTR
   \   000012   6401         XRL     A,#0x1
   \   000014   7002         JNZ     ??SampleApp_MessageMSGCB_0
   \   000016   A3           INC     DPTR
   \   000017   E0           MOVX    A,@DPTR
   \                     ??SampleApp_MessageMSGCB_0:
   \   000018   6003         JZ      $+5
   \   00001A   02....       LJMP    ??SampleApp_MessageMSGCB_1 & 0xFFFF
    394            {    
    395            case SAMPLEAPP_PERIODIC_CLUSTERID: // 协调器在发送数据的时候指定的此消息对应的命令字，即表示哪种类型的控制命令
    396          //协调器接收到终端的无线数据 
    397          #ifdef ZDO_COORDINATOR
    398              data = pkt->cmd.Data[0];
    399              cmd = pkt->cmd.Data[1];
   \   00001D   12....       LCALL   ?Subroutine10 & 0xFFFF
   \                     ??CrossCallReturnLabel_12:
   \   000020   8882         MOV     DPL,R0
   \   000022   8983         MOV     DPH,R1
   \   000024   A3           INC     DPTR
   \   000025   E0           MOVX    A,@DPTR
   \   000026   FA           MOV     R2,A
    400              if(data == '#') {
   \   000027   8882         MOV     DPL,R0
   \   000029   8983         MOV     DPH,R1
   \   00002B   E0           MOVX    A,@DPTR
   \   00002C   6423         XRL     A,#0x23
   \   00002E   6003         JZ      $+5
   \   000030   02....       LJMP    ??SampleApp_MessageMSGCB_1 & 0xFFFF
    401                if(cmd == 0x71 && pkt->cmd.Data[12] == '@') { // 接收到终端上传的短地址和IEEE地址
   \   000033   7471         MOV     A,#0x71
   \   000035   6A           XRL     A,R2
   \   000036   6003         JZ      $+5
   \   000038   02....       LJMP    ??SampleApp_MessageMSGCB_2 & 0xFFFF
   \   00003B   12....       LCALL   ?Subroutine3 & 0xFFFF
   \                     ??CrossCallReturnLabel_0:
   \   00003E   6003         JZ      $+5
   \   000040   02....       LJMP    ??SampleApp_MessageMSGCB_1 & 0xFFFF
    402                  ret = checkEPInList(LL, pkt->cmd.Data + 4); // 使用IEEE地址检查终端是否已经在链表中
   \   000043                ; Setup parameters for call to function checkEPInList
   \   000043   12....       LCALL   ?Subroutine11 & 0xFFFF
   \                     ??CrossCallReturnLabel_14:
   \   000046   E0           MOVX    A,@DPTR
   \   000047   2404         ADD     A,#0x4
   \   000049   FC           MOV     R4,A
   \   00004A   A3           INC     DPTR
   \   00004B   E0           MOVX    A,@DPTR
   \   00004C   12....       LCALL   ?Subroutine8 & 0xFFFF
   \                     ??CrossCallReturnLabel_23:
   \   00004F   12....       LCALL   ??checkEPInList?relay
   \   000052   8A..         MOV     ?V0 + 0,R2
   \   000054   8B..         MOV     ?V0 + 1,R3
   \   000056   AC..         MOV     R4,?V0 + 0
   \   000058   AD..         MOV     R5,?V0 + 1
    403                  if(ret == -1) { // 如果当前终端没有在列表中        
   \   00005A   74FF         MOV     A,#-0x1
   \   00005C   6C           XRL     A,R4
   \   00005D   7003         JNZ     ??SampleApp_MessageMSGCB_3
   \   00005F   74FF         MOV     A,#-0x1
   \   000061   6D           XRL     A,R5
   \                     ??SampleApp_MessageMSGCB_3:
   \   000062   7052         JNZ     ??SampleApp_MessageMSGCB_4
    404                    ListInsert_L(LL, ListLength_L(LL)+1, pkt->cmd.Data[2], pkt->cmd.Data[3], &(pkt->cmd.Data[4]), INIT_LEFT_SEC); // 添加一个线性列表元素到链表尾部 
   \   000064                ; Setup parameters for call to function ListLength_L
   \   000064   12....       LCALL   ?Subroutine5 & 0xFFFF
   \                     ??CrossCallReturnLabel_4:
   \   000067   AC..         MOV     R4,?V0 + 0
   \   000069   AD..         MOV     R5,?V0 + 1
   \   00006B   12....       LCALL   ?Subroutine10 & 0xFFFF
   \                     ??CrossCallReturnLabel_13:
   \   00006E   E8           MOV     A,R0
   \   00006F   FA           MOV     R2,A
   \   000070   E9           MOV     A,R1
   \   000071   FB           MOV     R3,A
   \   000072                ; Setup parameters for call to function ListInsert_L
   \   000072   75..05       MOV     ?V0 + 0,#0x5
   \   000075   78..         MOV     R0,#?V0 + 0
   \   000077   12....       LCALL   ?PUSH_XSTACK_I_ONE
   \   00007A   EA           MOV     A,R2
   \   00007B   2404         ADD     A,#0x4
   \   00007D   F5..         MOV     ?V0 + 0,A
   \   00007F   EB           MOV     A,R3
   \   000080   3400         ADDC    A,#0x0
   \   000082   F5..         MOV     ?V0 + 1,A
   \   000084   78..         MOV     R0,#?V0 + 0
   \   000086   12....       LCALL   ?PUSH_XSTACK_I_TWO
   \   000089   8A82         MOV     DPL,R2
   \   00008B   8B83         MOV     DPH,R3
   \   00008D   A3           INC     DPTR
   \   00008E   A3           INC     DPTR
   \   00008F   A3           INC     DPTR
   \   000090   E0           MOVX    A,@DPTR
   \   000091   F5..         MOV     ?V0 + 0,A
   \   000093   78..         MOV     R0,#?V0 + 0
   \   000095   12....       LCALL   ?PUSH_XSTACK_I_ONE
   \   000098   8A82         MOV     DPL,R2
   \   00009A   8B83         MOV     DPH,R3
   \   00009C   A3           INC     DPTR
   \   00009D   A3           INC     DPTR
   \   00009E   E0           MOVX    A,@DPTR
   \   00009F   F9           MOV     R1,A
   \   0000A0   EC           MOV     A,R4
   \   0000A1   2401         ADD     A,#0x1
   \   0000A3   0C           INC     R4
   \   0000A4   ED           MOV     A,R5
   \   0000A5   12....       LCALL   ?Subroutine8 & 0xFFFF
   \                     ??CrossCallReturnLabel_24:
   \   0000A8   12....       LCALL   ??ListInsert_L?relay
   \   0000AB   7404         MOV     A,#0x4
   \   0000AD   12....       LCALL   ?DEALLOC_XSTACK8
    405                    myprintf("Insert new EP in list\n");
   \   0000B0                ; Setup parameters for call to function myprintf
   \   0000B0   7A..         MOV     R2,#`?<Constant "Insert new EP in list\\n">` & 0xff
   \   0000B2   7B..         MOV     R3,#(`?<Constant "Insert new EP in list\\n">` >> 8) & 0xff
   \   0000B4   801A         SJMP    ??SampleApp_MessageMSGCB_5
    406                  } else { // 更新终端所在节点的在线时长，标记为在线状态
    407                    updateListEleStatus(LL, ret, INIT_LEFT_SEC);
   \                     ??SampleApp_MessageMSGCB_4:
   \   0000B6                ; Setup parameters for call to function updateListEleStatus
   \   0000B6   75..05       MOV     ?V0 + 0,#0x5
   \   0000B9   75..00       MOV     ?V0 + 1,#0x0
   \   0000BC   78..         MOV     R0,#?V0 + 0
   \   0000BE   12....       LCALL   ?PUSH_XSTACK_I_TWO
   \   0000C1   12....       LCALL   ??Subroutine14_0 & 0xFFFF
   \                     ??CrossCallReturnLabel_21:
   \   0000C4   12....       LCALL   ??updateListEleStatus?relay
   \   0000C7   7402         MOV     A,#0x2
   \   0000C9   12....       LCALL   ?DEALLOC_XSTACK8
    408                    myprintf("Already In List, update()\n");
   \   0000CC                ; Setup parameters for call to function myprintf
   \   0000CC   7A..         MOV     R2,#`?<Constant "Already In List, upda...">` & 0xff
   \   0000CE   7B..         MOV     R3,#(`?<Constant "Already In List, upda...">` >> 8) & 0xff
   \                     ??SampleApp_MessageMSGCB_5:
   \   0000D0   12....       LCALL   ??myprintf?relay
    409                  }
    410                  myprintf("length = %d\n", ListLength_L(LL));
   \   0000D3                ; Setup parameters for call to function myprintf
   \   0000D3                ; Setup parameters for call to function ListLength_L
   \   0000D3   12....       LCALL   ?Subroutine5 & 0xFFFF
    411                } else if(cmd == 0x72 && pkt->cmd.Data[10] == '@') { // 收到终端回复的确认收到投币命令
   \                     ??CrossCallReturnLabel_5:
   \   0000D6   78..         MOV     R0,#?V0 + 0
   \   0000D8   12....       LCALL   ?PUSH_XSTACK_I_TWO
   \   0000DB   7A..         MOV     R2,#`?<Constant "length = %d\\n">` & 0xff
   \   0000DD   7B..         MOV     R3,#(`?<Constant "length = %d\\n">` >> 8) & 0xff
   \   0000DF   12....       LCALL   ??myprintf?relay
   \   0000E2   7402         MOV     A,#0x2
   \   0000E4   12....       LCALL   ?DEALLOC_XSTACK8
   \   0000E7   803A         SJMP    ??SampleApp_MessageMSGCB_1
   \                     ??SampleApp_MessageMSGCB_2:
   \   0000E9   7472         MOV     A,#0x72
   \   0000EB   6A           XRL     A,R2
   \   0000EC   701F         JNZ     ??SampleApp_MessageMSGCB_6
   \   0000EE   12....       LCALL   ?Subroutine11 & 0xFFFF
   \                     ??CrossCallReturnLabel_15:
   \   0000F1   A3           INC     DPTR
   \   0000F2   E0           MOVX    A,@DPTR
   \   0000F3   F583         MOV     DPH,A
   \   0000F5   8882         MOV     DPL,R0
   \   0000F7   A3           INC     DPTR
   \   0000F8   A3           INC     DPTR
   \   0000F9   A3           INC     DPTR
   \   0000FA   A3           INC     DPTR
   \   0000FB   A3           INC     DPTR
   \   0000FC   A3           INC     DPTR
   \   0000FD   A3           INC     DPTR
   \   0000FE   A3           INC     DPTR
   \   0000FF   A3           INC     DPTR
   \   000100   A3           INC     DPTR
   \   000101   E0           MOVX    A,@DPTR
   \   000102   6440         XRL     A,#0x40
   \   000104   701D         JNZ     ??SampleApp_MessageMSGCB_1
    412                  mySendByteBuf(pkt->cmd.Data, 11); // 转发回复消息到上位机
   \   000106                ; Setup parameters for call to function mySendByteBuf
   \   000106   7C0B         MOV     R4,#0xb
   \   000108   12....       LCALL   ?Subroutine7 & 0xFFFF
    413                } else if(cmd == 0x51 && pkt->cmd.Data[12] == '@') { // 终端按键S1上传的长短地址信息
   \                     ??CrossCallReturnLabel_8:
   \   00010B   8016         SJMP    ??SampleApp_MessageMSGCB_1
   \                     ??SampleApp_MessageMSGCB_6:
   \   00010D   7451         MOV     A,#0x51
   \   00010F   6A           XRL     A,R2
   \   000110   7011         JNZ     ??SampleApp_MessageMSGCB_1
   \   000112   12....       LCALL   ?Subroutine3 & 0xFFFF
   \                     ??CrossCallReturnLabel_1:
   \   000115   700C         JNZ     ??SampleApp_MessageMSGCB_1
    414                  mySendByteBuf(pkt->cmd.Data, 13);
   \   000117                ; Setup parameters for call to function mySendByteBuf
   \   000117   7C0D         MOV     R4,#0xd
   \   000119   12....       LCALL   ?Subroutine7 & 0xFFFF
    415                  myprintf("\nRECV EP Key S1 addr info\n");
   \                     ??CrossCallReturnLabel_9:
   \   00011C                ; Setup parameters for call to function myprintf
   \   00011C   7A..         MOV     R2,#`?<Constant "\\nRECV EP Key S1 addr ...">` & 0xff
   \   00011E   7B..         MOV     R3,#(`?<Constant "\\nRECV EP Key S1 addr ...">` >> 8) & 0xff
   \   000120   12....       LCALL   ??myprintf?relay
    416                }
    417              }
    418          //路由器和终端接收数据处理     
    419          #else
    420              data = pkt->cmd.Data[0];
    421              cmd = pkt->cmd.Data[1];
    422              if(data == '#')
    423              {
    424                if(cmd == 0x81 && pkt->cmd.Data[3] == '@') { // 收到投递指定币数的消息        
    425                  myprintf("begin add coin = %d\n", pkt->cmd.Data[2]); // 进行投币动作
    426                  AfReplyGetCoinCmd(); // 回复已经收到投币命令0x72
    427                } else if(cmd == 0x31 && pkt->cmd.Data[3] == '@') { // LED2闪灯测试命令
    428                  HalLedBlink(HAL_LED_2, 2, 25, 500);
    429                }
    430              }        
    431          #endif    
    432              break;
    433              
    434            default:
    435              break;
    436            }
    437          }
   \                     ??SampleApp_MessageMSGCB_1:
   \   000123                REQUIRE ?Subroutine1
   \   000123                ; // Fall through to label ?Subroutine1

   \                                 In  segment BANKED_CODE, align 1, keep-with-next
   \                     ?Subroutine1:
   \   000000   7F02         MOV     R7,#0x2
   \   000002   02....       LJMP    ?BANKED_LEAVE_XDATA

   \                                 In  segment BANKED_CODE, align 1, keep-with-next
   \                     ?Subroutine11:
   \   000000   12....       LCALL   ?Subroutine13 & 0xFFFF
   \                     ??CrossCallReturnLabel_19:
   \   000003   22           RET

   \                                 In  segment BANKED_CODE, align 1, keep-with-next
   \                     ?Subroutine13:
   \   000000   EE           MOV     A,R6
   \   000001   2422         ADD     A,#0x22
   \   000003   F582         MOV     DPL,A
   \   000005   EF           MOV     A,R7
   \   000006   3400         ADDC    A,#0x0
   \   000008   F583         MOV     DPH,A
   \   00000A   22           RET

   \                                 In  segment BANKED_CODE, align 1, keep-with-next
   \                     ?Subroutine10:
   \   000000   12....       LCALL   ?Subroutine12 & 0xFFFF
   \                     ??CrossCallReturnLabel_18:
   \   000003   F8           MOV     R0,A
   \   000004   A3           INC     DPTR
   \   000005   E0           MOVX    A,@DPTR
   \   000006   F9           MOV     R1,A
   \   000007   22           RET

   \                                 In  segment BANKED_CODE, align 1, keep-with-next
   \                     ?Subroutine7:
   \   000000   7D00         MOV     R5,#0x0
   \   000002   12....       LCALL   ?Subroutine12 & 0xFFFF
   \                     ??CrossCallReturnLabel_17:
   \   000005   FA           MOV     R2,A
   \   000006   A3           INC     DPTR
   \   000007   E0           MOVX    A,@DPTR
   \   000008   FB           MOV     R3,A
   \   000009   12....       LCALL   ??mySendByteBuf?relay
   \   00000C   22           RET

   \                                 In  segment BANKED_CODE, align 1, keep-with-next
   \                     ?Subroutine12:
   \   000000   12....       LCALL   ?Subroutine13 & 0xFFFF
   \                     ??CrossCallReturnLabel_20:
   \   000003   E0           MOVX    A,@DPTR
   \   000004   22           RET

   \                                 In  segment BANKED_CODE, align 1, keep-with-next
   \                     ?Subroutine5:
   \   000000   90....       MOV     DPTR,#LL
   \   000003   E0           MOVX    A,@DPTR
   \   000004   FA           MOV     R2,A
   \   000005   A3           INC     DPTR
   \   000006   E0           MOVX    A,@DPTR
   \   000007   FB           MOV     R3,A
   \   000008   12....       LCALL   ??ListLength_L?relay
   \   00000B   8A..         MOV     ?V0 + 0,R2
   \   00000D   8B..         MOV     ?V0 + 1,R3
   \   00000F   22           RET

   \                                 In  segment BANKED_CODE, align 1, keep-with-next
   \                     ?Subroutine3:
   \   000000   12....       LCALL   ?Subroutine12 & 0xFFFF
   \                     ??CrossCallReturnLabel_16:
   \   000003   240C         ADD     A,#0xc
   \   000005   F8           MOV     R0,A
   \   000006   A3           INC     DPTR
   \   000007   E0           MOVX    A,@DPTR
   \   000008   3400         ADDC    A,#0x0
   \   00000A   F9           MOV     R1,A
   \   00000B   8882         MOV     DPL,R0
   \   00000D   8983         MOV     DPH,R1
   \   00000F   E0           MOVX    A,@DPTR
   \   000010   6440         XRL     A,#0x40
   \   000012   22           RET

   \                                 In  segment BANKED_CODE, align 1, keep-with-next
   \                     ?Subroutine8:
   \   000000   3400         ADDC    A,#0x0
   \   000002   FD           MOV     R5,A
   \   000003                REQUIRE ??Subroutine14_0
   \   000003                ; // Fall through to label ??Subroutine14_0

   \                                 In  segment BANKED_CODE, align 1, keep-with-next
   \                     ??Subroutine14_0:
   \   000000   90....       MOV     DPTR,#LL
   \   000003   E0           MOVX    A,@DPTR
   \   000004   FA           MOV     R2,A
   \   000005   A3           INC     DPTR
   \   000006   E0           MOVX    A,@DPTR
   \   000007   FB           MOV     R3,A
   \   000008   22           RET
    438          
    439          /**
    440          * 协调器向终端发送广播类型消息
    441          */

   \                                 In  segment BANKED_CODE, align 1, keep-with-next
    442          void SampleApp_SendPeriodicMessage( int8 key )
   \                     SampleApp_SendPeriodicMessage:
    443          {
   \   000000   74F6         MOV     A,#-0xa
   \   000002   12....       LCALL   ?BANKED_ENTER_XDATA
   \   000005                ; Saved register size: 10
   \   000005                ; Auto size: 4
   \   000005   74FC         MOV     A,#-0x4
   \   000007   12....       LCALL   ?ALLOC_XSTACK8
   \   00000A   E9           MOV     A,R1
   \   00000B   FE           MOV     R6,A
    444            if(key == 1) { // 按键S1
   \   00000C   7401         MOV     A,#0x1
   \   00000E   6E           XRL     A,R6
   \   00000F   706F         JNZ     ??SampleApp_SendPeriodicMessage_0
    445              uint8 sendKeyS1Buf[4] = {'#', 0x31, 0, '@'};
   \   000011   85..82       MOV     DPL,?XSP + 0
   \   000014   85..83       MOV     DPH,?XSP + 1
   \   000017   AC82         MOV     R4,DPL
   \   000019   AD83         MOV     R5,DPH
   \   00001B   7583..       MOV     DPH,#(`?<Constant {35, 49, 0, 64}>` >> 8) & 0xff
   \   00001E   7582..       MOV     DPL,#`?<Constant {35, 49, 0, 64}>` & 0xff
   \   000021   7404         MOV     A,#0x4
   \   000023   12....       LCALL   ?MOVE_LONG8_XDATA_XDATA
    446              
    447              if ( AF_DataRequest( &SampleApp_Periodic_DstAddr, &SampleApp_epDesc,
    448                                  SAMPLEAPP_PERIODIC_CLUSTERID,
    449                                  4,
    450                                  sendKeyS1Buf,
    451                                  &SampleApp_TransID,
    452                                  AF_DISCV_ROUTE,
    453                                  AF_DEFAULT_RADIUS ) == afStatus_SUCCESS )
   \   000026                ; Setup parameters for call to function AF_DataRequest
   \   000026   75..1E       MOV     ?V0 + 0,#0x1e
   \   000029   78..         MOV     R0,#?V0 + 0
   \   00002B   12....       LCALL   ?PUSH_XSTACK_I_ONE
   \   00002E   75....       MOV     ?V0 + 0,#SampleApp_TransID & 0xff
   \   000031   75....       MOV     ?V0 + 1,#(SampleApp_TransID >> 8) & 0xff
   \   000034   78..         MOV     R0,#?V0 + 0
   \   000036   12....       LCALL   ?PUSH_XSTACK_I_TWO
   \   000039   7403         MOV     A,#0x3
   \   00003B   12....       LCALL   ?XSTACK_DISP0_8
   \   00003E   8582..       MOV     ?V0 + 0,DPL
   \   000041   8583..       MOV     ?V0 + 1,DPH
   \   000044   78..         MOV     R0,#?V0 + 0
   \   000046   12....       LCALL   ?PUSH_XSTACK_I_TWO
   \   000049   75..04       MOV     ?V0 + 0,#0x4
   \   00004C   75..00       MOV     ?V0 + 1,#0x0
   \   00004F   78..         MOV     R0,#?V0 + 0
   \   000051   12....       LCALL   ?PUSH_XSTACK_I_TWO
   \   000054   75..01       MOV     ?V0 + 0,#0x1
   \   000057   78..         MOV     R0,#?V0 + 0
   \   000059   12....       LCALL   ?PUSH_XSTACK_I_TWO
   \   00005C   7920         MOV     R1,#0x20
   \   00005E   7C..         MOV     R4,#SampleApp_epDesc & 0xff
   \   000060   7D..         MOV     R5,#(SampleApp_epDesc >> 8) & 0xff
   \   000062   7A..         MOV     R2,#SampleApp_Periodic_DstAddr & 0xff
   \   000064   7B..         MOV     R3,#(SampleApp_Periodic_DstAddr >> 8) & 0xff
   \   000066   12....       LCALL   ??AF_DataRequest?relay
   \   000069   7409         MOV     A,#0x9
   \   00006B   12....       LCALL   ?DEALLOC_XSTACK8
   \   00006E   E9           MOV     A,R1
   \   00006F   701B         JNZ     ??SampleApp_SendPeriodicMessage_1
    454              {
    455                HalLedBlink(HAL_LED_2, 2, 25, 500);
   \   000071                ; Setup parameters for call to function HalLedBlink
   \   000071   7CF4         MOV     R4,#-0xc
   \   000073   7D01         MOV     R5,#0x1
   \   000075   7B19         MOV     R3,#0x19
   \   000077   7A02         MOV     R2,#0x2
   \   000079   7902         MOV     R1,#0x2
   \   00007B   12....       LCALL   ??HalLedBlink?relay
   \   00007E   800C         SJMP    ??SampleApp_SendPeriodicMessage_1
    456              }
    457            } else if(key == 2) { // 按键S2
   \                     ??SampleApp_SendPeriodicMessage_0:
   \   000080   7402         MOV     A,#0x2
   \   000082   6E           XRL     A,R6
   \   000083   7007         JNZ     ??SampleApp_SendPeriodicMessage_1
    458              myprintf("press key S2\n");
   \   000085                ; Setup parameters for call to function myprintf
   \   000085   7A..         MOV     R2,#`?<Constant "press key S2\\n">` & 0xff
   \   000087   7B..         MOV     R3,#(`?<Constant "press key S2\\n">` >> 8) & 0xff
   \   000089   12....       LCALL   ??myprintf?relay
    459            }
    460          }
   \                     ??SampleApp_SendPeriodicMessage_1:
   \   00008C   7404         MOV     A,#0x4
   \   00008E   12....       LCALL   ?DEALLOC_XSTACK8
   \   000091   02....       LJMP    ?Subroutine1 & 0xFFFF
    461          
    462          /**
    463            协调器心跳功能函数，使用串口向树莓派发送心跳信息
    464          */

   \                                 In  segment BANKED_CODE, align 1, keep-with-next
    465          void SampleApp_SendHeartBeatMessageCoor(void) {
   \                     SampleApp_SendHeartBeatMessageCoor:
   \   000000   C082         PUSH    DPL
   \   000002   C083         PUSH    DPH
   \   000004                ; Saved register size: 2
   \   000004                ; Auto size: 3
   \   000004   74FD         MOV     A,#-0x3
   \   000006   12....       LCALL   ?ALLOC_XSTACK8
    466            // 遍历终端列表，将所有节点剩余时间-1，如果小于0，则置0
    467            uint8 heartBeatBuf[3] = {'#', 0x46, '@'};
   \   000009   85..82       MOV     DPL,?XSP + 0
   \   00000C   85..83       MOV     DPH,?XSP + 1
   \   00000F   AC82         MOV     R4,DPL
   \   000011   AD83         MOV     R5,DPH
   \   000013   7583..       MOV     DPH,#(`?<Constant {35, 70, 64}>` >> 8) & 0xff
   \   000016   7582..       MOV     DPL,#`?<Constant {35, 70, 64}>` & 0xff
   \   000019   7403         MOV     A,#0x3
   \   00001B   12....       LCALL   ?MOVE_LONG8_XDATA_XDATA
    468            
    469            decAllListEPLeftSec(LL); // 将终端列表中元素在线时长-1，如果检测到超时则将IEEE发送到上位机
   \   00001E                ; Setup parameters for call to function decAllListEPLeftSec
   \   00001E   12....       LCALL   ??Subroutine14_0 & 0xFFFF
   \                     ??CrossCallReturnLabel_22:
   \   000021   12....       LCALL   ??decAllListEPLeftSec?relay
    470            mySendByteBuf(heartBeatBuf, 3);
   \   000024                ; Setup parameters for call to function mySendByteBuf
   \   000024   7C03         MOV     R4,#0x3
   \   000026   7D00         MOV     R5,#0x0
   \   000028   85..82       MOV     DPL,?XSP + 0
   \   00002B   85..83       MOV     DPH,?XSP + 1
   \   00002E   AA82         MOV     R2,DPL
   \   000030   AB83         MOV     R3,DPH
   \   000032   12....       LCALL   ??mySendByteBuf?relay
    471            HalLedBlink(HAL_LED_1, 1, 50, 500);
   \   000035                ; Setup parameters for call to function HalLedBlink
   \   000035   7CF4         MOV     R4,#-0xc
   \   000037   7D01         MOV     R5,#0x1
   \   000039   7B32         MOV     R3,#0x32
   \   00003B   7A01         MOV     R2,#0x1
   \   00003D   7901         MOV     R1,#0x1
   \   00003F   12....       LCALL   ??HalLedBlink?relay
    472          }
   \   000042   7403         MOV     A,#0x3
   \   000044   12....       LCALL   ?DEALLOC_XSTACK8
   \   000047                REQUIRE ?Subroutine2
   \   000047                ; // Fall through to label ?Subroutine2

   \                                 In  segment BANKED_CODE, align 1, keep-with-next
   \                     ?Subroutine2:
   \   000000   D083         POP     DPH
   \   000002   D082         POP     DPL
   \   000004   02....       LJMP    ?BRET
    473          
    474          /**
    475            终端心跳函数，用于定时向协调器发送本机地址信息
    476          */

   \                                 In  segment BANKED_CODE, align 1, keep-with-next
    477          void SampleApp_SendHeartBeatMessageEnd(void) { 
   \                     SampleApp_SendHeartBeatMessageEnd:
   \   000000   C082         PUSH    DPL
   \   000002   C083         PUSH    DPH
   \   000004                ; Saved register size: 2
   \   000004                ; Auto size: 0
    478            AfSendAddrInfo(0x71);
   \   000004                ; Setup parameters for call to function AfSendAddrInfo
   \   000004   12....       LCALL   ?Subroutine9 & 0xFFFF
    479            HalLedBlink(HAL_LED_1, 1, 50, 500);
    480          }
   \                     ??CrossCallReturnLabel_11:
   \   000007   80..         SJMP    ?Subroutine2
    481          
    482          /**
    483            发送终端地址信息到协调器
    484          */

   \                                 In  segment BANKED_CODE, align 1, keep-with-next
    485          void AfSendAddrInfo(uint8 cmd) {
   \                     AfSendAddrInfo:
   \   000000   74F5         MOV     A,#-0xb
   \   000002   12....       LCALL   ?BANKED_ENTER_XDATA
   \   000005                ; Saved register size: 11
   \   000005                ; Auto size: 13
   \   000005   74F3         MOV     A,#-0xd
   \   000007   12....       LCALL   ?ALLOC_XSTACK8
   \   00000A   E9           MOV     A,R1
   \   00000B   FE           MOV     R6,A
    486            uint16 shortAddr;
    487            uint8 strBuf[13] = {0};  
   \   00000C   85..82       MOV     DPL,?XSP + 0
   \   00000F   85..83       MOV     DPH,?XSP + 1
   \   000012   AC82         MOV     R4,DPL
   \   000014   AD83         MOV     R5,DPH
   \   000016   7583..       MOV     DPH,#(`?<Constant {0}>` >> 8) & 0xff
   \   000019   7582..       MOV     DPL,#`?<Constant {0}>` & 0xff
   \   00001C   740D         MOV     A,#0xd
   \   00001E   12....       LCALL   ?MOVE_LONG8_XDATA_XDATA
    488            
    489            shortAddr = NLME_GetShortAddr();
   \   000021                ; Setup parameters for call to function NLME_GetShortAddr
   \   000021   12....       LCALL   ??NLME_GetShortAddr?relay
    490            strBuf[0] = '#';  // 发送数据的标识，便于协调器解析
   \   000024   85..82       MOV     DPL,?XSP + 0
   \   000027   85..83       MOV     DPH,?XSP + 1
   \   00002A   7423         MOV     A,#0x23
   \   00002C   F0           MOVX    @DPTR,A
    491            strBuf[1] = cmd; // 消息类型标识
   \   00002D   7401         MOV     A,#0x1
   \   00002F   12....       LCALL   ?XSTACK_DISP0_8
   \   000032   EE           MOV     A,R6
   \   000033   F0           MOVX    @DPTR,A
    492            strBuf[2] = HI_UINT16(shortAddr); // 存放地址的高8位
   \   000034   7402         MOV     A,#0x2
   \   000036   12....       LCALL   ?XSTACK_DISP0_8
   \   000039   EB           MOV     A,R3
   \   00003A   F0           MOVX    @DPTR,A
    493            strBuf[3] = LO_UINT16(shortAddr); // 存放低8位
   \   00003B   7403         MOV     A,#0x3
   \   00003D   12....       LCALL   ?XSTACK_DISP0_8
   \   000040   EA           MOV     A,R2
   \   000041   12....       LCALL   ?Subroutine4 & 0xFFFF
    494            osal_memcpy(&strBuf[4], NLME_GetExtAddr(), 8); // 复制IEEE地址
   \                     ??CrossCallReturnLabel_2:
   \   000044   12....       LCALL   ?PUSH_XSTACK_I_THREE
   \   000047   7C08         MOV     R4,#0x8
   \   000049   7D00         MOV     R5,#0x0
   \   00004B   7407         MOV     A,#0x7
   \   00004D   12....       LCALL   ?XSTACK_DISP0_8
   \   000050   AA82         MOV     R2,DPL
   \   000052   AB83         MOV     R3,DPH
   \   000054   12....       LCALL   ??osal_memcpy?relay
   \   000057   7403         MOV     A,#0x3
   \   000059   12....       LCALL   ?DEALLOC_XSTACK8
    495            strBuf[12] = '@'; // 尾部字节
   \   00005C   740C         MOV     A,#0xc
   \   00005E   12....       LCALL   ?XSTACK_DISP0_8
   \   000061   7440         MOV     A,#0x40
   \   000063   F0           MOVX    @DPTR,A
    496            if ( AF_DataRequest( &SampleApp_TxAddr,                  // 发送的目的地址+端点地址+传送模式
    497                                (endPointDesc_t *)&SampleApp_epDesc, // 源终端的描述
    498                                SAMPLEAPP_PERIODIC_CLUSTERID,        // 被profile指定的有效的集群号
    499                                13,                                  // 发送数据长度
    500                                strBuf,                              // 发送数据缓冲区
    501                                &SampleApp_TransID,                  // 消息发送ID
    502                                AF_DISCV_ROUTE,                      // 有效位掩码的发送选项
    503                                AF_DEFAULT_RADIUS ) != afStatus_SUCCESS ) // 传送跳数，通常设置为AF_DEFAULT_RADIUS
   \   000064                ; Setup parameters for call to function AF_DataRequest
   \   000064   75..1E       MOV     ?V0 + 0,#0x1e
   \   000067   78..         MOV     R0,#?V0 + 0
   \   000069   12....       LCALL   ?PUSH_XSTACK_I_ONE
   \   00006C   75....       MOV     ?V0 + 0,#SampleApp_TransID & 0xff
   \   00006F   75....       MOV     ?V0 + 1,#(SampleApp_TransID >> 8) & 0xff
   \   000072   78..         MOV     R0,#?V0 + 0
   \   000074   12....       LCALL   ?PUSH_XSTACK_I_TWO
   \   000077   7403         MOV     A,#0x3
   \   000079   12....       LCALL   ?XSTACK_DISP0_8
   \   00007C   8582..       MOV     ?V0 + 0,DPL
   \   00007F   8583..       MOV     ?V0 + 1,DPH
   \   000082   78..         MOV     R0,#?V0 + 0
   \   000084   12....       LCALL   ?PUSH_XSTACK_I_TWO
   \   000087   75..0D       MOV     ?V0 + 0,#0xd
   \   00008A   75..00       MOV     ?V0 + 1,#0x0
   \   00008D   78..         MOV     R0,#?V0 + 0
   \   00008F   12....       LCALL   ?PUSH_XSTACK_I_TWO
   \   000092   75..01       MOV     ?V0 + 0,#0x1
   \   000095   78..         MOV     R0,#?V0 + 0
   \   000097   12....       LCALL   ?PUSH_XSTACK_I_TWO
   \   00009A   7920         MOV     R1,#0x20
   \   00009C   7C..         MOV     R4,#SampleApp_epDesc & 0xff
   \   00009E   7D..         MOV     R5,#(SampleApp_epDesc >> 8) & 0xff
   \   0000A0   7A..         MOV     R2,#SampleApp_TxAddr & 0xff
   \   0000A2   7B..         MOV     R3,#(SampleApp_TxAddr >> 8) & 0xff
   \   0000A4   12....       LCALL   ??AF_DataRequest?relay
   \   0000A7   7409         MOV     A,#0x9
   \   0000A9   12....       LCALL   ?DEALLOC_XSTACK8
   \   0000AC   E9           MOV     A,R1
   \   0000AD   6007         JZ      ??AfSendAddrInfo_0
    504            {
    505              myprintf("EP AfSendAddrInfo() failed\n");
   \   0000AF                ; Setup parameters for call to function myprintf
   \   0000AF   7A..         MOV     R2,#`?<Constant "EP AfSendAddrInfo() f...">` & 0xff
   \   0000B1   7B..         MOV     R3,#(`?<Constant "EP AfSendAddrInfo() f...">` >> 8) & 0xff
   \   0000B3   12....       LCALL   ??myprintf?relay
    506            }
    507          }
   \                     ??AfSendAddrInfo_0:
   \   0000B6   740D         MOV     A,#0xd
   \   0000B8                REQUIRE ?Subroutine0
   \   0000B8                ; // Fall through to label ?Subroutine0

   \                                 In  segment BANKED_CODE, align 1, keep-with-next
   \                     ?Subroutine0:
   \   000000   12....       LCALL   ?DEALLOC_XSTACK8
   \   000003                REQUIRE ??Subroutine15_0
   \   000003                ; // Fall through to label ??Subroutine15_0

   \                                 In  segment BANKED_CODE, align 1, keep-with-next
   \                     ?Subroutine4:
   \   000000   F0           MOVX    @DPTR,A
   \   000001                ; Setup parameters for call to function osal_memcpy
   \   000001                ; Setup parameters for call to function NLME_GetExtAddr
   \   000001                ; Setup parameters for call to function osal_memcpy
   \   000001                ; Setup parameters for call to function NLME_GetExtAddr
   \   000001   12....       LCALL   ??NLME_GetExtAddr?relay
   \   000004   8A..         MOV     ?V0 + 0,R2
   \   000006   8B..         MOV     ?V0 + 1,R3
   \   000008   75..00       MOV     ?V0 + 2,#0x0
   \   00000B   78..         MOV     R0,#?V0 + 0
   \   00000D   22           RET
    508          
    509          /**
    510            终端发送已经收到投币开始游戏命令
    511          */

   \                                 In  segment BANKED_CODE, align 1, keep-with-next
    512          void AfReplyGetCoinCmd(void) {
   \                     AfReplyGetCoinCmd:
   \   000000   74F5         MOV     A,#-0xb
   \   000002   12....       LCALL   ?BANKED_ENTER_XDATA
   \   000005                ; Saved register size: 11
   \   000005                ; Auto size: 11
   \   000005   74F5         MOV     A,#-0xb
   \   000007   12....       LCALL   ?ALLOC_XSTACK8
    513            uint8 strBuf[11] = {0};  
   \   00000A   85..82       MOV     DPL,?XSP + 0
   \   00000D   85..83       MOV     DPH,?XSP + 1
   \   000010   AC82         MOV     R4,DPL
   \   000012   AD83         MOV     R5,DPH
   \   000014   7583..       MOV     DPH,#(`?<Constant {0}>_1` >> 8) & 0xff
   \   000017   7582..       MOV     DPL,#`?<Constant {0}>_1` & 0xff
   \   00001A   740B         MOV     A,#0xb
   \   00001C   12....       LCALL   ?MOVE_LONG8_XDATA_XDATA
    514            
    515            strBuf[0] = '#';  // 发送数据的标识，便于协调器解析
   \   00001F   85..82       MOV     DPL,?XSP + 0
   \   000022   85..83       MOV     DPH,?XSP + 1
   \   000025   7423         MOV     A,#0x23
   \   000027   F0           MOVX    @DPTR,A
    516            strBuf[1] = 0x72; // 消息类型标识
   \   000028   7401         MOV     A,#0x1
   \   00002A   12....       LCALL   ?XSTACK_DISP0_8
   \   00002D   7472         MOV     A,#0x72
   \   00002F   12....       LCALL   ?Subroutine4 & 0xFFFF
    517            osal_memcpy(&strBuf[2], NLME_GetExtAddr(), 8); // 复制IEEE地址
   \                     ??CrossCallReturnLabel_3:
   \   000032   12....       LCALL   ?PUSH_XSTACK_I_THREE
   \   000035   7C08         MOV     R4,#0x8
   \   000037   7D00         MOV     R5,#0x0
   \   000039   7405         MOV     A,#0x5
   \   00003B   12....       LCALL   ?XSTACK_DISP0_8
   \   00003E   AA82         MOV     R2,DPL
   \   000040   AB83         MOV     R3,DPH
   \   000042   12....       LCALL   ??osal_memcpy?relay
   \   000045   7403         MOV     A,#0x3
   \   000047   12....       LCALL   ?DEALLOC_XSTACK8
    518            strBuf[10] = '@'; // 尾部字节
   \   00004A   740A         MOV     A,#0xa
   \   00004C   12....       LCALL   ?XSTACK_DISP0_8
   \   00004F   7440         MOV     A,#0x40
   \   000051   F0           MOVX    @DPTR,A
    519            if ( AF_DataRequest( &SampleApp_TxAddr,                  // 发送的目的地址+端点地址+传送模式
    520                                (endPointDesc_t *)&SampleApp_epDesc, // 源终端的描述
    521                                SAMPLEAPP_PERIODIC_CLUSTERID,        // 被profile指定的有效的集群号
    522                                11,                                  // 发送数据长度
    523                                strBuf,                              // 发送数据缓冲区
    524                                &SampleApp_TransID,                  // 消息发送ID
    525                                AF_DISCV_ROUTE,                      // 有效位掩码的发送选项
    526                                AF_DEFAULT_RADIUS ) != afStatus_SUCCESS ) // 传送跳数，通常设置为AF_DEFAULT_RADIUS
   \   000052                ; Setup parameters for call to function AF_DataRequest
   \   000052   75..1E       MOV     ?V0 + 0,#0x1e
   \   000055   78..         MOV     R0,#?V0 + 0
   \   000057   12....       LCALL   ?PUSH_XSTACK_I_ONE
   \   00005A   75....       MOV     ?V0 + 0,#SampleApp_TransID & 0xff
   \   00005D   75....       MOV     ?V0 + 1,#(SampleApp_TransID >> 8) & 0xff
   \   000060   78..         MOV     R0,#?V0 + 0
   \   000062   12....       LCALL   ?PUSH_XSTACK_I_TWO
   \   000065   7403         MOV     A,#0x3
   \   000067   12....       LCALL   ?XSTACK_DISP0_8
   \   00006A   8582..       MOV     ?V0 + 0,DPL
   \   00006D   8583..       MOV     ?V0 + 1,DPH
   \   000070   78..         MOV     R0,#?V0 + 0
   \   000072   12....       LCALL   ?PUSH_XSTACK_I_TWO
   \   000075   75..0B       MOV     ?V0 + 0,#0xb
   \   000078   75..00       MOV     ?V0 + 1,#0x0
   \   00007B   78..         MOV     R0,#?V0 + 0
   \   00007D   12....       LCALL   ?PUSH_XSTACK_I_TWO
   \   000080   75..01       MOV     ?V0 + 0,#0x1
   \   000083   78..         MOV     R0,#?V0 + 0
   \   000085   12....       LCALL   ?PUSH_XSTACK_I_TWO
   \   000088   7920         MOV     R1,#0x20
   \   00008A   7C..         MOV     R4,#SampleApp_epDesc & 0xff
   \   00008C   7D..         MOV     R5,#(SampleApp_epDesc >> 8) & 0xff
   \   00008E   7A..         MOV     R2,#SampleApp_TxAddr & 0xff
   \   000090   7B..         MOV     R3,#(SampleApp_TxAddr >> 8) & 0xff
   \   000092   12....       LCALL   ??AF_DataRequest?relay
   \   000095   7409         MOV     A,#0x9
   \   000097   12....       LCALL   ?DEALLOC_XSTACK8
   \   00009A   E9           MOV     A,R1
   \   00009B   6007         JZ      ??AfReplyGetCoinCmd_0
    527            {
    528              myprintf("EP AfReplyGetCoinCmd() failed\n");
   \   00009D                ; Setup parameters for call to function myprintf
   \   00009D   7A..         MOV     R2,#`?<Constant "EP AfReplyGetCoinCmd(...">` & 0xff
   \   00009F   7B..         MOV     R3,#(`?<Constant "EP AfReplyGetCoinCmd(...">` >> 8) & 0xff
   \   0000A1   12....       LCALL   ??myprintf?relay
    529            }
    530          }
   \                     ??AfReplyGetCoinCmd_0:
   \   0000A4   740B         MOV     A,#0xb
   \   0000A6   02....       LJMP    ?Subroutine0 & 0xFFFF

   \                                 In  segment BANK_RELAYS, align 1
   \                     ??SampleApp_Init?relay:
   \   000000   12....       LCALL   ?BDISPATCH
   \   000003   ......       DC24    SampleApp_Init

   \                                 In  segment BANK_RELAYS, align 1
   \                     ??SampleApp_ProcessEvent?relay:
   \   000000   12....       LCALL   ?BDISPATCH
   \   000003   ......       DC24    SampleApp_ProcessEvent

   \                                 In  segment BANK_RELAYS, align 1
   \                     ??SampleApp_HandleKeys?relay:
   \   000000   12....       LCALL   ?BDISPATCH
   \   000003   ......       DC24    SampleApp_HandleKeys

   \                                 In  segment BANK_RELAYS, align 1
   \                     ??SampleApp_MessageMSGCB?relay:
   \   000000   12....       LCALL   ?BDISPATCH
   \   000003   ......       DC24    SampleApp_MessageMSGCB

   \                                 In  segment BANK_RELAYS, align 1
   \                     ??SampleApp_SendPeriodicMessage?relay:
   \   000000   12....       LCALL   ?BDISPATCH
   \   000003   ......       DC24    SampleApp_SendPeriodicMessage

   \                                 In  segment BANK_RELAYS, align 1
   \                     ??SampleApp_SendHeartBeatMessageCoor?relay:
   \   000000   12....       LCALL   ?BDISPATCH
   \   000003   ......       DC24    SampleApp_SendHeartBeatMessageCoor

   \                                 In  segment BANK_RELAYS, align 1
   \                     ??SampleApp_SendHeartBeatMessageEnd?relay:
   \   000000   12....       LCALL   ?BDISPATCH
   \   000003   ......       DC24    SampleApp_SendHeartBeatMessageEnd

   \                                 In  segment BANK_RELAYS, align 1
   \                     ??AfSendAddrInfo?relay:
   \   000000   12....       LCALL   ?BDISPATCH
   \   000003   ......       DC24    AfSendAddrInfo

   \                                 In  segment BANK_RELAYS, align 1
   \                     ??AfReplyGetCoinCmd?relay:
   \   000000   12....       LCALL   ?BDISPATCH
   \   000003   ......       DC24    AfReplyGetCoinCmd

   \                                 In  segment XDATA_ROM_C, align 1
   \                     `?<Constant "Group 1">`:
   \   000000   47726F75     DB "Group 1"
   \            70203100

   \                                 In  segment XDATA_ROM_C, align 1
   \                     `?<Constant "UartInit OK\\n">`:
   \   000000   55617274     DB "UartInit OK\012"
   \            496E6974
   \            204F4B0A
   \            00      

   \                                 In  segment XDATA_ROM_C, align 1
   \                     `?<Constant "InitList_L OVERFLOW\\n">`:
   \   000000   496E6974     DB "InitList_L OVERFLOW\012"
   \            4C697374
   \            5F4C204F
   \            56455246
   \            4C4F570A
   \            00      

   \                                 In  segment XDATA_ROM_C, align 1
   \                     `?<Constant {35, 69, 64}>`:
   \   000000   23           DB 35
   \   000001   45           DB 69
   \   000002   40           DB 64

   \                                 In  segment XDATA_ROM_C, align 1
   \                     `?<Constant "AF_DATA_CONFIRM_CMD\\n">`:
   \   000000   41465F44     DB "AF_DATA_CONFIRM_CMD\012"
   \            4154415F
   \            434F4E46
   \            49524D5F
   \            434D440A
   \            00      

   \                                 In  segment XDATA_ROM_C, align 1
   \                     `?<Constant "AF_DATA_CONFIRM_CMD f...">`:
   \   000000   41465F44     DB "AF_DATA_CONFIRM_CMD failed\012"
   \            4154415F
   \            434F4E46
   \            49524D5F
   \            434D4420
   \            6661696C
   \            65640A00

   \                                 In  segment XDATA_ROM_C, align 1
   \                     `?<Constant "AF_INCOMING_MSG_CMD\\n">`:
   \   000000   41465F49     DB "AF_INCOMING_MSG_CMD\012"
   \            4E434F4D
   \            494E475F
   \            4D53475F
   \            434D440A
   \            00      

   \                                 In  segment XDATA_ROM_C, align 1
   \                     `?<Constant "SampleApp_NwkState = %d\\n">`:
   \   000000   53616D70     DB "SampleApp_NwkState = %d\012"
   \            6C654170
   \            705F4E77
   \            6B537461
   \            7465203D
   \            2025640A
   \            00      

   \                                 In  segment XDATA_ROM_C, align 1
   \                     `?<Constant "COORD device started\\n">`:
   \   000000   434F4F52     DB "COORD device started\012"
   \            44206465
   \            76696365
   \            20737461
   \            72746564
   \            0A00    

   \                                 In  segment XDATA_ROM_C, align 1
   \                     `?<Constant "ROUTER device started\\n">`:
   \   000000   524F5554     DB "ROUTER device started\012"
   \            45522064
   \            65766963
   \            65207374
   \            61727465
   \            640A00  

   \                                 In  segment XDATA_ROM_C, align 1
   \                     `?<Constant "END device started\\n">`:
   \   000000   454E4420     DB "END device started\012"
   \            64657669
   \            63652073
   \            74617274
   \            65640A00

   \                                 In  segment XDATA_ROM_C, align 1
   \                     `?<Constant "unknown pkg-event = 0...">`:
   \   000000   756E6B6E     DB "unknown pkg-event = 0x%x\012"
   \            6F776E20
   \            706B672D
   \            6576656E
   \            74203D20
   \            30782578
   \            0A00    

   \                                 In  segment XDATA_ROM_C, align 1
   \                     `?<Constant "Insert new EP in list\\n">`:
   \   000000   496E7365     DB "Insert new EP in list\012"
   \            7274206E
   \            65772045
   \            5020696E
   \            206C6973
   \            740A00  

   \                                 In  segment XDATA_ROM_C, align 1
   \                     `?<Constant "Already In List, upda...">`:
   \   000000   416C7265     DB "Already In List, update()\012"
   \            61647920
   \            496E204C
   \            6973742C
   \            20757064
   \            61746528
   \            290A00  

   \                                 In  segment XDATA_ROM_C, align 1
   \                     `?<Constant "length = %d\\n">`:
   \   000000   6C656E67     DB "length = %d\012"
   \            7468203D
   \            2025640A
   \            00      

   \                                 In  segment XDATA_ROM_C, align 1
   \                     `?<Constant "\\nRECV EP Key S1 addr ...">`:
   \   000000   0A524543     DB "\012RECV EP Key S1 addr info\012"
   \            56204550
   \            204B6579
   \            20533120
   \            61646472
   \            20696E66
   \            6F0A00  

   \                                 In  segment XDATA_ROM_C, align 1
   \                     `?<Constant {35, 49, 0, 64}>`:
   \   000000   23           DB 35
   \   000001   31           DB 49
   \   000002   00           DB 0
   \   000003   40           DB 64

   \                                 In  segment XDATA_ROM_C, align 1
   \                     `?<Constant "press key S2\\n">`:
   \   000000   70726573     DB "press key S2\012"
   \            73206B65
   \            79205332
   \            0A00    

   \                                 In  segment XDATA_ROM_C, align 1
   \                     `?<Constant {35, 70, 64}>`:
   \   000000   23           DB 35
   \   000001   46           DB 70
   \   000002   40           DB 64

   \                                 In  segment XDATA_ROM_C, align 1
   \                     `?<Constant {0}>`:
   \   000000   00           DB 0
   \   000001   00000000     DB 0, 0, 0, 0, 0, 0, 0, 0
   \            00000000
   \   000009   00000000     DB 0, 0, 0, 0

   \                                 In  segment XDATA_ROM_C, align 1
   \                     `?<Constant "EP AfSendAddrInfo() f...">`:
   \   000000   45502041     DB "EP AfSendAddrInfo() failed\012"
   \            6653656E
   \            64416464
   \            72496E66
   \            6F282920
   \            6661696C
   \            65640A00

   \                                 In  segment XDATA_ROM_C, align 1
   \                     `?<Constant {0}>_1`:
   \   000000   00           DB 0
   \   000001   00000000     DB 0, 0, 0, 0, 0, 0, 0, 0
   \            00000000
   \   000009   0000         DB 0, 0

   \                                 In  segment XDATA_ROM_C, align 1
   \                     `?<Constant "EP AfReplyGetCoinCmd(...">`:
   \   000000   45502041     DB "EP AfReplyGetCoinCmd() failed\012"
   \            66526570
   \            6C794765
   \            74436F69
   \            6E436D64
   \            28292066
   \            61696C65
   \            640A00  

   Maximum stack usage in bytes:

     Function                       ISTACK PSTACK XSTACK
     --------                       ------ ------ ------
     AfReplyGetCoinCmd                  2      0     31
       -> NLME_GetExtAddr               0      0     44
       -> osal_memcpy                   0      0     50
       -> AF_DataRequest                0      0     62
       -> myprintf                      0      0     44
     AfSendAddrInfo                     2      0     48
       -> NLME_GetShortAddr             0      0     48
       -> NLME_GetExtAddr               0      0     48
       -> osal_memcpy                   0      0     54
       -> AF_DataRequest                0      0     66
       -> myprintf                      0      0     48
     SampleApp_HandleKeys               0      0     24
       -> SampleApp_SendPeriodicMessage
                                        0      0     18
       -> SampleApp_SendPeriodicMessage
                                        0      0     18
     SampleApp_Init                     0      0     14
       -> afRegister                    0      0     22
       -> RegisterForKeys               0      0     22
       -> osal_memcpy                   0      0     28
       -> aps_AddGroup                  0      0     22
       -> MT_UartInit                   0      0     22
       -> MT_UartRegisterTaskID         0      0     22
       -> myprintf                      0      0     22
       -> InitList_L                    0      0     22
       -> myprintf                      0      0     22
     SampleApp_MessageMSGCB             0      0     29
       -> checkEPInList                 0      0     20
       -> ListLength_L                  0      0     20
       -> ListInsert_L                  0      0     28
       -> myprintf                      0      0     20
       -> updateListEleStatus           0      0     24
       -> myprintf                      0      0     20
       -> ListLength_L                  0      0     20
       -> myprintf                      0      0     24
       -> mySendByteBuf                 0      0     20
       -> mySendByteBuf                 0      0     20
       -> myprintf                      0      0     20
     SampleApp_ProcessEvent             2      0     17
       -> osal_msg_receive              0      0     30
       -> myprintf                      0      0     34
       -> osal_msg_deallocate           0      0     30
       -> osal_msg_receive              0      0     30
       -> myprintf                      0      0     30
       -> myprintf                      0      0     30
       -> SampleApp_HandleKeys          0      0     30
       -> myprintf                      0      0     30
       -> SampleApp_MessageMSGCB        0      0     30
       -> myprintf                      0      0     34
       -> myprintf                      0      0     30
       -> mySendByteBuf                 0      0     30
       -> myprintf                      0      0     30
       -> myprintf                      0      0     30
       -> AfSendAddrInfo                0      0     30
       -> HalLedBlink                   0      0     30
       -> osal_start_timerEx            0      0     30
       -> SampleApp_SendHeartBeatMessageCoor
                                        0      0     30
       -> osal_start_timerEx            0      0     30
     SampleApp_SendHeartBeatMessageCoor
                                        4      0     18
       -> decAllListEPLeftSec           4      0      6
       -> mySendByteBuf                 4      0      6
       -> HalLedBlink                   4      0      6
     SampleApp_SendHeartBeatMessageEnd
                                        2      0      0
       -> AfSendAddrInfo                4      0      0
       -> HalLedBlink                   4      0      0
     SampleApp_SendPeriodicMessage      2      0     32
       -> AF_DataRequest                0      0     46
       -> HalLedBlink                   0      0     28
       -> myprintf                      0      0     28


   Segment part sizes:

     Function/Label                             Bytes
     --------------                             -----
     _A_P0                                         1
     P0SEL                                         1
     P0DIR                                         1
     SampleApp_ClusterList                         8
     SampleApp_SimpleDesc                         12
     SampleApp_epDesc                              6
     GenericApp_DstAddr                           12
     EndPoint_DstAddr                             12
     SampleApp_TaskID                              1
     SampleApp_NwkState                            1
     SampleApp_TransID                             1
     SampleApp_Periodic_DstAddr                   12
     SampleApp_TxAddr                             12
     SampleApp_Group                              18
     SampleAppPeriodicCounter                      1
     SampleAppFlashCounter                         1
     LL                                            2
     SampleApp_Init                              229
     ??Subroutine15_0                              5
     SampleApp_ProcessEvent                      337
     ?Subroutine6                                 13
     ?Subroutine9                                 19
     SampleApp_HandleKeys                         28
     SampleApp_MessageMSGCB                      291
     ?Subroutine1                                  5
     ?Subroutine11                                 4
     ?Subroutine13                                11
     ?Subroutine10                                 8
     ?Subroutine7                                 13
     ?Subroutine12                                 5
     ?Subroutine5                                 16
     ?Subroutine3                                 19
     ?Subroutine8                                  3
     ??Subroutine14_0                              9
     SampleApp_SendPeriodicMessage               148
     SampleApp_SendHeartBeatMessageCoor
                                                  71
     ?Subroutine2                                  7
     SampleApp_SendHeartBeatMessageEnd
                                                   9
     AfSendAddrInfo                              184
     ?Subroutine0                                  3
     ?Subroutine4                                 14
     AfReplyGetCoinCmd                           169
     ??SampleApp_Init?relay                        6
     ??SampleApp_ProcessEvent?relay                6
     ??SampleApp_HandleKeys?relay                  6
     ??SampleApp_MessageMSGCB?relay                6
     ??SampleApp_SendPeriodicMessage?relay         6
     ??SampleApp_SendHeartBeatMessageCoor?relay    6
     ??SampleApp_SendHeartBeatMessageEnd?relay     6
     ??AfSendAddrInfo?relay                        6
     ??AfReplyGetCoinCmd?relay                     6
     ?<Constant "Group 1">                         8
     ?<Constant "UartInit OK\n">                  13
     ?<Constant "InitList_L OVERFLOW\n">          21
     ?<Constant {35, 69, 64}>                      3
     ?<Constant "AF_DATA_CONFIRM_CMD\n">          21
     ?<Constant "AF_DATA_CONFIRM_CMD f...">       28
     ?<Constant "AF_INCOMING_MSG_CMD\n">          21
     ?<Constant "SampleApp_NwkState = %d\n">      25
     ?<Constant "COORD device started\n">         22
     ?<Constant "ROUTER device started\n">        23
     ?<Constant "END device started\n">           20
     ?<Constant "unknown pkg-event = 0...">       26
     ?<Constant "Insert new EP in list\n">        23
     ?<Constant "Already In List, upda...">       27
     ?<Constant "length = %d\n">                  13
     ?<Constant "\nRECV EP Key S1 addr ...">      27
     ?<Constant {35, 49, 0, 64}>                   4
     ?<Constant "press key S2\n">                 14
     ?<Constant {35, 70, 64}>                      3
     ?<Constant {0}>                              13
     ?<Constant "EP AfSendAddrInfo() f...">       28
     ?<Constant {0}>_1                            11
     ?<Constant "EP AfReplyGetCoinCmd(...">       31

 
 1 620 bytes in segment BANKED_CODE
    54 bytes in segment BANK_RELAYS
     3 bytes in segment SFR_AN
   445 bytes in segment XDATA_ROM_C
    79 bytes in segment XDATA_Z
 
 1 674 bytes of CODE  memory
   445 bytes of CONST memory
     0 bytes of DATA  memory (+ 3 bytes shared)
    79 bytes of XDATA memory

Errors: none
Warnings: none
