###############################################################################
#                                                                             #
# IAR C/C++ Compiler V8.10.3.10338/W32 for 8051         10/Jun/2019  16:05:17 #
# Copyright 2004-2011 IAR Systems AB.                                         #
#                                                                             #
#    Core               =  plain                                              #
#    Code model         =  banked                                             #
#    Data model         =  large                                              #
#    Calling convention =  xdata reentrant                                    #
#    Constant location  =  data_rom                                           #
#    Dptr setup         =  1,16                                               #
#    Source file        =  E:\Github_Repository\zigbee-net-tech\ZStack-2.5.1a #
#                          \Projects\zstack\Samples\SampleApp\Source\SampleAp #
#                          p.c                                                #
#    Command line       =  -f E:\Github_Repository\zigbee-net-tech\ZStack-2.5 #
#                          .1a\Projects\zstack\Samples\SampleApp\CC2530DB\..\ #
#                          ..\..\Tools\CC2530DB\f8wCoord.cfg (-DCPU32MHZ      #
#                          -DROOT=__near_func -DMAC_CFG_APP_PENDING_QUEUE=TRU #
#                          E -DMAC_CFG_TX_DATA_MAX=5 -DMAC_CFG_TX_MAX=8       #
#                          -DMAC_CFG_RX_MAX=5 -DZDO_COORDINATOR -DRTR_NWK)    #
#                          -f E:\Github_Repository\zigbee-net-tech\ZStack-2.5 #
#                          .1a\Projects\zstack\Samples\SampleApp\CC2530DB\..\ #
#                          ..\..\Tools\CC2530DB\f8wConfig.cfg (-DZIGBEEPRO    #
#                          -DSECURE=0 -DZG_SECURE_DYNAMIC=0 -DREFLECTOR       #
#                          -DDEFAULT_CHANLIST=0x00000800                      #
#                          -DZDAPP_CONFIG_PAN_ID=0xFFF1                       #
#                          -DNWK_START_DELAY=100 -DEXTENDED_JOINING_RANDOM_MA #
#                          SK=0x007F -DBEACON_REQUEST_DELAY=100               #
#                          -DBEACON_REQ_DELAY_MASK=0x00FF                     #
#                          -DLINK_STATUS_JITTER_MASK=0x007F                   #
#                          -DROUTE_EXPIRY_TIME=30 -DAPSC_ACK_WAIT_DURATION_PO #
#                          LLED=3000 -DNWK_INDIRECT_MSG_TIMEOUT=7             #
#                          -DMAX_RREQ_ENTRIES=8 -DAPSC_MAX_FRAME_RETRIES=3    #
#                          -DNWK_MAX_DATA_RETRIES=2                           #
#                          -DMAX_POLL_FAILURE_RETRIES=2 -DMAX_BCAST=9         #
#                          -DAPS_MAX_GROUPS=16 -DMAX_RTG_ENTRIES=40           #
#                          -DNWK_MAX_BINDING_ENTRIES=4                        #
#                          -DMAX_BINDING_CLUSTER_IDS=4 "-DDEFAULT_KEY={0x01,  #
#                          0x03, 0x05, 0x07, 0x09, 0x0B, 0x0D, 0x0F, 0x00,    #
#                          0x02, 0x04, 0x06, 0x08, 0x0A, 0x0C, 0x0D}"         #
#                          -DMAC_MAX_FRAME_SIZE=116                           #
#                          -DZDNWKMGR_MIN_TRANSMISSIONS=20 "-DCONST=const     #
#                          __code" -DGENERIC=__generic                        #
#                          -DRFD_RCVC_ALWAYS_ON=FALSE -DPOLL_RATE=1000        #
#                          -DQUEUED_POLL_RATE=100 -DRESPONSE_POLL_RATE=100)   #
#                          -DREJOIN_POLL_RATE=440 E:\Github_Repository\zigbee #
#                          -net-tech\ZStack-2.5.1a\Projects\zstack\Samples\Sa #
#                          mpleApp\Source\SampleApp.c -D NWK_AUTO_POLL -D     #
#                          ZIGBEEPRO -D ZTOOL_P1 -D xMT_TASK -D xMT_SYS_FUNC  #
#                          -D xMT_ZDO_FUNC -lC E:\Github_Repository\zigbee-ne #
#                          t-tech\ZStack-2.5.1a\Projects\zstack\Samples\Sampl #
#                          eApp\CC2530DB\CoordinatorEB\List\ -lA              #
#                          E:\Github_Repository\zigbee-net-tech\ZStack-2.5.1a #
#                          \Projects\zstack\Samples\SampleApp\CC2530DB\Coordi #
#                          natorEB\List\ --diag_suppress Pe001,Pa010 -o       #
#                          E:\Github_Repository\zigbee-net-tech\ZStack-2.5.1a #
#                          \Projects\zstack\Samples\SampleApp\CC2530DB\Coordi #
#                          natorEB\Obj\ -e --no_code_motion --debug           #
#                          --core=plain --dptr=16,1 --data_model=large        #
#                          --code_model=banked --calling_convention=xdata_ree #
#                          ntrant --place_constants=data_rom                  #
#                          --nr_virtual_regs 16 -I E:\Github_Repository\zigbe #
#                          e-net-tech\ZStack-2.5.1a\Projects\zstack\Samples\S #
#                          ampleApp\CC2530DB\ -I E:\Github_Repository\zigbee- #
#                          net-tech\ZStack-2.5.1a\Projects\zstack\Samples\Sam #
#                          pleApp\CC2530DB\..\Source\ -I                      #
#                          E:\Github_Repository\zigbee-net-tech\ZStack-2.5.1a #
#                          \Projects\zstack\Samples\SampleApp\CC2530DB\..\..\ #
#                          ..\ZMain\TI2530DB\ -I E:\Github_Repository\zigbee- #
#                          net-tech\ZStack-2.5.1a\Projects\zstack\Samples\Sam #
#                          pleApp\CC2530DB\..\..\..\..\..\Components\hal\incl #
#                          ude\ -I E:\Github_Repository\zigbee-net-tech\ZStac #
#                          k-2.5.1a\Projects\zstack\Samples\SampleApp\CC2530D #
#                          B\..\..\..\..\..\Components\hal\target\CC2530EB\   #
#                          -I E:\Github_Repository\zigbee-net-tech\ZStack-2.5 #
#                          .1a\Projects\zstack\Samples\SampleApp\CC2530DB\..\ #
#                          ..\..\..\..\Components\mac\include\ -I             #
#                          E:\Github_Repository\zigbee-net-tech\ZStack-2.5.1a #
#                          \Projects\zstack\Samples\SampleApp\CC2530DB\..\..\ #
#                          ..\..\..\Components\mac\high_level\ -I             #
#                          E:\Github_Repository\zigbee-net-tech\ZStack-2.5.1a #
#                          \Projects\zstack\Samples\SampleApp\CC2530DB\..\..\ #
#                          ..\..\..\Components\mac\low_level\srf04\ -I        #
#                          E:\Github_Repository\zigbee-net-tech\ZStack-2.5.1a #
#                          \Projects\zstack\Samples\SampleApp\CC2530DB\..\..\ #
#                          ..\..\..\Components\mac\low_level\srf04\single_chi #
#                          p\ -I E:\Github_Repository\zigbee-net-tech\ZStack- #
#                          2.5.1a\Projects\zstack\Samples\SampleApp\CC2530DB\ #
#                          ..\..\..\..\..\Components\mt\ -I                   #
#                          E:\Github_Repository\zigbee-net-tech\ZStack-2.5.1a #
#                          \Projects\zstack\Samples\SampleApp\CC2530DB\..\..\ #
#                          ..\..\..\Components\osal\include\ -I               #
#                          E:\Github_Repository\zigbee-net-tech\ZStack-2.5.1a #
#                          \Projects\zstack\Samples\SampleApp\CC2530DB\..\..\ #
#                          ..\..\..\Components\services\saddr\ -I             #
#                          E:\Github_Repository\zigbee-net-tech\ZStack-2.5.1a #
#                          \Projects\zstack\Samples\SampleApp\CC2530DB\..\..\ #
#                          ..\..\..\Components\services\sdata\ -I             #
#                          E:\Github_Repository\zigbee-net-tech\ZStack-2.5.1a #
#                          \Projects\zstack\Samples\SampleApp\CC2530DB\..\..\ #
#                          ..\..\..\Components\stack\af\ -I                   #
#                          E:\Github_Repository\zigbee-net-tech\ZStack-2.5.1a #
#                          \Projects\zstack\Samples\SampleApp\CC2530DB\..\..\ #
#                          ..\..\..\Components\stack\nwk\ -I                  #
#                          E:\Github_Repository\zigbee-net-tech\ZStack-2.5.1a #
#                          \Projects\zstack\Samples\SampleApp\CC2530DB\..\..\ #
#                          ..\..\..\Components\stack\sapi\ -I                 #
#                          E:\Github_Repository\zigbee-net-tech\ZStack-2.5.1a #
#                          \Projects\zstack\Samples\SampleApp\CC2530DB\..\..\ #
#                          ..\..\..\Components\stack\sec\ -I                  #
#                          E:\Github_Repository\zigbee-net-tech\ZStack-2.5.1a #
#                          \Projects\zstack\Samples\SampleApp\CC2530DB\..\..\ #
#                          ..\..\..\Components\stack\sys\ -I                  #
#                          E:\Github_Repository\zigbee-net-tech\ZStack-2.5.1a #
#                          \Projects\zstack\Samples\SampleApp\CC2530DB\..\..\ #
#                          ..\..\..\Components\stack\zdo\ -I                  #
#                          E:\Github_Repository\zigbee-net-tech\ZStack-2.5.1a #
#                          \Projects\zstack\Samples\SampleApp\CC2530DB\..\..\ #
#                          ..\..\..\Components\zmac\ -I                       #
#                          E:\Github_Repository\zigbee-net-tech\ZStack-2.5.1a #
#                          \Projects\zstack\Samples\SampleApp\CC2530DB\..\..\ #
#                          ..\..\..\Components\zmac\f8w\ -Ohz                 #
#                          --require_prototypes                               #
#    List file          =  E:\Github_Repository\zigbee-net-tech\ZStack-2.5.1a #
#                          \Projects\zstack\Samples\SampleApp\CC2530DB\Coordi #
#                          natorEB\List\SampleApp.lst                         #
#    Object file        =  E:\Github_Repository\zigbee-net-tech\ZStack-2.5.1a #
#                          \Projects\zstack\Samples\SampleApp\CC2530DB\Coordi #
#                          natorEB\Obj\SampleApp.r51                          #
#                                                                             #
#                                                                             #
###############################################################################

E:\Github_Repository\zigbee-net-tech\ZStack-2.5.1a\Projects\zstack\Samples\SampleApp\Source\SampleApp.c
      1          /**************************************************************************************************
      2          Filename:       SampleApp.c
      3          Revised:        $Date: 2009-03-18 15:56:27 -0700 (Wed, 18 Mar 2009) $
      4          Revision:       $Revision: 19453 $
      5          
      6          Description:    Sample Application (no Profile).
      7          
      8          
      9          Copyright 2007 Texas Instruments Incorporated. All rights reserved.
     10          
     11          IMPORTANT: Your use of this Software is limited to those specific rights
     12          granted under the terms of a software license agreement between the user
     13          who downloaded the software, his/her employer (which must be your employer)
     14          and Texas Instruments Incorporated (the "License").  You may not use this
     15          Software unless you agree to abide by the terms of the License. The License
     16          limits your use, and you acknowledge, that the Software may not be modified,
     17          copied or distributed unless embedded on a Texas Instruments microcontroller
     18          or used solely and exclusively in conjunction with a Texas Instruments radio
     19          frequency transceiver, which is integrated into your product.  Other than for
     20          the foregoing purpose, you may not use, reproduce, copy, prepare derivative
     21          works of, modify, distribute, perform, display or sell this Software and/or
     22          its documentation for any purpose.
     23          
     24          YOU FURTHER ACKNOWLEDGE AND AGREE THAT THE SOFTWARE AND DOCUMENTATION ARE
     25          PROVIDED AS IS?WITHOUT WARRANTY OF ANY KIND, EITHER EXPRESS OR IMPLIED,
     26          INCLUDING WITHOUT LIMITATION, ANY WARRANTY OF MERCHANTABILITY, TITLE,
     27          NON-INFRINGEMENT AND FITNESS FOR A PARTICULAR PURPOSE. IN NO EVENT SHALL
     28          TEXAS INSTRUMENTS OR ITS LICENSORS BE LIABLE OR OBLIGATED UNDER CONTRACT,
     29          NEGLIGENCE, STRICT LIABILITY, CONTRIBUTION, BREACH OF WARRANTY, OR OTHER
     30          LEGAL EQUITABLE THEORY ANY DIRECT OR INDIRECT DAMAGES OR EXPENSES
     31          INCLUDING BUT NOT LIMITED TO ANY INCIDENTAL, SPECIAL, INDIRECT, PUNITIVE
     32          OR CONSEQUENTIAL DAMAGES, LOST PROFITS OR LOST DATA, COST OF PROCUREMENT
     33          OF SUBSTITUTE GOODS, TECHNOLOGY, SERVICES, OR ANY CLAIMS BY THIRD PARTIES
     34          (INCLUDING BUT NOT LIMITED TO ANY DEFENSE THEREOF), OR OTHER SIMILAR COSTS.
     35          
     36          Should you have any questions regarding your right to use this Software,
     37          contact Texas Instruments Incorporated at www.TI.com.
     38          **************************************************************************************************/
     39          
     40          /*********************************************************************
     41          This application isn't intended to do anything useful, it is
     42          intended to be a simple example of an application's structure.
     43          
     44          This application sends it's messages either as broadcast or
     45          broadcast filtered group messages.  The other (more normal)
     46          message addressing is unicast.  Most of the other sample
     47          applications are written to support the unicast message model.
     48          
     49          Key control:
     50          SW1:  Sends a flash command to all devices in Group 1.
     51          SW2:  Adds/Removes (toggles) this device in and out
     52          of Group 1.  This will enable and disable the
     53          reception of the flash command.
     54          *********************************************************************/
     55          
     56          /*********************************************************************
     57          * INCLUDES
     58          */
     59          #include "OSAL.h"
     60          #include "ZGlobals.h"
     61          #include "AF.h"
     62          #include "aps_groups.h"
     63          #include "ZDObject.h"
     64          #include "ZDProfile.h"
     65          #include "ZDApp.h"
     66          
     67          #include "SampleApp.h"
     68          #include "SampleAppHw.h"
     69          #include "SinglyLinkedList.h"
     70          
     71          #include "OnBoard.h"

   \                                 In  segment SFR_AN, at 0x80
   \   union <unnamed> volatile __sfr _A_P0
   \                     _A_P0:
   \   000000                DS 1

   \                                 In  segment SFR_AN, at 0xf3
   \   unsigned char volatile __sfr P0SEL
   \                     P0SEL:
   \   000000                DS 1

   \                                 In  segment SFR_AN, at 0xfd
   \   unsigned char volatile __sfr P0DIR
   \                     P0DIR:
   \   000000                DS 1
     72          
     73          /* HAL */
     74          #include "hal_lcd.h"
     75          #include "hal_led.h"
     76          #include "hal_key.h"
     77          
     78          #include "MT_UART.h"
     79          #include "MT_APP.h"
     80          #include "MT.h"
     81          
     82          /*********************************************************************
     83          * MACROS
     84          */
     85          #define COIN_PIN P0_2            //定义P0.2口为中断方式接收投币器信号引脚
     86          #define SIMULATE_PIN P0_5        //定义P0.5口为替换投币器模拟信号发生引脚
     87          #define UART0        0x00
     88          
     89          // This list should be filled with Application specific Cluster IDs.

   \                                 In  segment XDATA_ROM_C, align 1
     90          const cId_t SampleApp_ClusterList[SAMPLEAPP_MAX_CLUSTERS] =
   \                     SampleApp_ClusterList:
   \   000000   0100         DW 1
   \   000002   0200         DW 2
   \   000004   0000         DW 0
   \   000006   0000         DW 0
     91          {
     92            SAMPLEAPP_PERIODIC_CLUSTERID,
     93            SAMPLEAPP_FLASH_CLUSTERID
     94          };
     95          

   \                                 In  segment XDATA_ROM_C, align 1
     96          const SimpleDescriptionFormat_t SampleApp_SimpleDesc =
   \                     SampleApp_SimpleDesc:
   \   000000   14           DB 20
   \   000001   080F         DW 3848
   \   000003   0100         DW 1
   \   000005   00           DB 0
   \   000006   04           DB 4
   \   000007   ....         DW SampleApp_ClusterList
   \   000009   04           DB 4
   \   00000A   ....         DW SampleApp_ClusterList
     97          {
     98            SAMPLEAPP_ENDPOINT,              //  int Endpoint;
     99            SAMPLEAPP_PROFID,                //  uint16 AppProfId[2];
    100            SAMPLEAPP_DEVICEID,              //  uint16 AppDeviceId[2];
    101            SAMPLEAPP_DEVICE_VERSION,        //  int   AppDevVer:4;
    102            SAMPLEAPP_FLAGS,                 //  int   AppFlags:4;
    103            SAMPLEAPP_MAX_CLUSTERS,          //  uint8  AppNumInClusters;
    104            (cId_t *)SampleApp_ClusterList,  //  uint8 *pAppInClusterList;
    105            SAMPLEAPP_MAX_CLUSTERS,          //  uint8  AppNumInClusters;
    106            (cId_t *)SampleApp_ClusterList   //  uint8 *pAppInClusterList;
    107          };
    108          
    109          // This is the Endpoint/Interface description.  It is defined here, but
    110          // filled-in in SampleApp_Init().  Another way to go would be to fill
    111          // in the structure here and make it a "const" (in code space).  The
    112          // way it's defined in this sample app it is define in RAM.

   \                                 In  segment XDATA_Z, align 1, keep-with-next
    113          endPointDesc_t SampleApp_epDesc;
   \                     SampleApp_epDesc:
   \   000000                DS 6
   \   000006                REQUIRE __INIT_XDATA_Z

   \                                 In  segment XDATA_Z, align 1, keep-with-next
    114          afAddrType_t GenericApp_DstAddr;
   \                     GenericApp_DstAddr:
   \   000000                DS 12
   \   00000C                REQUIRE __INIT_XDATA_Z

   \                                 In  segment XDATA_Z, align 1, keep-with-next
    115          afAddrType_t EndPoint_DstAddr;
   \                     EndPoint_DstAddr:
   \   000000                DS 12
   \   00000C                REQUIRE __INIT_XDATA_Z
    116          
    117          /*********************************************************************
    118          * LOCAL VARIABLES
    119          */

   \                                 In  segment XDATA_Z, align 1, keep-with-next
    120          uint8 SampleApp_TaskID;   // Task ID for internal task/event processing
   \                     SampleApp_TaskID:
   \   000000                DS 1
   \   000001                REQUIRE __INIT_XDATA_Z
    121          // This variable will be received when
    122          // SampleApp_Init() is called.

   \                                 In  segment XDATA_Z, align 1, keep-with-next
    123          devStates_t SampleApp_NwkState;
   \                     SampleApp_NwkState:
   \   000000                DS 1
   \   000001                REQUIRE __INIT_XDATA_Z
    124          

   \                                 In  segment XDATA_Z, align 1, keep-with-next
    125          uint8 SampleApp_TransID;  // This is the unique message ID (counter)
   \                     SampleApp_TransID:
   \   000000                DS 1
   \   000001                REQUIRE __INIT_XDATA_Z
    126          

   \                                 In  segment XDATA_Z, align 1, keep-with-next
    127          afAddrType_t SampleApp_Periodic_DstAddr; // 用于协调器广播消息
   \                     SampleApp_Periodic_DstAddr:
   \   000000                DS 12
   \   00000C                REQUIRE __INIT_XDATA_Z

   \                                 In  segment XDATA_Z, align 1, keep-with-next
    128          afAddrType_t SampleApp_TxAddr; // 用于终端设备向协调器报告短地址信息
   \                     SampleApp_TxAddr:
   \   000000                DS 12
   \   00000C                REQUIRE __INIT_XDATA_Z
    129          

   \                                 In  segment XDATA_Z, align 1, keep-with-next
    130          aps_Group_t SampleApp_Group;
   \                     SampleApp_Group:
   \   000000                DS 18
   \   000012                REQUIRE __INIT_XDATA_Z

   \                                 In  segment XDATA_Z, align 1, keep-with-next
    131          uint8 SampleAppPeriodicCounter = 0;
   \                     SampleAppPeriodicCounter:
   \   000000                DS 1
   \   000001                REQUIRE __INIT_XDATA_Z

   \                                 In  segment XDATA_Z, align 1, keep-with-next
    132          uint8 SampleAppFlashCounter = 0;
   \                     SampleAppFlashCounter:
   \   000000                DS 1
   \   000001                REQUIRE __INIT_XDATA_Z
    133          

   \                                 In  segment XDATA_Z, align 1, keep-with-next
    134          LinkList LL; // 定义线性链表存储终端地址以及心跳信息
   \                     LL:
   \   000000                DS 2
   \   000002                REQUIRE __INIT_XDATA_Z
    135          
    136          /*********************************************************************
    137          * LOCAL FUNCTIONS
    138          */
    139          void AfSendAddrInfo(uint8 cmd);
    140          void AfReplyGetCoinCmd(void);
    141          void SampleApp_HandleKeys( uint8 shift, uint8 keys );
    142          void SampleApp_MessageMSGCB( afIncomingMSGPacket_t *pckt );
    143          void SampleApp_SendPeriodicMessage( int8 whichKey );
    144          void SampleApp_SendHeartBeatMessageCoor(void);
    145          void SampleApp_SendHeartBeatMessageEnd(void);
    146          void printAddrInfoHex(uint8* buf, uint8 dataLen);
    147          void convertHexToStr(uint16 addr, uint8 lcdLineNum);
    148          
    149          #ifndef ZDO_COORDINATOR
    150          int8 NeedCoinDelivered = 0; // 定义终端需要处理的投币个数
    151          #endif
    152          
    153          /**
    154            终端设备P1端口中断处理函数，用来接收投币器的信号
    155          */
    156          #ifndef ZDO_COORDINATOR
    157          HAL_ISR_FUNCTION( coinPort1Isr, P0INT_VECTOR ) // P1_2配置为投币器电平变化中断引脚，在HAL/Common/hal_drivers.c中进行的引脚初始化
    158          {
    159            // ???????????????????????????????终端操作
    160            myprintf("P0 interrupt\n");
    161            P0IFG = 0;       //清中断标志
    162            P0IF = 0;        //清中断标志
    163          }
    164          #endif
    165          
    166          /**
    167          * 自定义任务初始化函数
    168          */

   \                                 In  segment BANKED_CODE, align 1, keep-with-next
    169          void SampleApp_Init( uint8 task_id )
   \                     SampleApp_Init:
    170          {
   \   000000   74F5         MOV     A,#-0xb
   \   000002   12....       LCALL   ?BANKED_ENTER_XDATA
   \   000005                ; Saved register size: 11
   \   000005                ; Auto size: 0
   \   000005   E9           MOV     A,R1
   \   000006   FE           MOV     R6,A
    171            halUARTCfg_t uartConfig;
    172            
    173            SampleApp_TaskID = task_id;
   \   000007   90....       MOV     DPTR,#SampleApp_TaskID
   \   00000A   F0           MOVX    @DPTR,A
    174            SampleApp_NwkState = DEV_INIT;
   \   00000B   90....       MOV     DPTR,#SampleApp_NwkState
   \   00000E   7401         MOV     A,#0x1
   \   000010   F0           MOVX    @DPTR,A
    175            SampleApp_TransID = 0;
   \   000011   90....       MOV     DPTR,#SampleApp_TransID
   \   000014   E4           CLR     A
   \   000015   F0           MOVX    @DPTR,A
    176            
    177            P0SEL &= ~(0x01 << 7);         //设置P0.7口为普通IO
   \   000016   53F37F       ANL     0xf3,#0x7f
    178            P0DIR |= (0x01 << 7);          //设置P0.7口为输出
   \   000019   43FD80       ORL     0xfd,#0x80
    179            SIMULATE_PIN = 0;       // 投币器信号模拟输出引脚
   \   00001C   C285         CLR     0x80.5
    180            
    181          #if defined ( BUILD_ALL_DEVICES )
    182            // The "Demo" target is setup to have BUILD_ALL_DEVICES and HOLD_AUTO_START
    183            // We are looking at a jumper (defined in SampleAppHw.c) to be jumpered
    184            // together - if they are - we will start up a coordinator. Otherwise,
    185            // the device will start as a router.
    186            if ( readCoordinatorJumper() )
    187              zgDeviceLogicalType = ZG_DEVICETYPE_COORDINATOR;
    188            else
    189              zgDeviceLogicalType = ZG_DEVICETYPE_ROUTER;
    190          #endif // BUILD_ALL_DEVICES
    191            
    192          #if defined ( HOLD_AUTO_START )
    193            // HOLD_AUTO_START is a compile option that will surpress ZDApp
    194            //  from starting the device and wait for the application to
    195            //  start the device.
    196            ZDOInitDevice(0);
    197          #endif
    198            
    199            GenericApp_DstAddr.addrMode = (afAddrMode_t)AddrNotPresent;
   \   00001E   90....       MOV     DPTR,#GenericApp_DstAddr + 8
   \   000021   F0           MOVX    @DPTR,A
    200            GenericApp_DstAddr.endPoint = 0;
   \   000022   A3           INC     DPTR
   \   000023   F0           MOVX    @DPTR,A
    201            GenericApp_DstAddr.addr.shortAddr = 0;
   \   000024   90....       MOV     DPTR,#GenericApp_DstAddr
   \   000027   F0           MOVX    @DPTR,A
   \   000028   A3           INC     DPTR
   \   000029   F0           MOVX    @DPTR,A
    202            
    203            // Setup for the periodic message's destination address
    204            // Broadcast to everyone
    205            // 协调器广播发送数据到终端
    206            SampleApp_Periodic_DstAddr.addrMode = (afAddrMode_t)AddrBroadcast;
   \   00002A   90....       MOV     DPTR,#SampleApp_Periodic_DstAddr + 8
   \   00002D   740F         MOV     A,#0xf
   \   00002F   F0           MOVX    @DPTR,A
    207            SampleApp_Periodic_DstAddr.endPoint = SAMPLEAPP_ENDPOINT;
   \   000030   A3           INC     DPTR
   \   000031   7414         MOV     A,#0x14
   \   000033   F0           MOVX    @DPTR,A
    208            SampleApp_Periodic_DstAddr.addr.shortAddr = 0xFFFF; // 广播地址
   \   000034   90....       MOV     DPTR,#SampleApp_Periodic_DstAddr
   \   000037   74FF         MOV     A,#-0x1
   \   000039   F0           MOVX    @DPTR,A
   \   00003A   A3           INC     DPTR
   \   00003B   F0           MOVX    @DPTR,A
    209            
    210            // 终端单播发送数据到协调器
    211            SampleApp_TxAddr.addrMode = (afAddrMode_t)Addr16Bit;
   \   00003C   90....       MOV     DPTR,#SampleApp_TxAddr + 8
   \   00003F   7402         MOV     A,#0x2
   \   000041   F0           MOVX    @DPTR,A
    212            SampleApp_TxAddr.endPoint = SAMPLEAPP_ENDPOINT;
   \   000042   A3           INC     DPTR
   \   000043   7414         MOV     A,#0x14
   \   000045   F0           MOVX    @DPTR,A
    213            SampleApp_TxAddr.addr.shortAddr = 0x00; // 单播协调器地址
   \   000046   90....       MOV     DPTR,#SampleApp_TxAddr
   \   000049   E4           CLR     A
   \   00004A   F0           MOVX    @DPTR,A
   \   00004B   A3           INC     DPTR
   \   00004C   F0           MOVX    @DPTR,A
    214            
    215            // 协调器单播发送到指定地址的终端上  
    216            EndPoint_DstAddr.addrMode = (afAddrMode_t)Addr16Bit;
   \   00004D   90....       MOV     DPTR,#EndPoint_DstAddr + 8
   \   000050   7402         MOV     A,#0x2
   \   000052   F0           MOVX    @DPTR,A
    217            EndPoint_DstAddr.endPoint = SAMPLEAPP_ENDPOINT;
   \   000053   A3           INC     DPTR
   \   000054   7414         MOV     A,#0x14
   \   000056   F0           MOVX    @DPTR,A
    218            EndPoint_DstAddr.addr.shortAddr = 0x00; // 在发送的时候动态修改终端地址
   \   000057   90....       MOV     DPTR,#EndPoint_DstAddr
   \   00005A   E4           CLR     A
   \   00005B   F0           MOVX    @DPTR,A
   \   00005C   A3           INC     DPTR
   \   00005D   F0           MOVX    @DPTR,A
    219            
    220            // Fill out the endpoint description.
    221            SampleApp_epDesc.endPoint = SAMPLEAPP_ENDPOINT; // 端点号
   \   00005E   90....       MOV     DPTR,#SampleApp_epDesc
   \   000061   7414         MOV     A,#0x14
   \   000063   F0           MOVX    @DPTR,A
    222            SampleApp_epDesc.task_id = &SampleApp_TaskID; // 端点对应的任务
   \   000064   A3           INC     DPTR
   \   000065   74..         MOV     A,#SampleApp_TaskID & 0xff
   \   000067   F0           MOVX    @DPTR,A
   \   000068   A3           INC     DPTR
   \   000069   74..         MOV     A,#(SampleApp_TaskID >> 8) & 0xff
   \   00006B   F0           MOVX    @DPTR,A
    223            SampleApp_epDesc.simpleDesc = (SimpleDescriptionFormat_t *)&SampleApp_SimpleDesc; // 简单描述符
   \   00006C   A3           INC     DPTR
   \   00006D   74..         MOV     A,#SampleApp_SimpleDesc & 0xff
   \   00006F   F0           MOVX    @DPTR,A
   \   000070   A3           INC     DPTR
   \   000071   74..         MOV     A,#(SampleApp_SimpleDesc >> 8) & 0xff
   \   000073   F0           MOVX    @DPTR,A
    224            SampleApp_epDesc.latencyReq = noLatencyReqs;  
   \   000074   A3           INC     DPTR
   \   000075   E4           CLR     A
   \   000076   F0           MOVX    @DPTR,A
    225            afRegister( &SampleApp_epDesc ); // 注册一个应用的端点描述符，注册一个新的端点到任务，这样当有新的消息到来时直接发送到指定的任务中
   \   000077                ; Setup parameters for call to function afRegister
   \   000077   7A..         MOV     R2,#SampleApp_epDesc & 0xff
   \   000079   7B..         MOV     R3,#(SampleApp_epDesc >> 8) & 0xff
   \   00007B   12....       LCALL   ??afRegister?relay
    226            
    227            // 绑定按键事件到任务ID
    228            RegisterForKeys( SampleApp_TaskID );
   \   00007E                ; Setup parameters for call to function RegisterForKeys
   \   00007E   90....       MOV     DPTR,#SampleApp_TaskID
   \   000081   E0           MOVX    A,@DPTR
   \   000082   F9           MOV     R1,A
   \   000083   12....       LCALL   ??RegisterForKeys?relay
    229            
    230            // By default, all devices start out in Group 1
    231            SampleApp_Group.ID = 0x0001;
   \   000086   90....       MOV     DPTR,#SampleApp_Group
   \   000089   7401         MOV     A,#0x1
   \   00008B   F0           MOVX    @DPTR,A
   \   00008C   A3           INC     DPTR
   \   00008D   E4           CLR     A
   \   00008E   F0           MOVX    @DPTR,A
    232            osal_memcpy( SampleApp_Group.name, "Group 1", 7 );
   \   00008F                ; Setup parameters for call to function osal_memcpy
   \   00008F   75....       MOV     ?V0 + 0,#`?<Constant "Group 1">` & 0xff
   \   000092   75....       MOV     ?V0 + 1,#(`?<Constant "Group 1">` >> 8) & 0xff
   \   000095   F5..         MOV     ?V0 + 2,A
   \   000097   78..         MOV     R0,#?V0 + 0
   \   000099   12....       LCALL   ?PUSH_XSTACK_I_THREE
   \   00009C   7C07         MOV     R4,#0x7
   \   00009E   7D00         MOV     R5,#0x0
   \   0000A0   7A..         MOV     R2,#(SampleApp_Group + 2) & 0xff
   \   0000A2   7B..         MOV     R3,#((SampleApp_Group + 2) >> 8) & 0xff
   \   0000A4   12....       LCALL   ??osal_memcpy?relay
   \   0000A7   7403         MOV     A,#0x3
   \   0000A9   12....       LCALL   ?DEALLOC_XSTACK8
    233            aps_AddGroup( SAMPLEAPP_ENDPOINT, &SampleApp_Group );
   \   0000AC                ; Setup parameters for call to function aps_AddGroup
   \   0000AC   7A..         MOV     R2,#SampleApp_Group & 0xff
   \   0000AE   7B..         MOV     R3,#(SampleApp_Group >> 8) & 0xff
   \   0000B0   7914         MOV     R1,#0x14
   \   0000B2   12....       LCALL   ??aps_AddGroup?relay
    234            
    235            // 初始化串口
    236            MT_UartInit();                    //串口初始化
   \   0000B5                ; Setup parameters for call to function MT_UartInit
   \   0000B5   12....       LCALL   ??MT_UartInit?relay
    237            MT_UartRegisterTaskID(task_id);   //注册串口任务
   \   0000B8                ; Setup parameters for call to function MT_UartRegisterTaskID
   \   0000B8   EE           MOV     A,R6
   \   0000B9   F9           MOV     R1,A
   \   0000BA   12....       LCALL   ??MT_UartRegisterTaskID?relay
    238          #ifdef ZDO_COORDINATOR  
    239            myprintf("UartInit OK\n");
   \   0000BD                ; Setup parameters for call to function myprintf
   \   0000BD   7A..         MOV     R2,#`?<Constant "UartInit OK\\n">` & 0xff
   \   0000BF   7B..         MOV     R3,#(`?<Constant "UartInit OK\\n">` >> 8) & 0xff
   \   0000C1   12....       LCALL   ??myprintf?relay
    240            
    241            int ret = InitList_L(&LL); // 单链表初始化
    242            if(ret == OVERFLOW) {
   \   0000C4                ; Setup parameters for call to function InitList_L
   \   0000C4   7A..         MOV     R2,#LL & 0xff
   \   0000C6   7B..         MOV     R3,#(LL >> 8) & 0xff
   \   0000C8   12....       LCALL   ??InitList_L?relay
   \   0000CB   8A..         MOV     ?V0 + 0,R2
   \   0000CD   8B..         MOV     ?V0 + 1,R3
   \   0000CF   74FE         MOV     A,#-0x2
   \   0000D1   65..         XRL     A,?V0 + 0
   \   0000D3   7004         JNZ     ??SampleApp_Init_0
   \   0000D5   74FF         MOV     A,#-0x1
   \   0000D7   65..         XRL     A,?V0 + 1
   \                     ??SampleApp_Init_0:
   \   0000D9   7007         JNZ     ??SampleApp_Init_1
    243              myprintf("InitList_L OVERFLOW\n");
   \   0000DB                ; Setup parameters for call to function myprintf
   \   0000DB   7A..         MOV     R2,#`?<Constant "InitList_L OVERFLOW\\n">` & 0xff
   \   0000DD   7B..         MOV     R3,#(`?<Constant "InitList_L OVERFLOW\\n">` >> 8) & 0xff
   \   0000DF   12....       LCALL   ??myprintf?relay
    244            }
    245          #endif  
    246          }
   \                     ??SampleApp_Init_1:
   \   0000E2   02....       LJMP    ??Subroutine16_0 & 0xFFFF
   \   0000E5                REQUIRE P0SEL
   \   0000E5                REQUIRE P0DIR
   \   0000E5                REQUIRE _A_P0

   \                                 In  segment BANKED_CODE, align 1, keep-with-next
   \                     ??Subroutine16_0:
   \   000000   7F03         MOV     R7,#0x3
   \   000002   02....       LJMP    ?BANKED_LEAVE_XDATA
    247          
    248          /*********************************************************************
    249          * @fn      SampleApp_ProcessEvent
    250          *
    251          * @brief   Generic Application Task event processor.  This function
    252          *          is called to process all events for the task.  Events
    253          *          include timers, messages and any other user defined events.
    254          *          系统各种事件的处理函数
    255          *
    256          * @param   task_id  - The OSAL assigned task ID.
    257          * @param   events - events to process.  This is a bit map and can
    258          *                   contain more than one event.
    259          *
    260          * @return  none
    261          */

   \                                 In  segment BANKED_CODE, align 1, keep-with-next
    262          uint16 SampleApp_ProcessEvent( uint8 task_id, uint16 events )
   \                     SampleApp_ProcessEvent:
    263          {
   \   000000   74F4         MOV     A,#-0xc
   \   000002   12....       LCALL   ?BANKED_ENTER_XDATA
   \   000005                ; Saved register size: 12
   \   000005                ; Auto size: 3
   \   000005   74FD         MOV     A,#-0x3
   \   000007   12....       LCALL   ?ALLOC_XSTACK8
   \   00000A   8A..         MOV     ?V0 + 0,R2
   \   00000C   8B..         MOV     ?V0 + 1,R3
    264            afIncomingMSGPacket_t *MSGpkt;
    265            afDataConfirm_t *afDataConfirm;
    266            byte sentEP;
    267            ZStatus_t sentStatus;
    268            byte sentTransID;       // This should match the value sent
    269            (void)task_id;  // Intentionally unreferenced parameter
    270            
    271            if ( events & SYS_EVENT_MSG )
   \   00000E   EB           MOV     A,R3
   \   00000F   5480         ANL     A,#0x80
   \   000011   7003         JNZ     $+5
   \   000013   02....       LJMP    ??SampleApp_ProcessEvent_0 & 0xFFFF
    272            {
    273              MSGpkt = (afIncomingMSGPacket_t *)osal_msg_receive( SampleApp_TaskID ); // 接收一个用户自定义任务的消息
   \   000016                ; Setup parameters for call to function osal_msg_receive
   \   000016   12....       LCALL   ?Subroutine5 & 0xFFFF
    274              uint8 coodStarted[3] = {'#', 0x45, '@'};
   \                     ??CrossCallReturnLabel_4:
   \   000019   85..82       MOV     DPL,?XSP + 0
   \   00001C   85..83       MOV     DPH,?XSP + 1
   \   00001F   AC82         MOV     R4,DPL
   \   000021   AD83         MOV     R5,DPH
   \   000023   7583..       MOV     DPH,#(`?<Constant {35, 69, 64}>` >> 8) & 0xff
   \   000026   7582..       MOV     DPL,#`?<Constant {35, 69, 64}>` & 0xff
   \   000029   7403         MOV     A,#0x3
   \   00002B   12....       LCALL   ?MOVE_LONG8_XDATA_XDATA
   \   00002E   801A         SJMP    ??CrossCallReturnLabel_5
    275              while ( MSGpkt )
    276              {      
    277                switch ( MSGpkt->hdr.event )
    278                {
    279                  // 系统任务事件里面的接收数据确认消息
    280                  case AF_DATA_CONFIRM_CMD:
    281                    // myprintf("AF_DATA_CONFIRM_CMD\n");
    282                    
    283                    afDataConfirm = (afDataConfirm_t *)MSGpkt;
    284                    sentEP = afDataConfirm->endpoint;
    285                    sentStatus = afDataConfirm->hdr.status;
    286                    sentTransID = afDataConfirm->transID;
    287                    (void)sentEP;
    288                    (void)sentTransID;
    289                    // Action taken when confirmation is received.
    290                    if ( sentStatus != ZSuccess )
    291                    {
    292                      myprintf("AF_DATA_CONFIRM_CMD failed\n");
    293                    }
    294                    break;
    295                  
    296                    // 接收到一个按键事件
    297                  case KEY_CHANGE:
    298                    SampleApp_HandleKeys( ((keyChange_t *)MSGpkt)->state, ((keyChange_t *)MSGpkt)->keys );
    299                    break;
    300                    
    301                    // 无线网络收到数据
    302                  case AF_INCOMING_MSG_CMD:
    303                    // myprintf("AF_INCOMING_MSG_CMD\n");
    304                    SampleApp_MessageMSGCB( MSGpkt );
    305                    break;
    306                    
    307                    // 设备组网或者入网成功，可以发送一个消息，并开启一个心跳事件的定时器
    308                  case ZDO_STATE_CHANGE:
    309                    SampleApp_NwkState = (devStates_t)(MSGpkt->hdr.status); // 另外MSGpkt->srcAddr.addr.shortAddr;可用于获取终端节点的网络短地址
    310                    myprintf("SampleApp_NwkState = %d\n", SampleApp_NwkState);
    311                    
    312                    if(SampleApp_NwkState == DEV_ZB_COORD) {
    313                      myprintf("COORD device started\n");
    314                      // 向上位机发送已经启动消息
    315                      mySendByteBuf(coodStarted, 3);
    316                      osal_start_timerEx( SampleApp_TaskID, SAMPLEAPP_SEND_PERIODIC_MSG_EVT, SAMPLEAPP_SEND_PERIODIC_MSG_TIMEOUT ); // 开启定时器
    317                    } else if(SampleApp_NwkState == DEV_ROUTER) {
    318                      myprintf("ROUTER device started\n");
    319                    } else if(SampleApp_NwkState == DEV_END_DEVICE) {
    320                      myprintf("END device started\n");            
    321                      AfSendAddrInfo(0x71); // 向协调器发送入网消息
    322                      HalLedBlink(HAL_LED_1, 1, 50, 500);
    323                      osal_start_timerEx( SampleApp_TaskID, SAMPLEAPP_SEND_PERIODIC_MSG_EVT, SAMPLEAPP_SEND_PERIODIC_MSG_TIMEOUT ); // 开启定时器
    324                    }
    325                    break;
    326                    
    327                  default:
    328                    myprintf("unknown pkg-event = 0x%x\n", MSGpkt->hdr.event);
   \                     ??SampleApp_ProcessEvent_1:
   \   000030                ; Setup parameters for call to function myprintf
   \   000030   12....       LCALL   ?Subroutine7 & 0xFFFF
   \                     ??CrossCallReturnLabel_6:
   \   000033   12....       LCALL   ?PUSH_XSTACK_I_TWO
   \   000036   7A..         MOV     R2,#`?<Constant "unknown pkg-event = 0...">` & 0xff
   \   000038   7B..         MOV     R3,#(`?<Constant "unknown pkg-event = 0...">` >> 8) & 0xff
   \   00003A   12....       LCALL   ?Subroutine11 & 0xFFFF
   \                     ??CrossCallReturnLabel_15:
   \   00003D   12....       LCALL   ?DEALLOC_XSTACK8
    329                    break;
    330                }      
    331                // Release the memory
    332                osal_msg_deallocate( (uint8 *)MSGpkt );      
   \                     ??SampleApp_ProcessEvent_2:
   \   000040                ; Setup parameters for call to function osal_msg_deallocate
   \   000040   EE           MOV     A,R6
   \   000041   FA           MOV     R2,A
   \   000042   EF           MOV     A,R7
   \   000043   FB           MOV     R3,A
   \   000044   12....       LCALL   ??osal_msg_deallocate?relay
    333                // Next - if one is available
    334                MSGpkt = (afIncomingMSGPacket_t *)osal_msg_receive( SampleApp_TaskID );
   \   000047                ; Setup parameters for call to function osal_msg_receive
   \   000047   12....       LCALL   ?Subroutine5 & 0xFFFF
   \                     ??CrossCallReturnLabel_5:
   \   00004A   EE           MOV     A,R6
   \   00004B   4F           ORL     A,R7
   \   00004C   7003         JNZ     $+5
   \   00004E   02....       LJMP    ??SampleApp_ProcessEvent_3 & 0xFFFF
   \   000051   8E82         MOV     DPL,R6
   \   000053   8F83         MOV     DPH,R7
   \   000055   E0           MOVX    A,@DPTR
   \   000056   24E6         ADD     A,#-0x1a
   \   000058   602B         JZ      ??SampleApp_ProcessEvent_4
   \   00005A   245A         ADD     A,#0x5a
   \   00005C   6015         JZ      ??SampleApp_ProcessEvent_5
   \   00005E   24EF         ADD     A,#-0x11
   \   000060   602C         JZ      ??SampleApp_ProcessEvent_6
   \   000062   24D4         ADD     A,#-0x2c
   \   000064   70CA         JNZ     ??SampleApp_ProcessEvent_1
   \   000066   A3           INC     DPTR
   \   000067   E0           MOVX    A,@DPTR
   \   000068   60D6         JZ      ??SampleApp_ProcessEvent_2
   \   00006A                ; Setup parameters for call to function myprintf
   \   00006A   7A..         MOV     R2,#`?<Constant "AF_DATA_CONFIRM_CMD f...">` & 0xff
   \   00006C   7B..         MOV     R3,#(`?<Constant "AF_DATA_CONFIRM_CMD f...">` >> 8) & 0xff
   \                     ??SampleApp_ProcessEvent_7:
   \   00006E   12....       LCALL   ??myprintf?relay
   \   000071   80CD         SJMP    ??SampleApp_ProcessEvent_2
   \                     ??SampleApp_ProcessEvent_5:
   \   000073                ; Setup parameters for call to function SampleApp_HandleKeys
   \   000073   A3           INC     DPTR
   \   000074   A3           INC     DPTR
   \   000075   A3           INC     DPTR
   \   000076   E0           MOVX    A,@DPTR
   \   000077   FA           MOV     R2,A
   \   000078   8E82         MOV     DPL,R6
   \   00007A   8F83         MOV     DPH,R7
   \   00007C   A3           INC     DPTR
   \   00007D   A3           INC     DPTR
   \   00007E   E0           MOVX    A,@DPTR
   \   00007F   F9           MOV     R1,A
   \   000080   12....       LCALL   ??SampleApp_HandleKeys?relay
   \   000083   80BB         SJMP    ??SampleApp_ProcessEvent_2
   \                     ??SampleApp_ProcessEvent_4:
   \   000085                ; Setup parameters for call to function SampleApp_MessageMSGCB
   \   000085   EE           MOV     A,R6
   \   000086   FA           MOV     R2,A
   \   000087   EF           MOV     A,R7
   \   000088   FB           MOV     R3,A
   \   000089   12....       LCALL   ??SampleApp_MessageMSGCB?relay
   \   00008C   80B2         SJMP    ??SampleApp_ProcessEvent_2
   \                     ??SampleApp_ProcessEvent_6:
   \   00008E   A3           INC     DPTR
   \   00008F   E0           MOVX    A,@DPTR
   \   000090   90....       MOV     DPTR,#SampleApp_NwkState
   \   000093   F0           MOVX    @DPTR,A
   \   000094                ; Setup parameters for call to function myprintf
   \   000094   F5..         MOV     ?V0 + 2,A
   \   000096   75..00       MOV     ?V0 + 3,#0x0
   \   000099   78..         MOV     R0,#?V0 + 2
   \   00009B   12....       LCALL   ?PUSH_XSTACK_I_TWO
   \   00009E   7A..         MOV     R2,#`?<Constant "SampleApp_NwkState = %d\\n">` & 0xff
   \   0000A0   7B..         MOV     R3,#(`?<Constant "SampleApp_NwkState = %d\\n">` >> 8) & 0xff
   \   0000A2   12....       LCALL   ?Subroutine11 & 0xFFFF
   \                     ??CrossCallReturnLabel_16:
   \   0000A5   12....       LCALL   ?DEALLOC_XSTACK8
   \   0000A8   90....       MOV     DPTR,#SampleApp_NwkState
   \   0000AB   E0           MOVX    A,@DPTR
   \   0000AC   6409         XRL     A,#0x9
   \   0000AE   702B         JNZ     ??SampleApp_ProcessEvent_8
   \   0000B0                ; Setup parameters for call to function myprintf
   \   0000B0   7A..         MOV     R2,#`?<Constant "COORD device started\\n">` & 0xff
   \   0000B2   7B..         MOV     R3,#(`?<Constant "COORD device started\\n">` >> 8) & 0xff
   \   0000B4   12....       LCALL   ??myprintf?relay
   \   0000B7                ; Setup parameters for call to function mySendByteBuf
   \   0000B7   7C03         MOV     R4,#0x3
   \   0000B9   7D00         MOV     R5,#0x0
   \   0000BB   85..82       MOV     DPL,?XSP + 0
   \   0000BE   85..83       MOV     DPH,?XSP + 1
   \   0000C1   AA82         MOV     R2,DPL
   \   0000C3   AB83         MOV     R3,DPH
   \   0000C5   12....       LCALL   ??mySendByteBuf?relay
   \   0000C8                ; Setup parameters for call to function osal_start_timerEx
   \                     ??SampleApp_ProcessEvent_9:
   \   0000C8   7CE8         MOV     R4,#-0x18
   \   0000CA   7D03         MOV     R5,#0x3
   \   0000CC   7A01         MOV     R2,#0x1
   \   0000CE   7B00         MOV     R3,#0x0
   \   0000D0   90....       MOV     DPTR,#SampleApp_TaskID
   \   0000D3   E0           MOVX    A,@DPTR
   \   0000D4   F9           MOV     R1,A
   \   0000D5   12....       LCALL   ??osal_start_timerEx?relay
   \   0000D8   02....       LJMP    ??SampleApp_ProcessEvent_2 & 0xFFFF
   \                     ??SampleApp_ProcessEvent_8:
   \   0000DB   E0           MOVX    A,@DPTR
   \   0000DC   6407         XRL     A,#0x7
   \   0000DE   7006         JNZ     ??SampleApp_ProcessEvent_10
   \   0000E0                ; Setup parameters for call to function myprintf
   \   0000E0   7A..         MOV     R2,#`?<Constant "ROUTER device started\\n">` & 0xff
   \   0000E2   7B..         MOV     R3,#(`?<Constant "ROUTER device started\\n">` >> 8) & 0xff
   \   0000E4   8088         SJMP    ??SampleApp_ProcessEvent_7
   \                     ??SampleApp_ProcessEvent_10:
   \   0000E6   E0           MOVX    A,@DPTR
   \   0000E7   6406         XRL     A,#0x6
   \   0000E9   6003         JZ      $+5
   \   0000EB   02....       LJMP    ??SampleApp_ProcessEvent_2 & 0xFFFF
   \   0000EE                ; Setup parameters for call to function myprintf
   \   0000EE   7A..         MOV     R2,#`?<Constant "END device started\\n">` & 0xff
   \   0000F0   7B..         MOV     R3,#(`?<Constant "END device started\\n">` >> 8) & 0xff
   \   0000F2   12....       LCALL   ??myprintf?relay
   \   0000F5                ; Setup parameters for call to function AfSendAddrInfo
   \   0000F5   12....       LCALL   ?Subroutine8 & 0xFFFF
   \                     ??CrossCallReturnLabel_8:
   \   0000F8                ; Setup parameters for call to function osal_start_timerEx
   \   0000F8   80CE         SJMP    ??SampleApp_ProcessEvent_9
    335              }
    336              
    337              // return unprocessed events
    338              return (events ^ SYS_EVENT_MSG);
   \                     ??SampleApp_ProcessEvent_3:
   \   0000FA   AA..         MOV     R2,?V0 + 0
   \   0000FC   E5..         MOV     A,?V0 + 1
   \   0000FE   6480         XRL     A,#0x80
   \   000100   FB           MOV     R3,A
   \   000101   8034         SJMP    ??SampleApp_ProcessEvent_11
    339            }
    340            
    341            // 接收到一个定时器事件
    342            if ( events & SAMPLEAPP_SEND_PERIODIC_MSG_EVT )
   \                     ??SampleApp_ProcessEvent_0:
   \   000103   EA           MOV     A,R2
   \   000104   A2E0         MOV     C,0xE0 /* A   */.0
   \   000106   501C         JNC     ??SampleApp_ProcessEvent_12
    343            {
    344          #ifdef ZDO_COORDINATOR
    345              SampleApp_SendHeartBeatMessageCoor(); // 协调器心跳功能函数
   \   000108                ; Setup parameters for call to function SampleApp_SendHeartBeatMessageCoor
   \   000108   12....       LCALL   ??SampleApp_SendHeartBeatMessageCoor?relay
    346              osal_start_timerEx( SampleApp_TaskID, SAMPLEAPP_SEND_PERIODIC_MSG_EVT, SAMPLEAPP_SEND_PERIODIC_MSG_TIMEOUT); // 1000ms再次开启定时器
   \   00010B                ; Setup parameters for call to function osal_start_timerEx
   \   00010B   7CE8         MOV     R4,#-0x18
   \   00010D   7D03         MOV     R5,#0x3
   \   00010F   7A01         MOV     R2,#0x1
   \   000111   7B00         MOV     R3,#0x0
   \   000113   90....       MOV     DPTR,#SampleApp_TaskID
   \   000116   E0           MOVX    A,@DPTR
   \   000117   F9           MOV     R1,A
   \   000118   12....       LCALL   ??osal_start_timerEx?relay
    347          #else
    348              SampleApp_SendHeartBeatMessageEnd(); // 终端心跳功能函数
    349              osal_start_timerEx( SampleApp_TaskID, SAMPLEAPP_SEND_PERIODIC_MSG_EVT, SAMPLEAPP_SEND_PERIODIC_MSG_TIMEOUT*2); // 2000ms再次开启定时器
    350          #endif
    351              return (events ^ SAMPLEAPP_SEND_PERIODIC_MSG_EVT); // 清除此已经处理事件标志位
   \   00011B   E5..         MOV     A,?V0 + 0
   \   00011D   6401         XRL     A,#0x1
   \   00011F   FA           MOV     R2,A
   \   000120   AB..         MOV     R3,?V0 + 1
   \   000122   8013         SJMP    ??SampleApp_ProcessEvent_11
    352            }
    353          #ifndef ZDO_COORDINATOR  // 只在终端设备中进行处理
    354            else if(events & SAMPLEAPP_SIMULATE_COIN_MSG_EVT) { // 模拟电平变化定时器事件
    355              myprintf("Get COIN_MSG_EVT, NeedCoinDelivered = %d\n", NeedCoinDelivered);
    356              if(SIMULATE_PIN == 0) {
    357                SIMULATE_PIN = 1; // 产生一个上升沿
    358              } else if(SIMULATE_PIN == 1) {
    359                SIMULATE_PIN = 0; // 完整产生了一个脉冲
    360                NeedCoinDelivered--;
    361              }
    362              if(NeedCoinDelivered > 0) { // 还需要开启定时器
    363                osal_start_timerEx( SampleApp_TaskID, SAMPLEAPP_SIMULATE_COIN_MSG_EVT, 10);
    364              }    
    365              return (events ^ SAMPLEAPP_SIMULATE_COIN_MSG_EVT);
    366            }
    367          #endif  
    368            myprintf("Discard unknown events = %d\n", events);
   \                     ??SampleApp_ProcessEvent_12:
   \   000124                ; Setup parameters for call to function myprintf
   \   000124   78..         MOV     R0,#?V0 + 0
   \   000126   12....       LCALL   ?PUSH_XSTACK_I_TWO
   \   000129   7A..         MOV     R2,#`?<Constant "Discard unknown event...">` & 0xff
   \   00012B   7B..         MOV     R3,#(`?<Constant "Discard unknown event...">` >> 8) & 0xff
   \   00012D   12....       LCALL   ?Subroutine11 & 0xFFFF
   \                     ??CrossCallReturnLabel_17:
   \   000130   12....       LCALL   ?DEALLOC_XSTACK8
    369            return 0;
   \   000133   7A00         MOV     R2,#0x0
   \   000135   7B00         MOV     R3,#0x0
   \                     ??SampleApp_ProcessEvent_11:
   \   000137   7403         MOV     A,#0x3
   \   000139   12....       LCALL   ?DEALLOC_XSTACK8
   \   00013C   7F04         MOV     R7,#0x4
   \   00013E   02....       LJMP    ?BANKED_LEAVE_XDATA
    370          }

   \                                 In  segment BANKED_CODE, align 1, keep-with-next
   \                     ?Subroutine5:
   \   000000   90....       MOV     DPTR,#SampleApp_TaskID
   \   000003   E0           MOVX    A,@DPTR
   \   000004   F9           MOV     R1,A
   \   000005   12....       LCALL   ??osal_msg_receive?relay
   \   000008   8A..         MOV     ?V0 + 2,R2
   \   00000A   8B..         MOV     ?V0 + 3,R3
   \   00000C   AE..         MOV     R6,?V0 + 2
   \   00000E   AF..         MOV     R7,?V0 + 3
   \   000010   22           RET

   \                                 In  segment BANKED_CODE, align 1, keep-with-next
   \                     ?Subroutine8:
   \   000000   7971         MOV     R1,#0x71
   \   000002   12....       LCALL   ??AfSendAddrInfo?relay
   \   000005                ; Setup parameters for call to function HalLedBlink
   \   000005                ; Setup parameters for call to function HalLedBlink
   \   000005   7CF4         MOV     R4,#-0xc
   \   000007   7D01         MOV     R5,#0x1
   \   000009   7B32         MOV     R3,#0x32
   \   00000B   7A01         MOV     R2,#0x1
   \   00000D   7901         MOV     R1,#0x1
   \   00000F   12....       LCALL   ??HalLedBlink?relay
   \   000012   22           RET

   \                                 In  segment BANKED_CODE, align 1, keep-with-next
   \                     ?Subroutine11:
   \   000000   12....       LCALL   ??myprintf?relay
   \   000003   7402         MOV     A,#0x2
   \   000005   22           RET

   \                                 In  segment BANKED_CODE, align 1, keep-with-next
   \                     ?Subroutine7:
   \   000000   E0           MOVX    A,@DPTR
   \   000001   F5..         MOV     ?V0 + 2,A
   \   000003   75..00       MOV     ?V0 + 3,#0x0
   \   000006   78..         MOV     R0,#?V0 + 2
   \   000008   22           RET
    371          
    372          /*********************************************************************
    373          * Event Generation Functions
    374          */
    375          /*********************************************************************
    376          * @fn      SampleApp_HandleKeys
    377          *
    378          * @brief   按键事件处理函数
    379          *
    380          * @param   shift - true if in shift/alt.
    381          * @param   keys - bit field for key events. Valid entries:
    382          *                 HAL_KEY_SW_2
    383          *                 HAL_KEY_SW_1
    384          *
    385          * @return  none
    386          */

   \                                 In  segment BANKED_CODE, align 1, keep-with-next
    387          void SampleApp_HandleKeys( uint8 shift, uint8 keys )
   \                     SampleApp_HandleKeys:
    388          {
   \   000000   74F7         MOV     A,#-0x9
   \   000002   12....       LCALL   ?BANKED_ENTER_XDATA
   \   000005                ; Saved register size: 9
   \   000005                ; Auto size: 0
   \   000005   EA           MOV     A,R2
    389            (void)shift;  // Intentionally unreferenced parameter
    390          #ifdef ZDO_COORDINATOR       //按协调器S1才发数据  
    391            if ( keys & HAL_KEY_SW_6 ){ // 按键S1,以广播方式发数据    
   \   000006   A2E5         MOV     C,0xE0 /* A   */.5
   \   000008   5004         JNC     ??SampleApp_HandleKeys_0
    392              SampleApp_SendPeriodicMessage(1);
   \   00000A                ; Setup parameters for call to function SampleApp_SendPeriodicMessage
   \   00000A   7901         MOV     R1,#0x1
   \   00000C   8006         SJMP    ??SampleApp_HandleKeys_1
    393            } else if(keys & HAL_KEY_SW_1) { // 按键S2
   \                     ??SampleApp_HandleKeys_0:
   \   00000E   A2E0         MOV     C,0xE0 /* A   */.0
   \   000010   5005         JNC     ??SampleApp_HandleKeys_2
    394              SampleApp_SendPeriodicMessage(2);
   \   000012                ; Setup parameters for call to function SampleApp_SendPeriodicMessage
   \   000012   7902         MOV     R1,#0x2
   \                     ??SampleApp_HandleKeys_1:
   \   000014   12....       LCALL   ??SampleApp_SendPeriodicMessage?relay
    395            }
    396          #endif
    397          
    398          #ifndef ZDO_COORDINATOR
    399            if ( keys & HAL_KEY_SW_6 ){
    400              AfSendAddrInfo(0x51); // 只用在路由和终端设备上，向协调器上传自身地址，协调器收到此消息后打印出地址
    401            }else if ( keys & HAL_KEY_SW_1 ){ // 按键S2
    402              myprintf("S2\n");    
    403            }
    404          #endif
    405          }
   \                     ??SampleApp_HandleKeys_2:
   \   000017   7F01         MOV     R7,#0x1
   \   000019   02....       LJMP    ?BANKED_LEAVE_XDATA
    406          
    407          /*********************************************************************
    408          * LOCAL FUNCTIONS
    409          */
    410          
    411          /*********************************************************************
    412          * @fn      SampleApp_MessageMSGCB
    413          *
    414          * @brief   Data message processor callback.  This function processes
    415          *          any incoming data - probably from other devices.  So, based
    416          *          on cluster ID, perform the intended action.
    417          *
    418          * @param   none
    419          *
    420          * @return  none
    421          */
    422          #define INIT_LEFT_SEC 5

   \                                 In  segment XDATA_Z, align 1, keep-with-next
    423          uint16 recvTestMsgCount = 0;
   \                     recvTestMsgCount:
   \   000000                DS 2
   \   000002                REQUIRE __INIT_XDATA_Z

   \                                 In  segment BANKED_CODE, align 1, keep-with-next
    424          void SampleApp_MessageMSGCB( afIncomingMSGPacket_t *pkt )
   \                     SampleApp_MessageMSGCB:
    425          {
   \   000000   74F6         MOV     A,#-0xa
   \   000002   12....       LCALL   ?BANKED_ENTER_XDATA
   \   000005                ; Saved register size: 10
   \   000005                ; Auto size: 0
   \   000005   EA           MOV     A,R2
   \   000006   FE           MOV     R6,A
   \   000007   EB           MOV     A,R3
   \   000008   FF           MOV     R7,A
    426            uint8 data;
    427            uint8 cmd;
    428          #ifdef ZDO_COORDINATOR  
    429            int8 ret = 0;
    430          #endif  
    431            
    432            switch ( pkt->clusterId )
   \   000009   8E82         MOV     DPL,R6
   \   00000B   8F83         MOV     DPH,R7
   \   00000D   A3           INC     DPTR
   \   00000E   A3           INC     DPTR
   \   00000F   A3           INC     DPTR
   \   000010   A3           INC     DPTR
   \   000011   E0           MOVX    A,@DPTR
   \   000012   6401         XRL     A,#0x1
   \   000014   7002         JNZ     ??SampleApp_MessageMSGCB_0
   \   000016   A3           INC     DPTR
   \   000017   E0           MOVX    A,@DPTR
   \                     ??SampleApp_MessageMSGCB_0:
   \   000018   6003         JZ      $+5
   \   00001A   02....       LJMP    ??SampleApp_MessageMSGCB_1 & 0xFFFF
    433            {    
    434            case SAMPLEAPP_PERIODIC_CLUSTERID: // 协调器在发送数据的时候指定的此消息对应的命令字，即表示哪种类型的控制命令
    435          //协调器接收到终端的无线数据 
    436          #ifdef ZDO_COORDINATOR
    437              data = pkt->cmd.Data[0];
    438              cmd = pkt->cmd.Data[1];
   \   00001D   EE           MOV     A,R6
   \   00001E   2422         ADD     A,#0x22
   \   000020   F8           MOV     R0,A
   \   000021   EF           MOV     A,R7
   \   000022   3400         ADDC    A,#0x0
   \   000024   F9           MOV     R1,A
   \   000025   88..         MOV     ?V0 + 0,R0
   \   000027   89..         MOV     ?V0 + 1,R1
   \   000029   8882         MOV     DPL,R0
   \   00002B   F583         MOV     DPH,A
   \   00002D   E0           MOVX    A,@DPTR
   \   00002E   F8           MOV     R0,A
   \   00002F   A3           INC     DPTR
   \   000030   E0           MOVX    A,@DPTR
   \   000031   F9           MOV     R1,A
   \   000032   8882         MOV     DPL,R0
   \   000034   8983         MOV     DPH,R1
   \   000036   A3           INC     DPTR
   \   000037   E0           MOVX    A,@DPTR
   \   000038   FA           MOV     R2,A
    439              if(data == '#') {
   \   000039   8882         MOV     DPL,R0
   \   00003B   8983         MOV     DPH,R1
   \   00003D   E0           MOVX    A,@DPTR
   \   00003E   6423         XRL     A,#0x23
   \   000040   6003         JZ      $+5
   \   000042   02....       LJMP    ??SampleApp_MessageMSGCB_1 & 0xFFFF
    440                if(cmd == 0x71 && pkt->cmd.Data[12] == '@') { // 接收到终端上传的短地址和IEEE地址
   \   000045   7471         MOV     A,#0x71
   \   000047   6A           XRL     A,R2
   \   000048   6003         JZ      $+5
   \   00004A   02....       LJMP    ??SampleApp_MessageMSGCB_2 & 0xFFFF
   \   00004D   12....       LCALL   ?Subroutine3 & 0xFFFF
   \                     ??CrossCallReturnLabel_0:
   \   000050   6003         JZ      $+5
   \   000052   02....       LJMP    ??SampleApp_MessageMSGCB_1 & 0xFFFF
    441                  ret = checkEPInList(LL, pkt->cmd.Data + 4); // 使用IEEE地址检查终端是否已经在链表中
   \   000055                ; Setup parameters for call to function checkEPInList
   \   000055   12....       LCALL   ?Subroutine9 & 0xFFFF
   \                     ??CrossCallReturnLabel_10:
   \   000058   E0           MOVX    A,@DPTR
   \   000059   2404         ADD     A,#0x4
   \   00005B   FC           MOV     R4,A
   \   00005C   A3           INC     DPTR
   \   00005D   E0           MOVX    A,@DPTR
   \   00005E   12....       LCALL   ?Subroutine6 & 0xFFFF
   \                     ??CrossCallReturnLabel_25:
   \   000061   12....       LCALL   ??checkEPInList?relay
   \   000064   EA           MOV     A,R2
   \   000065   F9           MOV     R1,A
    442                  if(ret == -1) { // 如果当前终端没有在列表中        
   \   000066   74FF         MOV     A,#-0x1
   \   000068   69           XRL     A,R1
   \   000069   706B         JNZ     ??SampleApp_MessageMSGCB_3
    443                    ListInsert_L(LL, ListLength_L(LL)+1, pkt->cmd.Data[2], pkt->cmd.Data[3], &(pkt->cmd.Data[4]), INIT_LEFT_SEC); // 添加一个线性列表元素到链表尾部 
   \   00006B                ; Setup parameters for call to function ListLength_L
   \   00006B   12....       LCALL   ??Subroutine14_0 & 0xFFFF
   \                     ??CrossCallReturnLabel_22:
   \   00006E   12....       LCALL   ??ListLength_L?relay
   \   000071   8A..         MOV     ?V0 + 0,R2
   \   000073   8B..         MOV     ?V0 + 1,R3
   \   000075   AC..         MOV     R4,?V0 + 0
   \   000077   AD..         MOV     R5,?V0 + 1
   \   000079   EE           MOV     A,R6
   \   00007A   2422         ADD     A,#0x22
   \   00007C   F5..         MOV     ?V0 + 0,A
   \   00007E   EF           MOV     A,R7
   \   00007F   3400         ADDC    A,#0x0
   \   000081   85..82       MOV     DPL,?V0 + 0
   \   000084   F583         MOV     DPH,A
   \   000086   E0           MOVX    A,@DPTR
   \   000087   F8           MOV     R0,A
   \   000088   A3           INC     DPTR
   \   000089   E0           MOVX    A,@DPTR
   \   00008A   F9           MOV     R1,A
   \   00008B   E8           MOV     A,R0
   \   00008C   FA           MOV     R2,A
   \   00008D   E9           MOV     A,R1
   \   00008E   FB           MOV     R3,A
   \   00008F                ; Setup parameters for call to function ListInsert_L
   \   00008F   75..05       MOV     ?V0 + 0,#0x5
   \   000092   78..         MOV     R0,#?V0 + 0
   \   000094   12....       LCALL   ?PUSH_XSTACK_I_ONE
   \   000097   EA           MOV     A,R2
   \   000098   2404         ADD     A,#0x4
   \   00009A   F5..         MOV     ?V0 + 0,A
   \   00009C   EB           MOV     A,R3
   \   00009D   3400         ADDC    A,#0x0
   \   00009F   F5..         MOV     ?V0 + 1,A
   \   0000A1   78..         MOV     R0,#?V0 + 0
   \   0000A3   12....       LCALL   ?PUSH_XSTACK_I_TWO
   \   0000A6   8A82         MOV     DPL,R2
   \   0000A8   8B83         MOV     DPH,R3
   \   0000AA   A3           INC     DPTR
   \   0000AB   A3           INC     DPTR
   \   0000AC   A3           INC     DPTR
   \   0000AD   E0           MOVX    A,@DPTR
   \   0000AE   F5..         MOV     ?V0 + 0,A
   \   0000B0   78..         MOV     R0,#?V0 + 0
   \   0000B2   12....       LCALL   ?PUSH_XSTACK_I_ONE
   \   0000B5   8A82         MOV     DPL,R2
   \   0000B7   8B83         MOV     DPH,R3
   \   0000B9   A3           INC     DPTR
   \   0000BA   A3           INC     DPTR
   \   0000BB   E0           MOVX    A,@DPTR
   \   0000BC   F9           MOV     R1,A
   \   0000BD   EC           MOV     A,R4
   \   0000BE   2401         ADD     A,#0x1
   \   0000C0   0C           INC     R4
   \   0000C1   ED           MOV     A,R5
   \   0000C2   12....       LCALL   ?Subroutine6 & 0xFFFF
   \                     ??CrossCallReturnLabel_26:
   \   0000C5   12....       LCALL   ??ListInsert_L?relay
   \   0000C8   7404         MOV     A,#0x4
   \   0000CA   12....       LCALL   ?DEALLOC_XSTACK8
    444                    myprintf("Insert new EP in list\n");
   \   0000CD                ; Setup parameters for call to function myprintf
   \   0000CD   7A..         MOV     R2,#`?<Constant "Insert new EP in list\\n">` & 0xff
   \   0000CF   7B..         MOV     R3,#(`?<Constant "Insert new EP in list\\n">` >> 8) & 0xff
   \   0000D1   12....       LCALL   ??myprintf?relay
   \   0000D4   8071         SJMP    ??SampleApp_MessageMSGCB_1
    445                  } else { // 更新终端所在节点的在线时长，标记为在线状态
    446                    updateListEleStatus(LL, ret, INIT_LEFT_SEC);
   \                     ??SampleApp_MessageMSGCB_3:
   \   0000D6                ; Setup parameters for call to function updateListEleStatus
   \   0000D6   75..05       MOV     ?V0 + 0,#0x5
   \   0000D9   75..00       MOV     ?V0 + 1,#0x0
   \   0000DC   78..         MOV     R0,#?V0 + 0
   \   0000DE   12....       LCALL   ?PUSH_XSTACK_I_TWO
   \   0000E1   E9           MOV     A,R1
   \   0000E2   FC           MOV     R4,A
   \   0000E3   33           RLC     A
   \   0000E4   95E0         SUBB    A,0xE0 /* A   */
   \   0000E6   12....       LCALL   ??Subroutine13_0 & 0xFFFF
    447                    // myprintf("Already In List, update()\n");
    448                  }
    449                  // myprintf("length = %d\n", ListLength_L(LL));
    450                } else if(cmd == 0x72 && pkt->cmd.Data[10] == '@') { // 收到终端回复的确认收到投币命令
   \                     ??CrossCallReturnLabel_24:
   \   0000E9   12....       LCALL   ??updateListEleStatus?relay
   \   0000EC   7402         MOV     A,#0x2
   \   0000EE   12....       LCALL   ?DEALLOC_XSTACK8
   \   0000F1   8054         SJMP    ??SampleApp_MessageMSGCB_1
   \                     ??SampleApp_MessageMSGCB_2:
   \   0000F3   7472         MOV     A,#0x72
   \   0000F5   6A           XRL     A,R2
   \   0000F6   7021         JNZ     ??SampleApp_MessageMSGCB_4
   \   0000F8   12....       LCALL   ?Subroutine9 & 0xFFFF
   \                     ??CrossCallReturnLabel_11:
   \   0000FB   A3           INC     DPTR
   \   0000FC   E0           MOVX    A,@DPTR
   \   0000FD   F583         MOV     DPH,A
   \   0000FF   8882         MOV     DPL,R0
   \   000101   A3           INC     DPTR
   \   000102   A3           INC     DPTR
   \   000103   A3           INC     DPTR
   \   000104   A3           INC     DPTR
   \   000105   A3           INC     DPTR
   \   000106   A3           INC     DPTR
   \   000107   A3           INC     DPTR
   \   000108   A3           INC     DPTR
   \   000109   A3           INC     DPTR
   \   00010A   A3           INC     DPTR
   \   00010B   E0           MOVX    A,@DPTR
   \   00010C   6440         XRL     A,#0x40
   \   00010E   7037         JNZ     ??SampleApp_MessageMSGCB_1
    451                  mySendByteBuf(pkt->cmd.Data, 11); // 转发回复消息到上位机
   \   000110                ; Setup parameters for call to function mySendByteBuf
   \   000110   7C0B         MOV     R4,#0xb
   \   000112   7D00         MOV     R5,#0x0
   \   000114   12....       LCALL   ?Subroutine9 & 0xFFFF
    452                } else if(cmd == 0x51 && pkt->cmd.Data[12] == '@') { // 终端按键S1上传的长短地址信息
   \                     ??CrossCallReturnLabel_12:
   \   000117   8028         SJMP    ??SampleApp_MessageMSGCB_5
   \                     ??SampleApp_MessageMSGCB_4:
   \   000119   7451         MOV     A,#0x51
   \   00011B   6A           XRL     A,R2
   \   00011C   7029         JNZ     ??SampleApp_MessageMSGCB_1
   \   00011E   12....       LCALL   ?Subroutine3 & 0xFFFF
   \                     ??CrossCallReturnLabel_1:
   \   000121   7024         JNZ     ??SampleApp_MessageMSGCB_1
    453                  printAddrInfoHex(pkt->cmd.Data+2, 10);
   \   000123                ; Setup parameters for call to function printAddrInfoHex
   \   000123   790A         MOV     R1,#0xa
   \   000125   85..82       MOV     DPL,?V0 + 0
   \   000128   85..83       MOV     DPH,?V0 + 1
   \   00012B   E0           MOVX    A,@DPTR
   \   00012C   2402         ADD     A,#0x2
   \   00012E   FA           MOV     R2,A
   \   00012F   A3           INC     DPTR
   \   000130   E0           MOVX    A,@DPTR
   \   000131   3400         ADDC    A,#0x0
   \   000133   FB           MOV     R3,A
   \   000134   12....       LCALL   ??printAddrInfoHex?relay
    454                  mySendByteBuf(pkt->cmd.Data, 13);        
   \   000137                ; Setup parameters for call to function mySendByteBuf
   \   000137   7C0D         MOV     R4,#0xd
   \   000139   7D00         MOV     R5,#0x0
   \   00013B   85..82       MOV     DPL,?V0 + 0
   \   00013E   85..83       MOV     DPH,?V0 + 1
    455                }
    456              }
    457          //路由器和终端接收数据处理     
    458          #else
    459              data = pkt->cmd.Data[0];
    460              cmd = pkt->cmd.Data[1];
    461              if(data == '#')
    462              {
    463                if(cmd == 0x81 && pkt->cmd.Data[3] == '@') { // 收到投递指定币数的消息
    464                  AfReplyGetCoinCmd(); // 回复已经收到投币命令0x72
    465                  
    466                  myprintf("begin add coin = %d\n", pkt->cmd.Data[2]); // 进行投币动作
    467                  NeedCoinDelivered = pkt->cmd.Data[2];
    468                  SIMULATE_PIN = 0; // 初始低电平
    469                  osal_start_timerEx( SampleApp_TaskID, SAMPLEAPP_SIMULATE_COIN_MSG_EVT, 10); // 产生定时器事件
    470                } else if(cmd == 0x31 && pkt->cmd.Data[3] == '@') { // LED2闪灯测试命令
    471                  HalLedBlink(HAL_LED_2, 2, 25, 500);
    472                  recvTestMsgCount++;
    473                  HalLcdWriteString("Recv:", HAL_LCD_LINE_5);
    474                  convertHexToStr(recvTestMsgCount, HAL_LCD_LINE_6);
    475                }
    476              }        
    477          #endif    
    478              break;
    479              
    480            default:
    481              break;
    482            }
   \                     ??SampleApp_MessageMSGCB_5:
   \   000141   12....       LCALL   ??Subroutine15_0 & 0xFFFF
   \                     ??CrossCallReturnLabel_21:
   \   000144   12....       LCALL   ??mySendByteBuf?relay
    483          }
   \                     ??SampleApp_MessageMSGCB_1:
   \   000147                REQUIRE ?Subroutine1
   \   000147                ; // Fall through to label ?Subroutine1

   \                                 In  segment BANKED_CODE, align 1, keep-with-next
   \                     ?Subroutine1:
   \   000000   7F02         MOV     R7,#0x2
   \   000002   02....       LJMP    ?BANKED_LEAVE_XDATA

   \                                 In  segment BANKED_CODE, align 1, keep-with-next
   \                     ?Subroutine9:
   \   000000   12....       LCALL   ?Subroutine12 & 0xFFFF
   \                     ??CrossCallReturnLabel_20:
   \   000003   22           RET

   \                                 In  segment BANKED_CODE, align 1, keep-with-next
   \                     ?Subroutine12:
   \   000000   EE           MOV     A,R6
   \   000001   2422         ADD     A,#0x22
   \   000003   F582         MOV     DPL,A
   \   000005   EF           MOV     A,R7
   \   000006   3400         ADDC    A,#0x0
   \   000008   F583         MOV     DPH,A
   \   00000A   22           RET

   \                                 In  segment BANKED_CODE, align 1, keep-with-next
   \                     ?Subroutine3:
   \   000000   12....       LCALL   ?Subroutine12 & 0xFFFF
   \                     ??CrossCallReturnLabel_19:
   \   000003   E0           MOVX    A,@DPTR
   \   000004   240C         ADD     A,#0xc
   \   000006   F8           MOV     R0,A
   \   000007   A3           INC     DPTR
   \   000008   E0           MOVX    A,@DPTR
   \   000009   3400         ADDC    A,#0x0
   \   00000B   F9           MOV     R1,A
   \   00000C   8882         MOV     DPL,R0
   \   00000E   8983         MOV     DPH,R1
   \   000010   E0           MOVX    A,@DPTR
   \   000011   6440         XRL     A,#0x40
   \   000013   22           RET

   \                                 In  segment BANKED_CODE, align 1, keep-with-next
   \                     ?Subroutine6:
   \   000000   3400         ADDC    A,#0x0
   \   000002                REQUIRE ??Subroutine13_0
   \   000002                ; // Fall through to label ??Subroutine13_0

   \                                 In  segment BANKED_CODE, align 1, keep-with-next
   \                     ??Subroutine13_0:
   \   000000   FD           MOV     R5,A
   \   000001                REQUIRE ??Subroutine14_0
   \   000001                ; // Fall through to label ??Subroutine14_0

   \                                 In  segment BANKED_CODE, align 1, keep-with-next
   \                     ??Subroutine14_0:
   \   000000   90....       MOV     DPTR,#LL
   \   000003                REQUIRE ??Subroutine15_0
   \   000003                ; // Fall through to label ??Subroutine15_0

   \                                 In  segment BANKED_CODE, align 1, keep-with-next
   \                     ??Subroutine15_0:
   \   000000   E0           MOVX    A,@DPTR
   \   000001   FA           MOV     R2,A
   \   000002   A3           INC     DPTR
   \   000003   E0           MOVX    A,@DPTR
   \   000004   FB           MOV     R3,A
   \   000005   22           RET
    484          
    485          /**
    486          * 协调器向终端发送广播类型消息
    487          */

   \                                 In  segment BANKED_CODE, align 1, keep-with-next
    488          void SampleApp_SendPeriodicMessage( int8 key )
   \                     SampleApp_SendPeriodicMessage:
    489          {
   \   000000   74F6         MOV     A,#-0xa
   \   000002   12....       LCALL   ?BANKED_ENTER_XDATA
   \   000005                ; Saved register size: 10
   \   000005                ; Auto size: 4
   \   000005   74FC         MOV     A,#-0x4
   \   000007   12....       LCALL   ?ALLOC_XSTACK8
   \   00000A   E9           MOV     A,R1
   \   00000B   FE           MOV     R6,A
    490            if(key == 1) { // 按键S1
   \   00000C   7401         MOV     A,#0x1
   \   00000E   6E           XRL     A,R6
   \   00000F   706F         JNZ     ??SampleApp_SendPeriodicMessage_0
    491              uint8 sendKeyS1Buf[4] = {'#', 0x31, 0, '@'};
   \   000011   85..82       MOV     DPL,?XSP + 0
   \   000014   85..83       MOV     DPH,?XSP + 1
   \   000017   AC82         MOV     R4,DPL
   \   000019   AD83         MOV     R5,DPH
   \   00001B   7583..       MOV     DPH,#(`?<Constant {35, 49, 0, 64}>` >> 8) & 0xff
   \   00001E   7582..       MOV     DPL,#`?<Constant {35, 49, 0, 64}>` & 0xff
   \   000021   7404         MOV     A,#0x4
   \   000023   12....       LCALL   ?MOVE_LONG8_XDATA_XDATA
    492              
    493              if ( AF_DataRequest( &SampleApp_Periodic_DstAddr, &SampleApp_epDesc,
    494                                  SAMPLEAPP_PERIODIC_CLUSTERID,
    495                                  4,
    496                                  sendKeyS1Buf,
    497                                  &SampleApp_TransID,
    498                                  AF_DISCV_ROUTE,
    499                                  AF_DEFAULT_RADIUS ) == afStatus_SUCCESS )
   \   000026                ; Setup parameters for call to function AF_DataRequest
   \   000026   75..1E       MOV     ?V0 + 0,#0x1e
   \   000029   78..         MOV     R0,#?V0 + 0
   \   00002B   12....       LCALL   ?PUSH_XSTACK_I_ONE
   \   00002E   75....       MOV     ?V0 + 0,#SampleApp_TransID & 0xff
   \   000031   75....       MOV     ?V0 + 1,#(SampleApp_TransID >> 8) & 0xff
   \   000034   78..         MOV     R0,#?V0 + 0
   \   000036   12....       LCALL   ?PUSH_XSTACK_I_TWO
   \   000039   7403         MOV     A,#0x3
   \   00003B   12....       LCALL   ?XSTACK_DISP0_8
   \   00003E   8582..       MOV     ?V0 + 0,DPL
   \   000041   8583..       MOV     ?V0 + 1,DPH
   \   000044   78..         MOV     R0,#?V0 + 0
   \   000046   12....       LCALL   ?PUSH_XSTACK_I_TWO
   \   000049   75..04       MOV     ?V0 + 0,#0x4
   \   00004C   75..00       MOV     ?V0 + 1,#0x0
   \   00004F   78..         MOV     R0,#?V0 + 0
   \   000051   12....       LCALL   ?PUSH_XSTACK_I_TWO
   \   000054   75..01       MOV     ?V0 + 0,#0x1
   \   000057   78..         MOV     R0,#?V0 + 0
   \   000059   12....       LCALL   ?PUSH_XSTACK_I_TWO
   \   00005C   7920         MOV     R1,#0x20
   \   00005E   7C..         MOV     R4,#SampleApp_epDesc & 0xff
   \   000060   7D..         MOV     R5,#(SampleApp_epDesc >> 8) & 0xff
   \   000062   7A..         MOV     R2,#SampleApp_Periodic_DstAddr & 0xff
   \   000064   7B..         MOV     R3,#(SampleApp_Periodic_DstAddr >> 8) & 0xff
   \   000066   12....       LCALL   ??AF_DataRequest?relay
   \   000069   7409         MOV     A,#0x9
   \   00006B   12....       LCALL   ?DEALLOC_XSTACK8
   \   00006E   E9           MOV     A,R1
   \   00006F   701B         JNZ     ??SampleApp_SendPeriodicMessage_1
    500              {
    501                HalLedBlink(HAL_LED_2, 2, 50, 500);
   \   000071                ; Setup parameters for call to function HalLedBlink
   \   000071   7CF4         MOV     R4,#-0xc
   \   000073   7D01         MOV     R5,#0x1
   \   000075   7B32         MOV     R3,#0x32
   \   000077   7A02         MOV     R2,#0x2
   \   000079   7902         MOV     R1,#0x2
   \   00007B   12....       LCALL   ??HalLedBlink?relay
   \   00007E   800C         SJMP    ??SampleApp_SendPeriodicMessage_1
    502              }
    503            } else if(key == 2) { // 按键S2
   \                     ??SampleApp_SendPeriodicMessage_0:
   \   000080   7402         MOV     A,#0x2
   \   000082   6E           XRL     A,R6
   \   000083   7007         JNZ     ??SampleApp_SendPeriodicMessage_1
    504              myprintf("press key S2\n");
   \   000085                ; Setup parameters for call to function myprintf
   \   000085   7A..         MOV     R2,#`?<Constant "press key S2\\n">` & 0xff
   \   000087   7B..         MOV     R3,#(`?<Constant "press key S2\\n">` >> 8) & 0xff
   \   000089   12....       LCALL   ??myprintf?relay
    505            }
    506          }
   \                     ??SampleApp_SendPeriodicMessage_1:
   \   00008C   7404         MOV     A,#0x4
   \   00008E   12....       LCALL   ?DEALLOC_XSTACK8
   \   000091   02....       LJMP    ?Subroutine1 & 0xFFFF
    507          
    508          /**
    509            协调器心跳功能函数，使用串口向树莓派发送心跳信息
    510          */

   \                                 In  segment XDATA_Z, align 1, keep-with-next
    511          uint16 totalSendTestCount = 0;
   \                     totalSendTestCount:
   \   000000                DS 2
   \   000002                REQUIRE __INIT_XDATA_Z

   \                                 In  segment BANKED_CODE, align 1, keep-with-next
    512          void SampleApp_SendHeartBeatMessageCoor(void) {
   \                     SampleApp_SendHeartBeatMessageCoor:
   \   000000   C082         PUSH    DPL
   \   000002   C083         PUSH    DPH
   \   000004                ; Saved register size: 2
   \   000004                ; Auto size: 3
   \   000004   74FD         MOV     A,#-0x3
   \   000006   12....       LCALL   ?ALLOC_XSTACK8
    513            // 遍历终端列表，将所有节点剩余时间-1，如果小于0，则置0
    514            uint8 heartBeatBuf[3] = {'#', 0x46, '@'};
   \   000009   85..82       MOV     DPL,?XSP + 0
   \   00000C   85..83       MOV     DPH,?XSP + 1
   \   00000F   AC82         MOV     R4,DPL
   \   000011   AD83         MOV     R5,DPH
   \   000013   7583..       MOV     DPH,#(`?<Constant {35, 70, 64}>` >> 8) & 0xff
   \   000016   7582..       MOV     DPL,#`?<Constant {35, 70, 64}>` & 0xff
   \   000019   7403         MOV     A,#0x3
   \   00001B   12....       LCALL   ?MOVE_LONG8_XDATA_XDATA
    515            
    516            decAllListEPLeftSec(LL); // 将终端列表中元素在线时长-1，如果检测到超时则将IEEE发送到上位机
   \   00001E                ; Setup parameters for call to function decAllListEPLeftSec
   \   00001E   12....       LCALL   ??Subroutine14_0 & 0xFFFF
   \                     ??CrossCallReturnLabel_23:
   \   000021   12....       LCALL   ??decAllListEPLeftSec?relay
    517            mySendByteBuf(heartBeatBuf, 3);
   \   000024                ; Setup parameters for call to function mySendByteBuf
   \   000024   7C03         MOV     R4,#0x3
   \   000026   7D00         MOV     R5,#0x0
   \   000028   85..82       MOV     DPL,?XSP + 0
   \   00002B   85..83       MOV     DPH,?XSP + 1
   \   00002E   AA82         MOV     R2,DPL
   \   000030   AB83         MOV     R3,DPH
   \   000032   12....       LCALL   ??mySendByteBuf?relay
    518            HalLedBlink(HAL_LED_1, 1, 50, 500);
   \   000035                ; Setup parameters for call to function HalLedBlink
   \   000035   7CF4         MOV     R4,#-0xc
   \   000037   7D01         MOV     R5,#0x1
   \   000039   7B32         MOV     R3,#0x32
   \   00003B   7A01         MOV     R2,#0x1
   \   00003D   7901         MOV     R1,#0x1
   \   00003F   12....       LCALL   ??HalLedBlink?relay
    519            
    520            totalSendTestCount++;
   \   000042   90....       MOV     DPTR,#totalSendTestCount
   \   000045   E0           MOVX    A,@DPTR
   \   000046   2401         ADD     A,#0x1
   \   000048   F0           MOVX    @DPTR,A
   \   000049   A3           INC     DPTR
   \   00004A   E0           MOVX    A,@DPTR
   \   00004B   3400         ADDC    A,#0x0
   \   00004D   F0           MOVX    @DPTR,A
    521            if(totalSendTestCount % 2 == 0) {
   \   00004E   90....       MOV     DPTR,#totalSendTestCount
   \   000051   E0           MOVX    A,@DPTR
   \   000052   A2E0         MOV     C,0xE0 /* A   */.0
   \   000054   4005         JC      ??SampleApp_SendHeartBeatMessageCoor_0
    522              SampleApp_SendPeriodicMessage(1);
   \   000056                ; Setup parameters for call to function SampleApp_SendPeriodicMessage
   \   000056   7901         MOV     R1,#0x1
   \   000058   12....       LCALL   ??SampleApp_SendPeriodicMessage?relay
    523            }
    524          }
   \                     ??SampleApp_SendHeartBeatMessageCoor_0:
   \   00005B   7403         MOV     A,#0x3
   \   00005D   12....       LCALL   ?DEALLOC_XSTACK8
   \   000060                REQUIRE ?Subroutine2
   \   000060                ; // Fall through to label ?Subroutine2

   \                                 In  segment BANKED_CODE, align 1, keep-with-next
   \                     ?Subroutine2:
   \   000000   D083         POP     DPH
   \   000002   D082         POP     DPL
   \   000004   02....       LJMP    ?BRET
    525          
    526          /**
    527            终端心跳函数，用于定时向协调器发送本机地址信息
    528          */

   \                                 In  segment BANKED_CODE, align 1, keep-with-next
    529          void SampleApp_SendHeartBeatMessageEnd(void) { 
   \                     SampleApp_SendHeartBeatMessageEnd:
   \   000000   C082         PUSH    DPL
   \   000002   C083         PUSH    DPH
   \   000004                ; Saved register size: 2
   \   000004                ; Auto size: 0
    530            AfSendAddrInfo(0x71);
   \   000004                ; Setup parameters for call to function AfSendAddrInfo
   \   000004   12....       LCALL   ?Subroutine8 & 0xFFFF
    531            HalLedBlink(HAL_LED_1, 1, 50, 500);
    532          }
   \                     ??CrossCallReturnLabel_9:
   \   000007   80..         SJMP    ?Subroutine2
    533          
    534          /**
    535            发送终端地址信息到协调器
    536          */

   \                                 In  segment BANKED_CODE, align 1, keep-with-next
    537          void AfSendAddrInfo(uint8 cmd) {
   \                     AfSendAddrInfo:
   \   000000   74F5         MOV     A,#-0xb
   \   000002   12....       LCALL   ?BANKED_ENTER_XDATA
   \   000005                ; Saved register size: 11
   \   000005                ; Auto size: 13
   \   000005   74F3         MOV     A,#-0xd
   \   000007   12....       LCALL   ?ALLOC_XSTACK8
   \   00000A   E9           MOV     A,R1
   \   00000B   FE           MOV     R6,A
    538            uint16 shortAddr;
    539            uint8 strBuf[13] = {0};  
   \   00000C   85..82       MOV     DPL,?XSP + 0
   \   00000F   85..83       MOV     DPH,?XSP + 1
   \   000012   AC82         MOV     R4,DPL
   \   000014   AD83         MOV     R5,DPH
   \   000016   7583..       MOV     DPH,#(`?<Constant {0}>` >> 8) & 0xff
   \   000019   7582..       MOV     DPL,#`?<Constant {0}>` & 0xff
   \   00001C   740D         MOV     A,#0xd
   \   00001E   12....       LCALL   ?MOVE_LONG8_XDATA_XDATA
    540            
    541            shortAddr = NLME_GetShortAddr(); // 获取自身网络设备地址，获取父设备网络地址：uint16 NLME_GetCoordShortAddr( void );
   \   000021                ; Setup parameters for call to function NLME_GetShortAddr
   \   000021   12....       LCALL   ??NLME_GetShortAddr?relay
    542            strBuf[0] = '#';  // 发送数据的标识，便于协调器解析
   \   000024   85..82       MOV     DPL,?XSP + 0
   \   000027   85..83       MOV     DPH,?XSP + 1
   \   00002A   7423         MOV     A,#0x23
   \   00002C   F0           MOVX    @DPTR,A
    543            strBuf[1] = cmd; // 消息类型标识
   \   00002D   7401         MOV     A,#0x1
   \   00002F   12....       LCALL   ?XSTACK_DISP0_8
   \   000032   EE           MOV     A,R6
   \   000033   F0           MOVX    @DPTR,A
    544            strBuf[2] = HI_UINT16(shortAddr); // 存放地址的高8位
   \   000034   7402         MOV     A,#0x2
   \   000036   12....       LCALL   ?XSTACK_DISP0_8
   \   000039   EB           MOV     A,R3
   \   00003A   F0           MOVX    @DPTR,A
    545            strBuf[3] = LO_UINT16(shortAddr); // 存放低8位
   \   00003B   7403         MOV     A,#0x3
   \   00003D   12....       LCALL   ?XSTACK_DISP0_8
   \   000040   EA           MOV     A,R2
   \   000041   12....       LCALL   ?Subroutine4 & 0xFFFF
    546            osal_memcpy(&strBuf[4], NLME_GetExtAddr(), 8); // 复制IEEE地址
   \                     ??CrossCallReturnLabel_2:
   \   000044   12....       LCALL   ?PUSH_XSTACK_I_THREE
   \   000047   7C08         MOV     R4,#0x8
   \   000049   7D00         MOV     R5,#0x0
   \   00004B   7407         MOV     A,#0x7
   \   00004D   12....       LCALL   ?XSTACK_DISP0_8
   \   000050   AA82         MOV     R2,DPL
   \   000052   AB83         MOV     R3,DPH
   \   000054   12....       LCALL   ??osal_memcpy?relay
   \   000057   7403         MOV     A,#0x3
   \   000059   12....       LCALL   ?DEALLOC_XSTACK8
    547            strBuf[12] = '@'; // 尾部字节
   \   00005C   740C         MOV     A,#0xc
   \   00005E   12....       LCALL   ?XSTACK_DISP0_8
   \   000061   7440         MOV     A,#0x40
   \   000063   F0           MOVX    @DPTR,A
    548            if ( AF_DataRequest( &SampleApp_TxAddr,                  // 发送的目的地址+端点地址+传送模式
    549                                (endPointDesc_t *)&SampleApp_epDesc, // 源终端的描述
    550                                SAMPLEAPP_PERIODIC_CLUSTERID,        // 被profile指定的有效的集群号
    551                                13,                                  // 发送数据长度
    552                                strBuf,                              // 发送数据缓冲区
    553                                &SampleApp_TransID,                  // 消息发送ID
    554                                AF_DISCV_ROUTE,                      // 有效位掩码的发送选项
    555                                AF_DEFAULT_RADIUS ) != afStatus_SUCCESS ) // 传送跳数，通常设置为AF_DEFAULT_RADIUS
   \   000064                ; Setup parameters for call to function AF_DataRequest
   \   000064   75..1E       MOV     ?V0 + 0,#0x1e
   \   000067   78..         MOV     R0,#?V0 + 0
   \   000069   12....       LCALL   ?PUSH_XSTACK_I_ONE
   \   00006C   75....       MOV     ?V0 + 0,#SampleApp_TransID & 0xff
   \   00006F   75....       MOV     ?V0 + 1,#(SampleApp_TransID >> 8) & 0xff
   \   000072   78..         MOV     R0,#?V0 + 0
   \   000074   12....       LCALL   ?PUSH_XSTACK_I_TWO
   \   000077   7403         MOV     A,#0x3
   \   000079   12....       LCALL   ?XSTACK_DISP0_8
   \   00007C   8582..       MOV     ?V0 + 0,DPL
   \   00007F   8583..       MOV     ?V0 + 1,DPH
   \   000082   78..         MOV     R0,#?V0 + 0
   \   000084   12....       LCALL   ?PUSH_XSTACK_I_TWO
   \   000087   75..0D       MOV     ?V0 + 0,#0xd
   \   00008A   75..00       MOV     ?V0 + 1,#0x0
   \   00008D   78..         MOV     R0,#?V0 + 0
   \   00008F   12....       LCALL   ?PUSH_XSTACK_I_TWO
   \   000092   75..01       MOV     ?V0 + 0,#0x1
   \   000095   78..         MOV     R0,#?V0 + 0
   \   000097   12....       LCALL   ?PUSH_XSTACK_I_TWO
   \   00009A   7920         MOV     R1,#0x20
   \   00009C   7C..         MOV     R4,#SampleApp_epDesc & 0xff
   \   00009E   7D..         MOV     R5,#(SampleApp_epDesc >> 8) & 0xff
   \   0000A0   7A..         MOV     R2,#SampleApp_TxAddr & 0xff
   \   0000A2   7B..         MOV     R3,#(SampleApp_TxAddr >> 8) & 0xff
   \   0000A4   12....       LCALL   ??AF_DataRequest?relay
   \   0000A7   7409         MOV     A,#0x9
   \   0000A9   12....       LCALL   ?DEALLOC_XSTACK8
   \   0000AC   E9           MOV     A,R1
   \   0000AD   6007         JZ      ??AfSendAddrInfo_0
    556            {
    557              myprintf("EP AfSendAddrInfo() failed\n");
   \   0000AF                ; Setup parameters for call to function myprintf
   \   0000AF   7A..         MOV     R2,#`?<Constant "EP AfSendAddrInfo() f...">` & 0xff
   \   0000B1   7B..         MOV     R3,#(`?<Constant "EP AfSendAddrInfo() f...">` >> 8) & 0xff
   \   0000B3   12....       LCALL   ??myprintf?relay
    558            }
    559          }
   \                     ??AfSendAddrInfo_0:
   \   0000B6   740D         MOV     A,#0xd
   \   0000B8   02....       LJMP    ?Subroutine0 & 0xFFFF

   \                                 In  segment BANKED_CODE, align 1, keep-with-next
   \                     ?Subroutine4:
   \   000000   F0           MOVX    @DPTR,A
   \   000001                ; Setup parameters for call to function osal_memcpy
   \   000001                ; Setup parameters for call to function NLME_GetExtAddr
   \   000001                ; Setup parameters for call to function osal_memcpy
   \   000001                ; Setup parameters for call to function NLME_GetExtAddr
   \   000001   12....       LCALL   ??NLME_GetExtAddr?relay
   \   000004   8A..         MOV     ?V0 + 0,R2
   \   000006   8B..         MOV     ?V0 + 1,R3
   \   000008   75..00       MOV     ?V0 + 2,#0x0
   \   00000B   78..         MOV     R0,#?V0 + 0
   \   00000D   22           RET

   \                                 In  segment BANKED_CODE, align 1, keep-with-next
   \                     ?Subroutine0:
   \   000000   12....       LCALL   ?DEALLOC_XSTACK8
   \   000003                REQUIRE ??Subroutine16_0
   \   000003                ; // Fall through to label ??Subroutine16_0
    560          
    561          /**
    562            终端发送已经收到投币开始游戏命令
    563          */

   \                                 In  segment BANKED_CODE, align 1, keep-with-next
    564          void AfReplyGetCoinCmd(void) {
   \                     AfReplyGetCoinCmd:
   \   000000   74F5         MOV     A,#-0xb
   \   000002   12....       LCALL   ?BANKED_ENTER_XDATA
   \   000005                ; Saved register size: 11
   \   000005                ; Auto size: 11
   \   000005   74F5         MOV     A,#-0xb
   \   000007   12....       LCALL   ?ALLOC_XSTACK8
    565            uint8 strBuf[11] = {0};  
   \   00000A   85..82       MOV     DPL,?XSP + 0
   \   00000D   85..83       MOV     DPH,?XSP + 1
   \   000010   AC82         MOV     R4,DPL
   \   000012   AD83         MOV     R5,DPH
   \   000014   7583..       MOV     DPH,#(`?<Constant {0}>_1` >> 8) & 0xff
   \   000017   7582..       MOV     DPL,#`?<Constant {0}>_1` & 0xff
   \   00001A   740B         MOV     A,#0xb
   \   00001C   12....       LCALL   ?MOVE_LONG8_XDATA_XDATA
    566            
    567            strBuf[0] = '#';  // 发送数据的标识，便于协调器解析
   \   00001F   85..82       MOV     DPL,?XSP + 0
   \   000022   85..83       MOV     DPH,?XSP + 1
   \   000025   7423         MOV     A,#0x23
   \   000027   F0           MOVX    @DPTR,A
    568            strBuf[1] = 0x72; // 消息类型标识
   \   000028   7401         MOV     A,#0x1
   \   00002A   12....       LCALL   ?XSTACK_DISP0_8
   \   00002D   7472         MOV     A,#0x72
   \   00002F   12....       LCALL   ?Subroutine4 & 0xFFFF
    569            osal_memcpy(&strBuf[2], NLME_GetExtAddr(), 8); // 复制IEEE地址
   \                     ??CrossCallReturnLabel_3:
   \   000032   12....       LCALL   ?PUSH_XSTACK_I_THREE
   \   000035   7C08         MOV     R4,#0x8
   \   000037   7D00         MOV     R5,#0x0
   \   000039   7405         MOV     A,#0x5
   \   00003B   12....       LCALL   ?XSTACK_DISP0_8
   \   00003E   AA82         MOV     R2,DPL
   \   000040   AB83         MOV     R3,DPH
   \   000042   12....       LCALL   ??osal_memcpy?relay
   \   000045   7403         MOV     A,#0x3
   \   000047   12....       LCALL   ?DEALLOC_XSTACK8
    570            strBuf[10] = '@'; // 尾部字节
   \   00004A   740A         MOV     A,#0xa
   \   00004C   12....       LCALL   ?XSTACK_DISP0_8
   \   00004F   7440         MOV     A,#0x40
   \   000051   F0           MOVX    @DPTR,A
    571            if ( AF_DataRequest( &SampleApp_TxAddr,                  // 发送的目的地址+端点地址+传送模式
    572                                (endPointDesc_t *)&SampleApp_epDesc, // 源终端的描述
    573                                SAMPLEAPP_PERIODIC_CLUSTERID,        // 被profile指定的有效的集群号
    574                                11,                                  // 发送数据长度
    575                                strBuf,                              // 发送数据缓冲区
    576                                &SampleApp_TransID,                  // 消息发送ID
    577                                AF_DISCV_ROUTE,                      // 有效位掩码的发送选项
    578                                AF_DEFAULT_RADIUS ) != afStatus_SUCCESS ) // 传送跳数，通常设置为AF_DEFAULT_RADIUS
   \   000052                ; Setup parameters for call to function AF_DataRequest
   \   000052   75..1E       MOV     ?V0 + 0,#0x1e
   \   000055   78..         MOV     R0,#?V0 + 0
   \   000057   12....       LCALL   ?PUSH_XSTACK_I_ONE
   \   00005A   75....       MOV     ?V0 + 0,#SampleApp_TransID & 0xff
   \   00005D   75....       MOV     ?V0 + 1,#(SampleApp_TransID >> 8) & 0xff
   \   000060   78..         MOV     R0,#?V0 + 0
   \   000062   12....       LCALL   ?PUSH_XSTACK_I_TWO
   \   000065   7403         MOV     A,#0x3
   \   000067   12....       LCALL   ?XSTACK_DISP0_8
   \   00006A   8582..       MOV     ?V0 + 0,DPL
   \   00006D   8583..       MOV     ?V0 + 1,DPH
   \   000070   78..         MOV     R0,#?V0 + 0
   \   000072   12....       LCALL   ?PUSH_XSTACK_I_TWO
   \   000075   75..0B       MOV     ?V0 + 0,#0xb
   \   000078   75..00       MOV     ?V0 + 1,#0x0
   \   00007B   78..         MOV     R0,#?V0 + 0
   \   00007D   12....       LCALL   ?PUSH_XSTACK_I_TWO
   \   000080   75..01       MOV     ?V0 + 0,#0x1
   \   000083   78..         MOV     R0,#?V0 + 0
   \   000085   12....       LCALL   ?PUSH_XSTACK_I_TWO
   \   000088   7920         MOV     R1,#0x20
   \   00008A   7C..         MOV     R4,#SampleApp_epDesc & 0xff
   \   00008C   7D..         MOV     R5,#(SampleApp_epDesc >> 8) & 0xff
   \   00008E   7A..         MOV     R2,#SampleApp_TxAddr & 0xff
   \   000090   7B..         MOV     R3,#(SampleApp_TxAddr >> 8) & 0xff
   \   000092   12....       LCALL   ??AF_DataRequest?relay
   \   000095   7409         MOV     A,#0x9
   \   000097   12....       LCALL   ?DEALLOC_XSTACK8
   \   00009A   E9           MOV     A,R1
   \   00009B   6007         JZ      ??AfReplyGetCoinCmd_0
    579            {
    580              myprintf("EP AfReplyGetCoinCmd() failed\n");
   \   00009D                ; Setup parameters for call to function myprintf
   \   00009D   7A..         MOV     R2,#`?<Constant "EP AfReplyGetCoinCmd(...">` & 0xff
   \   00009F   7B..         MOV     R3,#(`?<Constant "EP AfReplyGetCoinCmd(...">` >> 8) & 0xff
   \   0000A1   12....       LCALL   ??myprintf?relay
    581            }
    582          }
   \                     ??AfReplyGetCoinCmd_0:
   \   0000A4   740B         MOV     A,#0xb
   \   0000A6   02....       LJMP    ?Subroutine0 & 0xFFFF
    583          
    584          /**
    585            协调器打印终端上传的长短地址
    586          */

   \                                 In  segment BANKED_CODE, align 1, keep-with-next
    587          void printAddrInfoHex(uint8* buf, uint8 dataLen) {
   \                     printAddrInfoHex:
   \   000000   74F3         MOV     A,#-0xd
   \   000002   12....       LCALL   ?BANKED_ENTER_XDATA
   \   000005                ; Saved register size: 13
   \   000005                ; Auto size: 0
   \   000005   EA           MOV     A,R2
   \   000006   FE           MOV     R6,A
   \   000007   EB           MOV     A,R3
   \   000008   FF           MOV     R7,A
   \   000009   89..         MOV     ?V0 + 4,R1
    588            int i = 0;
    589            
    590            myprintf("\n");
   \   00000B                ; Setup parameters for call to function myprintf
   \   00000B   7A..         MOV     R2,#`?<Constant "\\n">` & 0xff
   \   00000D   7B..         MOV     R3,#(`?<Constant "\\n">` >> 8) & 0xff
   \   00000F   12....       LCALL   ??myprintf?relay
    591            for(i = 0; i < dataLen; i++) {
   \   000012   75..00       MOV     ?V0 + 0,#0x0
   \   000015   75..00       MOV     ?V0 + 1,#0x0
   \   000018   8037         SJMP    ??printAddrInfoHex_0
    592              if(i == 2) {
   \                     ??printAddrInfoHex_1:
   \   00001A   7402         MOV     A,#0x2
   \   00001C   65..         XRL     A,?V0 + 0
   \   00001E   7002         JNZ     ??printAddrInfoHex_2
   \   000020   E5..         MOV     A,?V0 + 1
   \                     ??printAddrInfoHex_2:
   \   000022   7007         JNZ     ??printAddrInfoHex_3
    593                myprintf("; IEEE = ");
   \   000024                ; Setup parameters for call to function myprintf
   \   000024   7A..         MOV     R2,#`?<Constant "; IEEE = ">` & 0xff
   \   000026   7B..         MOV     R3,#(`?<Constant "; IEEE = ">` >> 8) & 0xff
   \   000028   12....       LCALL   ??myprintf?relay
    594              }
    595              myprintf("0x%x,", buf[i]);
   \                     ??printAddrInfoHex_3:
   \   00002B                ; Setup parameters for call to function myprintf
   \   00002B   EE           MOV     A,R6
   \   00002C   25..         ADD     A,?V0 + 0
   \   00002E   F582         MOV     DPL,A
   \   000030   EF           MOV     A,R7
   \   000031   35..         ADDC    A,?V0 + 1
   \   000033   F583         MOV     DPH,A
   \   000035   12....       LCALL   ?Subroutine7 & 0xFFFF
    596            }
   \                     ??CrossCallReturnLabel_7:
   \   000038   12....       LCALL   ?PUSH_XSTACK_I_TWO
   \   00003B   7A..         MOV     R2,#`?<Constant "0x%x,">` & 0xff
   \   00003D   7B..         MOV     R3,#(`?<Constant "0x%x,">` >> 8) & 0xff
   \   00003F   12....       LCALL   ?Subroutine11 & 0xFFFF
   \                     ??CrossCallReturnLabel_18:
   \   000042   12....       LCALL   ?DEALLOC_XSTACK8
   \   000045   E5..         MOV     A,?V0 + 0
   \   000047   2401         ADD     A,#0x1
   \   000049   F5..         MOV     ?V0 + 0,A
   \   00004B   E5..         MOV     A,?V0 + 1
   \   00004D   3400         ADDC    A,#0x0
   \   00004F   F5..         MOV     ?V0 + 1,A
   \                     ??printAddrInfoHex_0:
   \   000051   85....       MOV     ?V0 + 2,?V0 + 4
   \   000054   C3           CLR     C
   \   000055   E5..         MOV     A,?V0 + 0
   \   000057   95..         SUBB    A,?V0 + 2
   \   000059   E5..         MOV     A,?V0 + 1
   \   00005B   9400         SUBB    A,#0x0
   \   00005D   A2D2         MOV     C,0xD0 /* PSW */.2
   \   00005F   65D0         XRL     A,PSW
   \   000061   33           RLC     A
   \   000062   40B6         JC      ??printAddrInfoHex_1
    597            myprintf("\n");
   \   000064                ; Setup parameters for call to function myprintf
   \   000064   7A..         MOV     R2,#`?<Constant "\\n">` & 0xff
   \   000066   7B..         MOV     R3,#(`?<Constant "\\n">` >> 8) & 0xff
   \   000068   12....       LCALL   ??myprintf?relay
    598          }
   \   00006B   7F05         MOV     R7,#0x5
   \   00006D   02....       LJMP    ?BANKED_LEAVE_XDATA
    599          
    600          /**
    601            将十六进制数转变成字符
    602          */

   \                                 In  segment BANKED_CODE, align 1, keep-with-next
    603          void convertHexToStr(uint16 addr, uint8 lcdLineNum) {
   \                     convertHexToStr:
   \   000000   74F5         MOV     A,#-0xb
   \   000002   12....       LCALL   ?BANKED_ENTER_XDATA
   \   000005                ; Saved register size: 11
   \   000005                ; Auto size: 7
   \   000005   74F9         MOV     A,#-0x7
   \   000007   12....       LCALL   ?ALLOC_XSTACK8
   \   00000A   7405         MOV     A,#0x5
   \   00000C   12....       LCALL   ?XSTACK_DISP0_8
   \   00000F   EA           MOV     A,R2
   \   000010   F0           MOVX    @DPTR,A
   \   000011   A3           INC     DPTR
   \   000012   EB           MOV     A,R3
   \   000013   F0           MOVX    @DPTR,A
   \   000014   E9           MOV     A,R1
   \   000015   FE           MOV     R6,A
    604            uint8 i;
    605            uint8 *xad;
    606            uint8 lcd_buf[2*2+1];
    607          
    608            // Display the extended address.
    609            xad = (uint8*)&addr + 2 - 1;
   \   000016   A882         MOV     R0,DPL
   \   000018   A983         MOV     R1,DPH
    610          
    611            for (i = 0; i < 2*2; xad--)
   \   00001A   7C00         MOV     R4,#0x0
    612            {
    613              uint8 ch;
    614              ch = (*xad >> 4) & 0x0F;
   \                     ??convertHexToStr_0:
   \   00001C   8882         MOV     DPL,R0
   \   00001E   8983         MOV     DPH,R1
   \   000020   E0           MOVX    A,@DPTR
   \   000021   C4           SWAP    A
   \   000022   540F         ANL     A,#0xf
   \   000024   FD           MOV     R5,A
    615              lcd_buf[i++] = ch + (( ch < 10 ) ? '0' : '7'); // +7可以转变成大写字符ABCDEF
   \   000025   EC           MOV     A,R4
   \   000026   FF           MOV     R7,A
   \   000027   0C           INC     R4
   \   000028   ED           MOV     A,R5
   \   000029   C3           CLR     C
   \   00002A   940A         SUBB    A,#0xa
   \   00002C   5004         JNC     ??convertHexToStr_1
   \   00002E   7A30         MOV     R2,#0x30
   \   000030   8002         SJMP    ??convertHexToStr_2
   \                     ??convertHexToStr_1:
   \   000032   7A37         MOV     R2,#0x37
   \                     ??convertHexToStr_2:
   \   000034   EA           MOV     A,R2
   \   000035   2D           ADD     A,R5
   \   000036   C0E0         PUSH    A
   \   000038   8F..         MOV     ?V0 + 0,R7
   \   00003A   12....       LCALL   ?Subroutine10 & 0xFFFF
   \                     ??CrossCallReturnLabel_13:
   \   00003D   D0E0         POP     A
   \   00003F   F0           MOVX    @DPTR,A
    616              ch = *xad & 0x0F;
   \   000040   8882         MOV     DPL,R0
   \   000042   8983         MOV     DPH,R1
   \   000044   E0           MOVX    A,@DPTR
   \   000045   540F         ANL     A,#0xf
   \   000047   FD           MOV     R5,A
    617              lcd_buf[i++] = ch + (( ch < 10 ) ? '0' : '7');
   \   000048   8C..         MOV     ?V0 + 2,R4
   \   00004A   0C           INC     R4
   \   00004B   C3           CLR     C
   \   00004C   940A         SUBB    A,#0xa
   \   00004E   5004         JNC     ??convertHexToStr_3
   \   000050   7A30         MOV     R2,#0x30
   \   000052   8002         SJMP    ??convertHexToStr_4
   \                     ??convertHexToStr_3:
   \   000054   7A37         MOV     R2,#0x37
   \                     ??convertHexToStr_4:
   \   000056   EA           MOV     A,R2
   \   000057   2D           ADD     A,R5
   \   000058   C0E0         PUSH    A
   \   00005A   85....       MOV     ?V0 + 0,?V0 + 2
   \   00005D   12....       LCALL   ?Subroutine10 & 0xFFFF
    618            }
   \                     ??CrossCallReturnLabel_14:
   \   000060   D0E0         POP     A
   \   000062   F0           MOVX    @DPTR,A
   \   000063   E8           MOV     A,R0
   \   000064   24FF         ADD     A,#-0x1
   \   000066   18           DEC     R0
   \   000067   E9           MOV     A,R1
   \   000068   34FF         ADDC    A,#-0x1
   \   00006A   F9           MOV     R1,A
   \   00006B   EC           MOV     A,R4
   \   00006C   C3           CLR     C
   \   00006D   9404         SUBB    A,#0x4
   \   00006F   40AB         JC      ??convertHexToStr_0
    619            lcd_buf[2*2] = '\0';
   \   000071   7404         MOV     A,#0x4
   \   000073   12....       LCALL   ?XSTACK_DISP0_8
   \   000076   E4           CLR     A
   \   000077   F0           MOVX    @DPTR,A
    620            HalLcdWriteString( (char*)lcd_buf, lcdLineNum);
   \   000078                ; Setup parameters for call to function HalLcdWriteString
   \   000078   EE           MOV     A,R6
   \   000079   F9           MOV     R1,A
   \   00007A   85..82       MOV     DPL,?XSP + 0
   \   00007D   85..83       MOV     DPH,?XSP + 1
   \   000080   AA82         MOV     R2,DPL
   \   000082   AB83         MOV     R3,DPH
   \   000084   12....       LCALL   ??HalLcdWriteString?relay
    621          }
   \   000087   7407         MOV     A,#0x7
   \   000089                REQUIRE ?Subroutine0
   \   000089                ; // Fall through to label ?Subroutine0

   \                                 In  segment BANKED_CODE, align 1, keep-with-next
   \                     ?Subroutine10:
   \   000000   85..82       MOV     DPL,?XSP + 0
   \   000003   85..83       MOV     DPH,?XSP + 1
   \   000006   E582         MOV     A,DPL
   \   000008   25..         ADD     A,?V0 + 0
   \   00000A   F582         MOV     DPL,A
   \   00000C   E583         MOV     A,DPH
   \   00000E   3400         ADDC    A,#0x0
   \   000010   F583         MOV     DPH,A
   \   000012   22           RET

   \                                 In  segment BANK_RELAYS, align 1
   \                     ??SampleApp_Init?relay:
   \   000000   12....       LCALL   ?BDISPATCH
   \   000003   ......       DC24    SampleApp_Init

   \                                 In  segment BANK_RELAYS, align 1
   \                     ??SampleApp_ProcessEvent?relay:
   \   000000   12....       LCALL   ?BDISPATCH
   \   000003   ......       DC24    SampleApp_ProcessEvent

   \                                 In  segment BANK_RELAYS, align 1
   \                     ??SampleApp_HandleKeys?relay:
   \   000000   12....       LCALL   ?BDISPATCH
   \   000003   ......       DC24    SampleApp_HandleKeys

   \                                 In  segment BANK_RELAYS, align 1
   \                     ??SampleApp_MessageMSGCB?relay:
   \   000000   12....       LCALL   ?BDISPATCH
   \   000003   ......       DC24    SampleApp_MessageMSGCB

   \                                 In  segment BANK_RELAYS, align 1
   \                     ??SampleApp_SendPeriodicMessage?relay:
   \   000000   12....       LCALL   ?BDISPATCH
   \   000003   ......       DC24    SampleApp_SendPeriodicMessage

   \                                 In  segment BANK_RELAYS, align 1
   \                     ??SampleApp_SendHeartBeatMessageCoor?relay:
   \   000000   12....       LCALL   ?BDISPATCH
   \   000003   ......       DC24    SampleApp_SendHeartBeatMessageCoor

   \                                 In  segment BANK_RELAYS, align 1
   \                     ??SampleApp_SendHeartBeatMessageEnd?relay:
   \   000000   12....       LCALL   ?BDISPATCH
   \   000003   ......       DC24    SampleApp_SendHeartBeatMessageEnd

   \                                 In  segment BANK_RELAYS, align 1
   \                     ??AfSendAddrInfo?relay:
   \   000000   12....       LCALL   ?BDISPATCH
   \   000003   ......       DC24    AfSendAddrInfo

   \                                 In  segment BANK_RELAYS, align 1
   \                     ??AfReplyGetCoinCmd?relay:
   \   000000   12....       LCALL   ?BDISPATCH
   \   000003   ......       DC24    AfReplyGetCoinCmd

   \                                 In  segment BANK_RELAYS, align 1
   \                     ??printAddrInfoHex?relay:
   \   000000   12....       LCALL   ?BDISPATCH
   \   000003   ......       DC24    printAddrInfoHex

   \                                 In  segment BANK_RELAYS, align 1
   \                     ??convertHexToStr?relay:
   \   000000   12....       LCALL   ?BDISPATCH
   \   000003   ......       DC24    convertHexToStr

   \                                 In  segment XDATA_ROM_C, align 1
   \                     `?<Constant "Group 1">`:
   \   000000   47726F75     DB "Group 1"
   \            70203100

   \                                 In  segment XDATA_ROM_C, align 1
   \                     `?<Constant "UartInit OK\\n">`:
   \   000000   55617274     DB "UartInit OK\012"
   \            496E6974
   \            204F4B0A
   \            00      

   \                                 In  segment XDATA_ROM_C, align 1
   \                     `?<Constant "InitList_L OVERFLOW\\n">`:
   \   000000   496E6974     DB "InitList_L OVERFLOW\012"
   \            4C697374
   \            5F4C204F
   \            56455246
   \            4C4F570A
   \            00      

   \                                 In  segment XDATA_ROM_C, align 1
   \                     `?<Constant {35, 69, 64}>`:
   \   000000   23           DB 35
   \   000001   45           DB 69
   \   000002   40           DB 64

   \                                 In  segment XDATA_ROM_C, align 1
   \                     `?<Constant "AF_DATA_CONFIRM_CMD f...">`:
   \   000000   41465F44     DB "AF_DATA_CONFIRM_CMD failed\012"
   \            4154415F
   \            434F4E46
   \            49524D5F
   \            434D4420
   \            6661696C
   \            65640A00

   \                                 In  segment XDATA_ROM_C, align 1
   \                     `?<Constant "SampleApp_NwkState = %d\\n">`:
   \   000000   53616D70     DB "SampleApp_NwkState = %d\012"
   \            6C654170
   \            705F4E77
   \            6B537461
   \            7465203D
   \            2025640A
   \            00      

   \                                 In  segment XDATA_ROM_C, align 1
   \                     `?<Constant "COORD device started\\n">`:
   \   000000   434F4F52     DB "COORD device started\012"
   \            44206465
   \            76696365
   \            20737461
   \            72746564
   \            0A00    

   \                                 In  segment XDATA_ROM_C, align 1
   \                     `?<Constant "ROUTER device started\\n">`:
   \   000000   524F5554     DB "ROUTER device started\012"
   \            45522064
   \            65766963
   \            65207374
   \            61727465
   \            640A00  

   \                                 In  segment XDATA_ROM_C, align 1
   \                     `?<Constant "END device started\\n">`:
   \   000000   454E4420     DB "END device started\012"
   \            64657669
   \            63652073
   \            74617274
   \            65640A00

   \                                 In  segment XDATA_ROM_C, align 1
   \                     `?<Constant "unknown pkg-event = 0...">`:
   \   000000   756E6B6E     DB "unknown pkg-event = 0x%x\012"
   \            6F776E20
   \            706B672D
   \            6576656E
   \            74203D20
   \            30782578
   \            0A00    

   \                                 In  segment XDATA_ROM_C, align 1
   \                     `?<Constant "Discard unknown event...">`:
   \   000000   44697363     DB "Discard unknown events = %d\012"
   \            61726420
   \            756E6B6E
   \            6F776E20
   \            6576656E
   \            7473203D
   \            2025640A
   \            00      

   \                                 In  segment XDATA_ROM_C, align 1
   \                     `?<Constant "Insert new EP in list\\n">`:
   \   000000   496E7365     DB "Insert new EP in list\012"
   \            7274206E
   \            65772045
   \            5020696E
   \            206C6973
   \            740A00  

   \                                 In  segment XDATA_ROM_C, align 1
   \                     `?<Constant {35, 49, 0, 64}>`:
   \   000000   23           DB 35
   \   000001   31           DB 49
   \   000002   00           DB 0
   \   000003   40           DB 64

   \                                 In  segment XDATA_ROM_C, align 1
   \                     `?<Constant "press key S2\\n">`:
   \   000000   70726573     DB "press key S2\012"
   \            73206B65
   \            79205332
   \            0A00    

   \                                 In  segment XDATA_ROM_C, align 1
   \                     `?<Constant {35, 70, 64}>`:
   \   000000   23           DB 35
   \   000001   46           DB 70
   \   000002   40           DB 64

   \                                 In  segment XDATA_ROM_C, align 1
   \                     `?<Constant {0}>`:
   \   000000   00           DB 0
   \   000001   00000000     DB 0, 0, 0, 0, 0, 0, 0, 0
   \            00000000
   \   000009   00000000     DB 0, 0, 0, 0

   \                                 In  segment XDATA_ROM_C, align 1
   \                     `?<Constant "EP AfSendAddrInfo() f...">`:
   \   000000   45502041     DB "EP AfSendAddrInfo() failed\012"
   \            6653656E
   \            64416464
   \            72496E66
   \            6F282920
   \            6661696C
   \            65640A00

   \                                 In  segment XDATA_ROM_C, align 1
   \                     `?<Constant {0}>_1`:
   \   000000   00           DB 0
   \   000001   00000000     DB 0, 0, 0, 0, 0, 0, 0, 0
   \            00000000
   \   000009   0000         DB 0, 0

   \                                 In  segment XDATA_ROM_C, align 1
   \                     `?<Constant "EP AfReplyGetCoinCmd(...">`:
   \   000000   45502041     DB "EP AfReplyGetCoinCmd() failed\012"
   \            66526570
   \            6C794765
   \            74436F69
   \            6E436D64
   \            28292066
   \            61696C65
   \            640A00  

   \                                 In  segment XDATA_ROM_C, align 1
   \                     `?<Constant "\\n">`:
   \   000000   0A00         DB "\012"

   \                                 In  segment XDATA_ROM_C, align 1
   \                     `?<Constant "; IEEE = ">`:
   \   000000   3B204945     DB "; IEEE = "
   \            4545203D
   \            2000    

   \                                 In  segment XDATA_ROM_C, align 1
   \                     `?<Constant "0x%x,">`:
   \   000000   30782578     DB "0x%x,"
   \            2C00    

   Maximum stack usage in bytes:

     Function                       ISTACK PSTACK XSTACK
     --------                       ------ ------ ------
     AfReplyGetCoinCmd                  2      0     31
       -> NLME_GetExtAddr               0      0     44
       -> osal_memcpy                   0      0     50
       -> AF_DataRequest                0      0     62
       -> myprintf                      0      0     44
     AfSendAddrInfo                     2      0     48
       -> NLME_GetShortAddr             0      0     48
       -> NLME_GetExtAddr               0      0     48
       -> osal_memcpy                   0      0     54
       -> AF_DataRequest                0      0     66
       -> myprintf                      0      0     48
     SampleApp_HandleKeys               0      0     24
       -> SampleApp_SendPeriodicMessage
                                        0      0     18
       -> SampleApp_SendPeriodicMessage
                                        0      0     18
     SampleApp_Init                     0      0     14
       -> afRegister                    0      0     22
       -> RegisterForKeys               0      0     22
       -> osal_memcpy                   0      0     28
       -> aps_AddGroup                  0      0     22
       -> MT_UartInit                   0      0     22
       -> MT_UartRegisterTaskID         0      0     22
       -> myprintf                      0      0     22
       -> InitList_L                    0      0     22
       -> myprintf                      0      0     22
     SampleApp_MessageMSGCB             0      0     29
       -> checkEPInList                 0      0     20
       -> ListLength_L                  0      0     20
       -> ListInsert_L                  0      0     28
       -> myprintf                      0      0     20
       -> updateListEleStatus           0      0     24
       -> mySendByteBuf                 0      0     20
       -> printAddrInfoHex              0      0     20
       -> mySendByteBuf                 0      0     20
     SampleApp_ProcessEvent             2      0     17
       -> osal_msg_receive              0      0     30
       -> myprintf                      0      0     34
       -> osal_msg_deallocate           0      0     30
       -> osal_msg_receive              0      0     30
       -> myprintf                      0      0     30
       -> SampleApp_HandleKeys          0      0     30
       -> SampleApp_MessageMSGCB        0      0     30
       -> myprintf                      0      0     34
       -> myprintf                      0      0     30
       -> mySendByteBuf                 0      0     30
       -> osal_start_timerEx            0      0     30
       -> myprintf                      0      0     30
       -> myprintf                      0      0     30
       -> AfSendAddrInfo                0      0     30
       -> HalLedBlink                   0      0     30
       -> osal_start_timerEx            0      0     30
       -> SampleApp_SendHeartBeatMessageCoor
                                        0      0     30
       -> osal_start_timerEx            0      0     30
       -> myprintf                      0      0     34
     SampleApp_SendHeartBeatMessageCoor
                                        4      0     18
       -> decAllListEPLeftSec           4      0      6
       -> mySendByteBuf                 4      0      6
       -> HalLedBlink                   4      0      6
       -> SampleApp_SendPeriodicMessage
                                        4      0      6
     SampleApp_SendHeartBeatMessageEnd
                                        2      0      0
       -> AfSendAddrInfo                4      0      0
       -> HalLedBlink                   4      0      0
     SampleApp_SendPeriodicMessage      2      0     32
       -> AF_DataRequest                0      0     46
       -> HalLedBlink                   0      0     28
       -> myprintf                      0      0     28
     convertHexToStr                    1      0     18
       -> HalLcdWriteString             0      0     36
     printAddrInfoHex                   0      0     25
       -> myprintf                      0      0     26
       -> myprintf                      0      0     26
       -> myprintf                      0      0     30
       -> myprintf                      0      0     26


   Segment part sizes:

     Function/Label                             Bytes
     --------------                             -----
     _A_P0                                         1
     P0SEL                                         1
     P0DIR                                         1
     SampleApp_ClusterList                         8
     SampleApp_SimpleDesc                         12
     SampleApp_epDesc                              6
     GenericApp_DstAddr                           12
     EndPoint_DstAddr                             12
     SampleApp_TaskID                              1
     SampleApp_NwkState                            1
     SampleApp_TransID                             1
     SampleApp_Periodic_DstAddr                   12
     SampleApp_TxAddr                             12
     SampleApp_Group                              18
     SampleAppPeriodicCounter                      1
     SampleAppFlashCounter                         1
     LL                                            2
     SampleApp_Init                              229
     ??Subroutine16_0                              5
     SampleApp_ProcessEvent                      321
     ?Subroutine5                                 17
     ?Subroutine8                                 19
     ?Subroutine11                                 6
     ?Subroutine7                                  9
     SampleApp_HandleKeys                         28
     recvTestMsgCount                              2
     SampleApp_MessageMSGCB                      327
     ?Subroutine1                                  5
     ?Subroutine9                                  4
     ?Subroutine12                                11
     ?Subroutine3                                 20
     ?Subroutine6                                  2
     ??Subroutine13_0                              1
     ??Subroutine14_0                              3
     ??Subroutine15_0                              6
     SampleApp_SendPeriodicMessage               148
     totalSendTestCount                            2
     SampleApp_SendHeartBeatMessageCoor
                                                  96
     ?Subroutine2                                  7
     SampleApp_SendHeartBeatMessageEnd
                                                   9
     AfSendAddrInfo                              187
     ?Subroutine4                                 14
     ?Subroutine0                                  3
     AfReplyGetCoinCmd                           169
     printAddrInfoHex                            112
     convertHexToStr                             137
     ?Subroutine10                                19
     ??SampleApp_Init?relay                        6
     ??SampleApp_ProcessEvent?relay                6
     ??SampleApp_HandleKeys?relay                  6
     ??SampleApp_MessageMSGCB?relay                6
     ??SampleApp_SendPeriodicMessage?relay         6
     ??SampleApp_SendHeartBeatMessageCoor?relay    6
     ??SampleApp_SendHeartBeatMessageEnd?relay     6
     ??AfSendAddrInfo?relay                        6
     ??AfReplyGetCoinCmd?relay                     6
     ??printAddrInfoHex?relay                      6
     ??convertHexToStr?relay                       6
     ?<Constant "Group 1">                         8
     ?<Constant "UartInit OK\n">                  13
     ?<Constant "InitList_L OVERFLOW\n">          21
     ?<Constant {35, 69, 64}>                      3
     ?<Constant "AF_DATA_CONFIRM_CMD f...">       28
     ?<Constant "SampleApp_NwkState = %d\n">      25
     ?<Constant "COORD device started\n">         22
     ?<Constant "ROUTER device started\n">        23
     ?<Constant "END device started\n">           20
     ?<Constant "unknown pkg-event = 0...">       26
     ?<Constant "Discard unknown event...">       29
     ?<Constant "Insert new EP in list\n">        23
     ?<Constant {35, 49, 0, 64}>                   4
     ?<Constant "press key S2\n">                 14
     ?<Constant {35, 70, 64}>                      3
     ?<Constant {0}>                              13
     ?<Constant "EP AfSendAddrInfo() f...">       28
     ?<Constant {0}>_1                            11
     ?<Constant "EP AfReplyGetCoinCmd(...">       31
     ?<Constant "\n">                              2
     ?<Constant "; IEEE = ">                      10
     ?<Constant "0x%x,">                           6

 
 1 914 bytes in segment BANKED_CODE
    66 bytes in segment BANK_RELAYS
     3 bytes in segment SFR_AN
   383 bytes in segment XDATA_ROM_C
    83 bytes in segment XDATA_Z
 
 1 980 bytes of CODE  memory
   383 bytes of CONST memory
     0 bytes of DATA  memory (+ 3 bytes shared)
    83 bytes of XDATA memory

Errors: none
Warnings: none
