///////////////////////////////////////////////////////////////////////////////
//                                                                            /
// IAR C/C++ Compiler V8.10.3.10338/W32 for 8051        14/Jun/2019  22:17:39 /
// Copyright 2004-2011 IAR Systems AB.                                        /
//                                                                            /
//    Core               =  plain                                             /
//    Code model         =  banked                                            /
//    Data model         =  large                                             /
//    Calling convention =  xdata reentrant                                   /
//    Constant location  =  data_rom                                          /
//    Dptr setup         =  1,16                                              /
//    Source file        =  E:\Github_Repository\zigbee-net-tech\ZStack-2.5.1 /
//                          a\Projects\zstack\Samples\SampleApp\Source\Sample /
//                          App.c                                             /
//    Command line       =  -f E:\Github_Repository\zigbee-net-tech\ZStack-2. /
//                          5.1a\Projects\zstack\Samples\SampleApp\CC2530DB\. /
//                          .\..\..\Tools\CC2530DB\f8wCoord.cfg (-DCPU32MHZ   /
//                          -DROOT=__near_func -DMAC_CFG_APP_PENDING_QUEUE=TR /
//                          UE -DMAC_CFG_TX_DATA_MAX=5 -DMAC_CFG_TX_MAX=8     /
//                          -DMAC_CFG_RX_MAX=5 -DZDO_COORDINATOR -DRTR_NWK)   /
//                          -f E:\Github_Repository\zigbee-net-tech\ZStack-2. /
//                          5.1a\Projects\zstack\Samples\SampleApp\CC2530DB\. /
//                          .\..\..\Tools\CC2530DB\f8wConfig.cfg              /
//                          (-DZIGBEEPRO -DSECURE=0 -DZG_SECURE_DYNAMIC=0     /
//                          -DREFLECTOR -DDEFAULT_CHANLIST=0x00000800         /
//                          -DZDAPP_CONFIG_PAN_ID=0xFFF1                      /
//                          -DNWK_START_DELAY=100 -DEXTENDED_JOINING_RANDOM_M /
//                          ASK=0x007F -DBEACON_REQUEST_DELAY=100             /
//                          -DBEACON_REQ_DELAY_MASK=0x00FF                    /
//                          -DLINK_STATUS_JITTER_MASK=0x007F                  /
//                          -DROUTE_EXPIRY_TIME=30 -DAPSC_ACK_WAIT_DURATION_P /
//                          OLLED=3000 -DNWK_INDIRECT_MSG_TIMEOUT=7           /
//                          -DMAX_RREQ_ENTRIES=8 -DAPSC_MAX_FRAME_RETRIES=3   /
//                          -DNWK_MAX_DATA_RETRIES=2                          /
//                          -DMAX_POLL_FAILURE_RETRIES=2 -DMAX_BCAST=9        /
//                          -DAPS_MAX_GROUPS=16 -DMAX_RTG_ENTRIES=40          /
//                          -DNWK_MAX_BINDING_ENTRIES=4                       /
//                          -DMAX_BINDING_CLUSTER_IDS=4                       /
//                          "-DDEFAULT_KEY={0x01, 0x03, 0x05, 0x07, 0x09,     /
//                          0x0B, 0x0D, 0x0F, 0x00, 0x02, 0x04, 0x06, 0x08,   /
//                          0x0A, 0x0C, 0x0D}" -DMAC_MAX_FRAME_SIZE=116       /
//                          -DZDNWKMGR_MIN_TRANSMISSIONS=20 "-DCONST=const    /
//                          __code" -DGENERIC=__generic                       /
//                          -DRFD_RCVC_ALWAYS_ON=FALSE -DPOLL_RATE=1000       /
//                          -DQUEUED_POLL_RATE=100 -DRESPONSE_POLL_RATE=100)  /
//                          -DREJOIN_POLL_RATE=440 E:\Github_Repository\zigbe /
//                          e-net-tech\ZStack-2.5.1a\Projects\zstack\Samples\ /
//                          SampleApp\Source\SampleApp.c -D NWK_AUTO_POLL -D  /
//                          ZIGBEEPRO -D ZTOOL_P1 -D xMT_TASK -D              /
//                          xMT_SYS_FUNC -D xMT_ZDO_FUNC -lC                  /
//                          E:\Github_Repository\zigbee-net-tech\ZStack-2.5.1 /
//                          a\Projects\zstack\Samples\SampleApp\CC2530DB\Coor /
//                          dinatorEB\List\ -lA E:\Github_Repository\zigbee-n /
//                          et-tech\ZStack-2.5.1a\Projects\zstack\Samples\Sam /
//                          pleApp\CC2530DB\CoordinatorEB\List\               /
//                          --diag_suppress Pe001,Pa010 -o                    /
//                          E:\Github_Repository\zigbee-net-tech\ZStack-2.5.1 /
//                          a\Projects\zstack\Samples\SampleApp\CC2530DB\Coor /
//                          dinatorEB\Obj\ -e --no_code_motion --debug        /
//                          --core=plain --dptr=16,1 --data_model=large       /
//                          --code_model=banked --calling_convention=xdata_re /
//                          entrant --place_constants=data_rom                /
//                          --nr_virtual_regs 16 -I                           /
//                          E:\Github_Repository\zigbee-net-tech\ZStack-2.5.1 /
//                          a\Projects\zstack\Samples\SampleApp\CC2530DB\ -I  /
//                          E:\Github_Repository\zigbee-net-tech\ZStack-2.5.1 /
//                          a\Projects\zstack\Samples\SampleApp\CC2530DB\..\S /
//                          ource\ -I E:\Github_Repository\zigbee-net-tech\ZS /
//                          tack-2.5.1a\Projects\zstack\Samples\SampleApp\CC2 /
//                          530DB\..\..\..\ZMain\TI2530DB\ -I                 /
//                          E:\Github_Repository\zigbee-net-tech\ZStack-2.5.1 /
//                          a\Projects\zstack\Samples\SampleApp\CC2530DB\..\. /
//                          .\..\..\..\Components\hal\include\ -I             /
//                          E:\Github_Repository\zigbee-net-tech\ZStack-2.5.1 /
//                          a\Projects\zstack\Samples\SampleApp\CC2530DB\..\. /
//                          .\..\..\..\Components\hal\target\CC2530EB\ -I     /
//                          E:\Github_Repository\zigbee-net-tech\ZStack-2.5.1 /
//                          a\Projects\zstack\Samples\SampleApp\CC2530DB\..\. /
//                          .\..\..\..\Components\mac\include\ -I             /
//                          E:\Github_Repository\zigbee-net-tech\ZStack-2.5.1 /
//                          a\Projects\zstack\Samples\SampleApp\CC2530DB\..\. /
//                          .\..\..\..\Components\mac\high_level\ -I          /
//                          E:\Github_Repository\zigbee-net-tech\ZStack-2.5.1 /
//                          a\Projects\zstack\Samples\SampleApp\CC2530DB\..\. /
//                          .\..\..\..\Components\mac\low_level\srf04\ -I     /
//                          E:\Github_Repository\zigbee-net-tech\ZStack-2.5.1 /
//                          a\Projects\zstack\Samples\SampleApp\CC2530DB\..\. /
//                          .\..\..\..\Components\mac\low_level\srf04\single_ /
//                          chip\ -I E:\Github_Repository\zigbee-net-tech\ZSt /
//                          ack-2.5.1a\Projects\zstack\Samples\SampleApp\CC25 /
//                          30DB\..\..\..\..\..\Components\mt\ -I             /
//                          E:\Github_Repository\zigbee-net-tech\ZStack-2.5.1 /
//                          a\Projects\zstack\Samples\SampleApp\CC2530DB\..\. /
//                          .\..\..\..\Components\osal\include\ -I            /
//                          E:\Github_Repository\zigbee-net-tech\ZStack-2.5.1 /
//                          a\Projects\zstack\Samples\SampleApp\CC2530DB\..\. /
//                          .\..\..\..\Components\services\saddr\ -I          /
//                          E:\Github_Repository\zigbee-net-tech\ZStack-2.5.1 /
//                          a\Projects\zstack\Samples\SampleApp\CC2530DB\..\. /
//                          .\..\..\..\Components\services\sdata\ -I          /
//                          E:\Github_Repository\zigbee-net-tech\ZStack-2.5.1 /
//                          a\Projects\zstack\Samples\SampleApp\CC2530DB\..\. /
//                          .\..\..\..\Components\stack\af\ -I                /
//                          E:\Github_Repository\zigbee-net-tech\ZStack-2.5.1 /
//                          a\Projects\zstack\Samples\SampleApp\CC2530DB\..\. /
//                          .\..\..\..\Components\stack\nwk\ -I               /
//                          E:\Github_Repository\zigbee-net-tech\ZStack-2.5.1 /
//                          a\Projects\zstack\Samples\SampleApp\CC2530DB\..\. /
//                          .\..\..\..\Components\stack\sapi\ -I              /
//                          E:\Github_Repository\zigbee-net-tech\ZStack-2.5.1 /
//                          a\Projects\zstack\Samples\SampleApp\CC2530DB\..\. /
//                          .\..\..\..\Components\stack\sec\ -I               /
//                          E:\Github_Repository\zigbee-net-tech\ZStack-2.5.1 /
//                          a\Projects\zstack\Samples\SampleApp\CC2530DB\..\. /
//                          .\..\..\..\Components\stack\sys\ -I               /
//                          E:\Github_Repository\zigbee-net-tech\ZStack-2.5.1 /
//                          a\Projects\zstack\Samples\SampleApp\CC2530DB\..\. /
//                          .\..\..\..\Components\stack\zdo\ -I               /
//                          E:\Github_Repository\zigbee-net-tech\ZStack-2.5.1 /
//                          a\Projects\zstack\Samples\SampleApp\CC2530DB\..\. /
//                          .\..\..\..\Components\zmac\ -I                    /
//                          E:\Github_Repository\zigbee-net-tech\ZStack-2.5.1 /
//                          a\Projects\zstack\Samples\SampleApp\CC2530DB\..\. /
//                          .\..\..\..\Components\zmac\f8w\ -Ohz              /
//                          --require_prototypes                              /
//    List file          =  E:\Github_Repository\zigbee-net-tech\ZStack-2.5.1 /
//                          a\Projects\zstack\Samples\SampleApp\CC2530DB\Coor /
//                          dinatorEB\List\SampleApp.s51                      /
//                                                                            /
//                                                                            /
///////////////////////////////////////////////////////////////////////////////

        NAME SampleApp

        RTMODEL "__SystemLibrary", "CLib"
        RTMODEL "__calling_convention", "xdata_reentrant"
        RTMODEL "__code_model", "banked"
        RTMODEL "__core", "plain"
        RTMODEL "__data_model", "large"
        RTMODEL "__dptr_size", "16"
        RTMODEL "__extended_stack", "disabled"
        RTMODEL "__location_for_constants", "data"
        RTMODEL "__number_of_dptrs", "1"
        RTMODEL "__rt_version", "1"

        RSEG DOVERLAY:DATA:NOROOT(0)
        RSEG IOVERLAY:IDATA:NOROOT(0)
        RSEG ISTACK:IDATA:NOROOT(0)
        RSEG PSTACK:XDATA:NOROOT(0)
        RSEG XSTACK:XDATA:NOROOT(0)

        EXTERN ?ALLOC_XSTACK8
        EXTERN ?BANKED_ENTER_XDATA
        EXTERN ?BANKED_LEAVE_XDATA
        EXTERN ?BDISPATCH
        EXTERN ?BRET
        EXTERN ?DEALLOC_XSTACK8
        EXTERN ?MOVE_LONG8_XDATA_XDATA
        EXTERN ?PUSH_XSTACK_I_ONE
        EXTERN ?PUSH_XSTACK_I_THREE
        EXTERN ?PUSH_XSTACK_I_TWO
        EXTERN ?V0
        EXTERN ?XSP
        EXTERN ?XSTACK_DISP0_8
        EXTERN __INIT_XDATA_Z

        PUBLIC ??AfReplyGetCoinCmd?relay
        FUNCTION ??AfReplyGetCoinCmd?relay,0203H
        PUBLIC ??AfSendAddrInfo?relay
        FUNCTION ??AfSendAddrInfo?relay,0203H
        PUBLIC ??SampleApp_HandleKeys?relay
        FUNCTION ??SampleApp_HandleKeys?relay,0203H
        PUBLIC ??SampleApp_Init?relay
        FUNCTION ??SampleApp_Init?relay,0203H
        PUBLIC ??SampleApp_MessageMSGCB?relay
        FUNCTION ??SampleApp_MessageMSGCB?relay,0203H
        PUBLIC ??SampleApp_ProcessEvent?relay
        FUNCTION ??SampleApp_ProcessEvent?relay,0203H
        PUBLIC ??SampleApp_SendHeartBeatMessageCoor?relay
        FUNCTION ??SampleApp_SendHeartBeatMessageCoor?relay,0203H
        PUBLIC ??SampleApp_SendHeartBeatMessageEnd?relay
        FUNCTION ??SampleApp_SendHeartBeatMessageEnd?relay,0203H
        PUBLIC ??SampleApp_SendPeriodicMessage?relay
        FUNCTION ??SampleApp_SendPeriodicMessage?relay,0203H
        PUBLIC ??convertHexToStr?relay
        FUNCTION ??convertHexToStr?relay,0203H
        PUBLIC ??printAddrInfoHex?relay
        FUNCTION ??printAddrInfoHex?relay,0203H
        PUBLIC AfReplyGetCoinCmd
        FUNCTION AfReplyGetCoinCmd,021203H
        ARGFRAME XSTACK, 0, STACK
        LOCFRAME ISTACK, 2, STACK
        LOCFRAME XSTACK, 31, STACK
        PUBLIC AfSendAddrInfo
        FUNCTION AfSendAddrInfo,021203H
        ARGFRAME XSTACK, 15, STACK
        ARGFRAME IOVERLAY, 0, STATIC
        ARGFRAME DOVERLAY, 0, STATIC
        LOCFRAME ISTACK, 2, STACK
        LOCFRAME XSTACK, 33, STACK
        PUBLIC EndPoint_DstAddr
        PUBLIC GenericApp_DstAddr
        PUBLIC LL
        PUBWEAK P0DIR
        PUBWEAK P0SEL
        PUBLIC SampleAppFlashCounter
        PUBLIC SampleAppPeriodicCounter
        PUBLIC SampleApp_ClusterList
        PUBLIC SampleApp_Group
        PUBLIC SampleApp_HandleKeys
        FUNCTION SampleApp_HandleKeys,021203H
        ARGFRAME XSTACK, 15, STACK
        ARGFRAME IOVERLAY, 0, STATIC
        ARGFRAME DOVERLAY, 0, STATIC
        LOCFRAME XSTACK, 9, STACK
        PUBLIC SampleApp_Init
        FUNCTION SampleApp_Init,021203H
        ARGFRAME XSTACK, 0, STACK
        LOCFRAME XSTACK, 14, STACK
        PUBLIC SampleApp_MessageMSGCB
        FUNCTION SampleApp_MessageMSGCB,021203H
        ARGFRAME XSTACK, 15, STACK
        ARGFRAME IOVERLAY, 0, STATIC
        ARGFRAME DOVERLAY, 0, STATIC
        LOCFRAME XSTACK, 14, STACK
        PUBLIC SampleApp_NwkState
        PUBLIC SampleApp_Periodic_DstAddr
        PUBLIC SampleApp_ProcessEvent
        FUNCTION SampleApp_ProcessEvent,021203H
        ARGFRAME XSTACK, 0, STACK
        LOCFRAME ISTACK, 2, STACK
        LOCFRAME XSTACK, 17, STACK
        PUBLIC SampleApp_SendHeartBeatMessageCoor
        FUNCTION SampleApp_SendHeartBeatMessageCoor,021203H
        ARGFRAME XSTACK, 15, STACK
        ARGFRAME IOVERLAY, 0, STATIC
        ARGFRAME DOVERLAY, 0, STATIC
        LOCFRAME ISTACK, 4, STACK
        LOCFRAME XSTACK, 3, STACK
        PUBLIC SampleApp_SendHeartBeatMessageEnd
        FUNCTION SampleApp_SendHeartBeatMessageEnd,021203H
        ARGFRAME XSTACK, 0, STACK
        LOCFRAME ISTACK, 2, STACK
        PUBLIC SampleApp_SendPeriodicMessage
        FUNCTION SampleApp_SendPeriodicMessage,021203H
        ARGFRAME XSTACK, 9, STACK
        ARGFRAME IOVERLAY, 0, STATIC
        ARGFRAME DOVERLAY, 0, STATIC
        LOCFRAME ISTACK, 2, STACK
        LOCFRAME XSTACK, 23, STACK
        PUBLIC SampleApp_SimpleDesc
        PUBLIC SampleApp_TaskID
        PUBLIC SampleApp_TransID
        PUBLIC SampleApp_TxAddr
        PUBLIC SampleApp_epDesc
        PUBWEAK _A_P0
        PUBLIC convertHexToStr
        FUNCTION convertHexToStr,021203H
        ARGFRAME XSTACK, 0, STACK
        LOCFRAME ISTACK, 1, STACK
        LOCFRAME XSTACK, 18, STACK
        PUBLIC printAddrInfoHex
        FUNCTION printAddrInfoHex,021203H
        ARGFRAME XSTACK, 10, STACK
        ARGFRAME IOVERLAY, 0, STATIC
        ARGFRAME DOVERLAY, 0, STATIC
        LOCFRAME XSTACK, 15, STACK
        
        CFI Names cfiNames0
        CFI StackFrame CFA_SP SP IDATA
        CFI StackFrame CFA_PSP16 PSP16 XDATA
        CFI StackFrame CFA_XSP16 XSP16 XDATA
        CFI StaticOverlayFrame CFA_IOVERLAY IOVERLAY
        CFI StaticOverlayFrame CFA_DOVERLAY DOVERLAY
        CFI Resource `PSW.CY`:1, `B.BR0`:1, `B.BR1`:1, `B.BR2`:1, `B.BR3`:1
        CFI Resource `B.BR4`:1, `B.BR5`:1, `B.BR6`:1, `B.BR7`:1, `VB.BR8`:1
        CFI Resource `VB.BR9`:1, `VB.BR10`:1, `VB.BR11`:1, `VB.BR12`:1
        CFI Resource `VB.BR13`:1, `VB.BR14`:1, `VB.BR15`:1, VB:8, B:8, A:8
        CFI Resource PSW:8, DPL0:8, DPH0:8, R0:8, R1:8, R2:8, R3:8, R4:8, R5:8
        CFI Resource R6:8, R7:8, V0:8, V1:8, V2:8, V3:8, V4:8, V5:8, V6:8, V7:8
        CFI Resource V8:8, V9:8, V10:8, V11:8, V12:8, V13:8, V14:8, V15:8, SP:8
        CFI Resource PSPH:8, PSPL:8, PSP16:16, XSPH:8, XSPL:8, XSP16:16
        CFI VirtualResource ?RET:24
        CFI Resource ?BRET_EXT:8
        CFI VirtualResource ?RET_HIGH:8, ?RET_LOW:8
        CFI ResourceParts PSP16 PSPH, PSPL
        CFI ResourceParts XSP16 XSPH, XSPL
        CFI ResourceParts ?RET ?BRET_EXT, ?RET_HIGH, ?RET_LOW
        CFI EndNames cfiNames0
        
        CFI Common cfiCommon0 Using cfiNames0
        CFI CodeAlign 1
        CFI DataAlign -1
        CFI ReturnAddress ?RET CODE
        CFI CFA_DOVERLAY Used
        CFI CFA_IOVERLAY Used
        CFI CFA_SP SP+-3
        CFI CFA_PSP16 PSP16+0
        CFI CFA_XSP16 XSP16+0
        CFI `PSW.CY` SameValue
        CFI `B.BR0` SameValue
        CFI `B.BR1` SameValue
        CFI `B.BR2` SameValue
        CFI `B.BR3` SameValue
        CFI `B.BR4` SameValue
        CFI `B.BR5` SameValue
        CFI `B.BR6` SameValue
        CFI `B.BR7` SameValue
        CFI `VB.BR8` SameValue
        CFI `VB.BR9` SameValue
        CFI `VB.BR10` SameValue
        CFI `VB.BR11` SameValue
        CFI `VB.BR12` SameValue
        CFI `VB.BR13` SameValue
        CFI `VB.BR14` SameValue
        CFI `VB.BR15` SameValue
        CFI VB SameValue
        CFI B Undefined
        CFI A Undefined
        CFI PSW SameValue
        CFI DPL0 SameValue
        CFI DPH0 SameValue
        CFI R0 Undefined
        CFI R1 Undefined
        CFI R2 Undefined
        CFI R3 Undefined
        CFI R4 Undefined
        CFI R5 Undefined
        CFI R6 SameValue
        CFI R7 SameValue
        CFI V0 SameValue
        CFI V1 SameValue
        CFI V2 SameValue
        CFI V3 SameValue
        CFI V4 SameValue
        CFI V5 SameValue
        CFI V6 SameValue
        CFI V7 SameValue
        CFI V8 SameValue
        CFI V9 SameValue
        CFI V10 SameValue
        CFI V11 SameValue
        CFI V12 SameValue
        CFI V13 SameValue
        CFI V14 SameValue
        CFI V15 SameValue
        CFI PSPH Undefined
        CFI PSPL Undefined
        CFI XSPH Undefined
        CFI XSPL Undefined
        CFI ?RET Concat
        CFI ?BRET_EXT Frame(CFA_SP, 3)
        CFI ?RET_HIGH Frame(CFA_SP, 2)
        CFI ?RET_LOW Frame(CFA_SP, 1)
        CFI EndCommon cfiCommon0
        
        
        CFI Common cfiCommon1 Using cfiNames0
        CFI CodeAlign 1
        CFI DataAlign -1
        CFI ReturnAddress ?RET CODE
        CFI CFA_DOVERLAY Used
        CFI CFA_IOVERLAY Used
        CFI CFA_SP SP+-2
        CFI CFA_PSP16 PSP16+0
        CFI CFA_XSP16 XSP16+0
        CFI `PSW.CY` SameValue
        CFI `B.BR0` SameValue
        CFI `B.BR1` SameValue
        CFI `B.BR2` SameValue
        CFI `B.BR3` SameValue
        CFI `B.BR4` SameValue
        CFI `B.BR5` SameValue
        CFI `B.BR6` SameValue
        CFI `B.BR7` SameValue
        CFI `VB.BR8` SameValue
        CFI `VB.BR9` SameValue
        CFI `VB.BR10` SameValue
        CFI `VB.BR11` SameValue
        CFI `VB.BR12` SameValue
        CFI `VB.BR13` SameValue
        CFI `VB.BR14` SameValue
        CFI `VB.BR15` SameValue
        CFI VB SameValue
        CFI B SameValue
        CFI A SameValue
        CFI PSW SameValue
        CFI DPL0 SameValue
        CFI DPH0 SameValue
        CFI R0 SameValue
        CFI R1 SameValue
        CFI R2 SameValue
        CFI R3 SameValue
        CFI R4 SameValue
        CFI R5 SameValue
        CFI R6 SameValue
        CFI R7 SameValue
        CFI V0 SameValue
        CFI V1 SameValue
        CFI V2 SameValue
        CFI V3 SameValue
        CFI V4 SameValue
        CFI V5 SameValue
        CFI V6 SameValue
        CFI V7 SameValue
        CFI V8 SameValue
        CFI V9 SameValue
        CFI V10 SameValue
        CFI V11 SameValue
        CFI V12 SameValue
        CFI V13 SameValue
        CFI V14 SameValue
        CFI V15 SameValue
        CFI PSPH Undefined
        CFI PSPL Undefined
        CFI XSPH Undefined
        CFI XSPL Undefined
        CFI ?RET Concat
        CFI ?BRET_EXT SameValue
        CFI ?RET_HIGH Frame(CFA_SP, 2)
        CFI ?RET_LOW Frame(CFA_SP, 1)
        CFI EndCommon cfiCommon1
        
afRegister          SYMBOL "afRegister"
RegisterForKeys     SYMBOL "RegisterForKeys"
osal_memcpy         SYMBOL "osal_memcpy"
aps_AddGroup        SYMBOL "aps_AddGroup"
MT_UartInit         SYMBOL "MT_UartInit"
MT_UartRegisterTaskID SYMBOL "MT_UartRegisterTaskID"
myprintf            SYMBOL "myprintf"
InitList_L          SYMBOL "InitList_L"
osal_msg_receive    SYMBOL "osal_msg_receive"
osal_msg_deallocate SYMBOL "osal_msg_deallocate"
mySendByteBuf       SYMBOL "mySendByteBuf"
osal_start_timerEx  SYMBOL "osal_start_timerEx"
HalLedBlink         SYMBOL "HalLedBlink"
checkEPInList       SYMBOL "checkEPInList"
ListLength_L        SYMBOL "ListLength_L"
ListInsert_L        SYMBOL "ListInsert_L"
updateListEleStatus SYMBOL "updateListEleStatus"
AF_DataRequest      SYMBOL "AF_DataRequest"
decAllListEPLeftSec SYMBOL "decAllListEPLeftSec"
NLME_GetShortAddr   SYMBOL "NLME_GetShortAddr"
NLME_GetExtAddr     SYMBOL "NLME_GetExtAddr"
HalLcdWriteString   SYMBOL "HalLcdWriteString"
??AF_DataRequest?relay SYMBOL "?relay", AF_DataRequest
??HalLcdWriteString?relay SYMBOL "?relay", HalLcdWriteString
??HalLedBlink?relay SYMBOL "?relay", HalLedBlink
??InitList_L?relay  SYMBOL "?relay", InitList_L
??ListInsert_L?relay SYMBOL "?relay", ListInsert_L
??ListLength_L?relay SYMBOL "?relay", ListLength_L
??MT_UartInit?relay SYMBOL "?relay", MT_UartInit
??MT_UartRegisterTaskID?relay SYMBOL "?relay", MT_UartRegisterTaskID
??NLME_GetExtAddr?relay SYMBOL "?relay", NLME_GetExtAddr
??NLME_GetShortAddr?relay SYMBOL "?relay", NLME_GetShortAddr
??RegisterForKeys?relay SYMBOL "?relay", RegisterForKeys
??afRegister?relay  SYMBOL "?relay", afRegister
??aps_AddGroup?relay SYMBOL "?relay", aps_AddGroup
??checkEPInList?relay SYMBOL "?relay", checkEPInList
??decAllListEPLeftSec?relay SYMBOL "?relay", decAllListEPLeftSec
??mySendByteBuf?relay SYMBOL "?relay", mySendByteBuf
??myprintf?relay    SYMBOL "?relay", myprintf
??osal_memcpy?relay SYMBOL "?relay", osal_memcpy
??osal_msg_deallocate?relay SYMBOL "?relay", osal_msg_deallocate
??osal_msg_receive?relay SYMBOL "?relay", osal_msg_receive
??osal_start_timerEx?relay SYMBOL "?relay", osal_start_timerEx
??updateListEleStatus?relay SYMBOL "?relay", updateListEleStatus
AfReplyGetCoinCmd   SYMBOL "AfReplyGetCoinCmd"
??AfReplyGetCoinCmd?relay SYMBOL "?relay", AfReplyGetCoinCmd
AfSendAddrInfo      SYMBOL "AfSendAddrInfo"
??AfSendAddrInfo?relay SYMBOL "?relay", AfSendAddrInfo
SampleApp_HandleKeys SYMBOL "SampleApp_HandleKeys"
??SampleApp_HandleKeys?relay SYMBOL "?relay", SampleApp_HandleKeys
SampleApp_Init      SYMBOL "SampleApp_Init"
??SampleApp_Init?relay SYMBOL "?relay", SampleApp_Init
SampleApp_MessageMSGCB SYMBOL "SampleApp_MessageMSGCB"
??SampleApp_MessageMSGCB?relay SYMBOL "?relay", SampleApp_MessageMSGCB
SampleApp_ProcessEvent SYMBOL "SampleApp_ProcessEvent"
??SampleApp_ProcessEvent?relay SYMBOL "?relay", SampleApp_ProcessEvent
SampleApp_SendHeartBeatMessageCoor SYMBOL "SampleApp_SendHeartBeatMessageCoor"
??SampleApp_SendHeartBeatMessageCoor?relay SYMBOL "?relay", SampleApp_SendHeartBeatMessageCoor
SampleApp_SendHeartBeatMessageEnd SYMBOL "SampleApp_SendHeartBeatMessageEnd"
??SampleApp_SendHeartBeatMessageEnd?relay SYMBOL "?relay", SampleApp_SendHeartBeatMessageEnd
SampleApp_SendPeriodicMessage SYMBOL "SampleApp_SendPeriodicMessage"
??SampleApp_SendPeriodicMessage?relay SYMBOL "?relay", SampleApp_SendPeriodicMessage
convertHexToStr     SYMBOL "convertHexToStr"
??convertHexToStr?relay SYMBOL "?relay", convertHexToStr
printAddrInfoHex    SYMBOL "printAddrInfoHex"
??printAddrInfoHex?relay SYMBOL "?relay", printAddrInfoHex

        EXTERN afRegister
        FUNCTION afRegister,0202H
        ARGFRAME ISTACK, 0, STACK
        ARGFRAME PSTACK, 0, STACK
        ARGFRAME XSTACK, 11, STACK
        ARGFRAME IOVERLAY, 0, STATIC
        ARGFRAME DOVERLAY, 0, STATIC
        EXTERN RegisterForKeys
        FUNCTION RegisterForKeys,0202H
        ARGFRAME ISTACK, 0, STACK
        ARGFRAME PSTACK, 0, STACK
        ARGFRAME XSTACK, 11, STACK
        ARGFRAME IOVERLAY, 0, STATIC
        ARGFRAME DOVERLAY, 0, STATIC
        EXTERN osal_memcpy
        FUNCTION osal_memcpy,0202H
        ARGFRAME ISTACK, 0, STACK
        ARGFRAME PSTACK, 0, STACK
        ARGFRAME XSTACK, 27, STACK
        ARGFRAME IOVERLAY, 0, STATIC
        ARGFRAME DOVERLAY, 0, STATIC
        EXTERN aps_AddGroup
        FUNCTION aps_AddGroup,0202H
        ARGFRAME ISTACK, 0, STACK
        ARGFRAME PSTACK, 0, STACK
        ARGFRAME XSTACK, 11, STACK
        ARGFRAME IOVERLAY, 0, STATIC
        ARGFRAME DOVERLAY, 0, STATIC
        EXTERN MT_UartInit
        FUNCTION MT_UartInit,0202H
        ARGFRAME ISTACK, 0, STACK
        ARGFRAME PSTACK, 0, STACK
        ARGFRAME XSTACK, 11, STACK
        ARGFRAME IOVERLAY, 0, STATIC
        ARGFRAME DOVERLAY, 0, STATIC
        EXTERN MT_UartRegisterTaskID
        FUNCTION MT_UartRegisterTaskID,0202H
        ARGFRAME ISTACK, 0, STACK
        ARGFRAME PSTACK, 0, STACK
        ARGFRAME XSTACK, 11, STACK
        ARGFRAME IOVERLAY, 0, STATIC
        ARGFRAME DOVERLAY, 0, STATIC
        EXTERN myprintf
        FUNCTION myprintf,0202H
        ARGFRAME ISTACK, 0, STACK
        ARGFRAME PSTACK, 0, STACK
        ARGFRAME XSTACK, 17, STACK
        ARGFRAME IOVERLAY, 0, STATIC
        ARGFRAME DOVERLAY, 0, STATIC
        EXTERN InitList_L
        FUNCTION InitList_L,0202H
        ARGFRAME ISTACK, 0, STACK
        ARGFRAME PSTACK, 0, STACK
        ARGFRAME XSTACK, 11, STACK
        ARGFRAME IOVERLAY, 0, STATIC
        ARGFRAME DOVERLAY, 0, STATIC
        EXTERN osal_msg_receive
        FUNCTION osal_msg_receive,0202H
        ARGFRAME ISTACK, 0, STACK
        ARGFRAME PSTACK, 0, STACK
        ARGFRAME XSTACK, 15, STACK
        ARGFRAME IOVERLAY, 0, STATIC
        ARGFRAME DOVERLAY, 0, STATIC
        EXTERN osal_msg_deallocate
        FUNCTION osal_msg_deallocate,0202H
        ARGFRAME ISTACK, 0, STACK
        ARGFRAME PSTACK, 0, STACK
        ARGFRAME XSTACK, 15, STACK
        ARGFRAME IOVERLAY, 0, STATIC
        ARGFRAME DOVERLAY, 0, STATIC
        EXTERN mySendByteBuf
        FUNCTION mySendByteBuf,0202H
        ARGFRAME ISTACK, 2, STACK
        ARGFRAME PSTACK, 0, STACK
        ARGFRAME XSTACK, 15, STACK
        ARGFRAME IOVERLAY, 0, STATIC
        ARGFRAME DOVERLAY, 0, STATIC
        EXTERN osal_start_timerEx
        FUNCTION osal_start_timerEx,0202H
        ARGFRAME ISTACK, 0, STACK
        ARGFRAME PSTACK, 0, STACK
        ARGFRAME XSTACK, 15, STACK
        ARGFRAME IOVERLAY, 0, STATIC
        ARGFRAME DOVERLAY, 0, STATIC
        EXTERN HalLedBlink
        FUNCTION HalLedBlink,0202H
        ARGFRAME ISTACK, 2, STACK
        ARGFRAME PSTACK, 0, STACK
        ARGFRAME XSTACK, 24, STACK
        ARGFRAME IOVERLAY, 0, STATIC
        ARGFRAME DOVERLAY, 0, STATIC
        EXTERN checkEPInList
        FUNCTION checkEPInList,0202H
        ARGFRAME ISTACK, 0, STACK
        ARGFRAME PSTACK, 0, STACK
        ARGFRAME XSTACK, 10, STACK
        ARGFRAME IOVERLAY, 0, STATIC
        ARGFRAME DOVERLAY, 0, STATIC
        EXTERN ListLength_L
        FUNCTION ListLength_L,0202H
        ARGFRAME ISTACK, 0, STACK
        ARGFRAME PSTACK, 0, STACK
        ARGFRAME XSTACK, 10, STACK
        ARGFRAME IOVERLAY, 0, STATIC
        ARGFRAME DOVERLAY, 0, STATIC
        EXTERN ListInsert_L
        FUNCTION ListInsert_L,0202H
        ARGFRAME ISTACK, 0, STACK
        ARGFRAME PSTACK, 0, STACK
        ARGFRAME XSTACK, 14, STACK
        ARGFRAME IOVERLAY, 0, STATIC
        ARGFRAME DOVERLAY, 0, STATIC
        EXTERN updateListEleStatus
        FUNCTION updateListEleStatus,0202H
        ARGFRAME ISTACK, 0, STACK
        ARGFRAME PSTACK, 0, STACK
        ARGFRAME XSTACK, 12, STACK
        ARGFRAME IOVERLAY, 0, STATIC
        ARGFRAME DOVERLAY, 0, STATIC
        EXTERN AF_DataRequest
        FUNCTION AF_DataRequest,0202H
        ARGFRAME ISTACK, 0, STACK
        ARGFRAME PSTACK, 0, STACK
        ARGFRAME XSTACK, 33, STACK
        ARGFRAME IOVERLAY, 0, STATIC
        ARGFRAME DOVERLAY, 0, STATIC
        EXTERN decAllListEPLeftSec
        FUNCTION decAllListEPLeftSec,0202H
        ARGFRAME ISTACK, 2, STACK
        ARGFRAME PSTACK, 0, STACK
        ARGFRAME XSTACK, 3, STACK
        ARGFRAME IOVERLAY, 0, STATIC
        ARGFRAME DOVERLAY, 0, STATIC
        EXTERN NLME_GetShortAddr
        FUNCTION NLME_GetShortAddr,0202H
        ARGFRAME ISTACK, 0, STACK
        ARGFRAME PSTACK, 0, STACK
        ARGFRAME XSTACK, 24, STACK
        ARGFRAME IOVERLAY, 0, STATIC
        ARGFRAME DOVERLAY, 0, STATIC
        EXTERN NLME_GetExtAddr
        FUNCTION NLME_GetExtAddr,0202H
        ARGFRAME ISTACK, 0, STACK
        ARGFRAME PSTACK, 0, STACK
        ARGFRAME XSTACK, 24, STACK
        ARGFRAME IOVERLAY, 0, STATIC
        ARGFRAME DOVERLAY, 0, STATIC
        EXTERN HalLcdWriteString
        FUNCTION HalLcdWriteString,0202H
        ARGFRAME ISTACK, 0, STACK
        ARGFRAME PSTACK, 0, STACK
        ARGFRAME XSTACK, 18, STACK
        ARGFRAME IOVERLAY, 0, STATIC
        ARGFRAME DOVERLAY, 0, STATIC
        EXTERN ??AF_DataRequest?relay
        FUNCTION ??AF_DataRequest?relay,00H
        EXTERN ??HalLcdWriteString?relay
        FUNCTION ??HalLcdWriteString?relay,00H
        EXTERN ??HalLedBlink?relay
        FUNCTION ??HalLedBlink?relay,00H
        EXTERN ??InitList_L?relay
        FUNCTION ??InitList_L?relay,00H
        EXTERN ??ListInsert_L?relay
        FUNCTION ??ListInsert_L?relay,00H
        EXTERN ??ListLength_L?relay
        FUNCTION ??ListLength_L?relay,00H
        EXTERN ??MT_UartInit?relay
        FUNCTION ??MT_UartInit?relay,00H
        EXTERN ??MT_UartRegisterTaskID?relay
        FUNCTION ??MT_UartRegisterTaskID?relay,00H
        EXTERN ??NLME_GetExtAddr?relay
        FUNCTION ??NLME_GetExtAddr?relay,00H
        EXTERN ??NLME_GetShortAddr?relay
        FUNCTION ??NLME_GetShortAddr?relay,00H
        EXTERN ??RegisterForKeys?relay
        FUNCTION ??RegisterForKeys?relay,00H
        EXTERN ??afRegister?relay
        FUNCTION ??afRegister?relay,00H
        EXTERN ??aps_AddGroup?relay
        FUNCTION ??aps_AddGroup?relay,00H
        EXTERN ??checkEPInList?relay
        FUNCTION ??checkEPInList?relay,00H
        EXTERN ??decAllListEPLeftSec?relay
        FUNCTION ??decAllListEPLeftSec?relay,00H
        EXTERN ??mySendByteBuf?relay
        FUNCTION ??mySendByteBuf?relay,00H
        EXTERN ??myprintf?relay
        FUNCTION ??myprintf?relay,00H
        EXTERN ??osal_memcpy?relay
        FUNCTION ??osal_memcpy?relay,00H
        EXTERN ??osal_msg_deallocate?relay
        FUNCTION ??osal_msg_deallocate?relay,00H
        EXTERN ??osal_msg_receive?relay
        FUNCTION ??osal_msg_receive?relay,00H
        EXTERN ??osal_start_timerEx?relay
        FUNCTION ??osal_start_timerEx?relay,00H
        EXTERN ??updateListEleStatus?relay
        FUNCTION ??updateListEleStatus?relay,00H

// E:\Github_Repository\zigbee-net-tech\ZStack-2.5.1a\Projects\zstack\Samples\SampleApp\Source\SampleApp.c
//    1 /**************************************************************************************************
//    2 Filename:       SampleApp.c
//    3 Revised:        $Date: 2009-03-18 15:56:27 -0700 (Wed, 18 Mar 2009) $
//    4 Revision:       $Revision: 19453 $
//    5 
//    6 Description:    Sample Application (no Profile).
//    7 
//    8 
//    9 Copyright 2007 Texas Instruments Incorporated. All rights reserved.
//   10 
//   11 IMPORTANT: Your use of this Software is limited to those specific rights
//   12 granted under the terms of a software license agreement between the user
//   13 who downloaded the software, his/her employer (which must be your employer)
//   14 and Texas Instruments Incorporated (the "License").  You may not use this
//   15 Software unless you agree to abide by the terms of the License. The License
//   16 limits your use, and you acknowledge, that the Software may not be modified,
//   17 copied or distributed unless embedded on a Texas Instruments microcontroller
//   18 or used solely and exclusively in conjunction with a Texas Instruments radio
//   19 frequency transceiver, which is integrated into your product.  Other than for
//   20 the foregoing purpose, you may not use, reproduce, copy, prepare derivative
//   21 works of, modify, distribute, perform, display or sell this Software and/or
//   22 its documentation for any purpose.
//   23 
//   24 YOU FURTHER ACKNOWLEDGE AND AGREE THAT THE SOFTWARE AND DOCUMENTATION ARE
//   25 PROVIDED AS IS?WITHOUT WARRANTY OF ANY KIND, EITHER EXPRESS OR IMPLIED,
//   26 INCLUDING WITHOUT LIMITATION, ANY WARRANTY OF MERCHANTABILITY, TITLE,
//   27 NON-INFRINGEMENT AND FITNESS FOR A PARTICULAR PURPOSE. IN NO EVENT SHALL
//   28 TEXAS INSTRUMENTS OR ITS LICENSORS BE LIABLE OR OBLIGATED UNDER CONTRACT,
//   29 NEGLIGENCE, STRICT LIABILITY, CONTRIBUTION, BREACH OF WARRANTY, OR OTHER
//   30 LEGAL EQUITABLE THEORY ANY DIRECT OR INDIRECT DAMAGES OR EXPENSES
//   31 INCLUDING BUT NOT LIMITED TO ANY INCIDENTAL, SPECIAL, INDIRECT, PUNITIVE
//   32 OR CONSEQUENTIAL DAMAGES, LOST PROFITS OR LOST DATA, COST OF PROCUREMENT
//   33 OF SUBSTITUTE GOODS, TECHNOLOGY, SERVICES, OR ANY CLAIMS BY THIRD PARTIES
//   34 (INCLUDING BUT NOT LIMITED TO ANY DEFENSE THEREOF), OR OTHER SIMILAR COSTS.
//   35 
//   36 Should you have any questions regarding your right to use this Software,
//   37 contact Texas Instruments Incorporated at www.TI.com.
//   38 **************************************************************************************************/
//   39 
//   40 /*********************************************************************
//   41 This application isn't intended to do anything useful, it is
//   42 intended to be a simple example of an application's structure.
//   43 
//   44 This application sends it's messages either as broadcast or
//   45 broadcast filtered group messages.  The other (more normal)
//   46 message addressing is unicast.  Most of the other sample
//   47 applications are written to support the unicast message model.
//   48 
//   49 Key control:
//   50 SW1:  Sends a flash command to all devices in Group 1.
//   51 SW2:  Adds/Removes (toggles) this device in and out
//   52 of Group 1.  This will enable and disable the
//   53 reception of the flash command.
//   54 **************************************************************************************************/
//   55 
//   56 /*********************************************************************
//   57 需要修改的文件包含功能如下：
//   58 ZMain/ZMain.c是主函数
//   59 HAL/hal_drivers.c进行外部中断的初始化
//   60 MT/MT_UART.c中进行串口消息的接收
//   61 SampleApp.c中定义中断响应函数，以及事件消息处理函数等
//   62 SingleLinkedList.c中定义了单链表的实现
//   63 *********************************************************************/
//   64 
//   65 /*********************************************************************
//   66 * INCLUDES
//   67 */
//   68 #include "OSAL.h"
//   69 #include "ZGlobals.h"
//   70 #include "AF.h"
//   71 #include "aps_groups.h"
//   72 #include "ZDObject.h"
//   73 #include "ZDProfile.h"
//   74 #include "ZDApp.h"
//   75 
//   76 #include "SampleApp.h"
//   77 #include "SampleAppHw.h"
//   78 #include "SinglyLinkedList.h"
//   79 
//   80 #include "OnBoard.h"

        ASEGN SFR_AN:DATA:NOROOT,080H
// union <unnamed> volatile __sfr _A_P0
_A_P0:
        DATA8
        DS 1

        ASEGN SFR_AN:DATA:NOROOT,0f3H
// unsigned char volatile __sfr P0SEL
P0SEL:
        DATA8
        DS 1

        ASEGN SFR_AN:DATA:NOROOT,0fdH
// unsigned char volatile __sfr P0DIR
P0DIR:
        DATA8
        DS 1
//   81 
//   82 /* HAL */
//   83 #include "hal_lcd.h"
//   84 #include "hal_led.h"
//   85 #include "hal_key.h"
//   86 
//   87 #include "MT_UART.h"
//   88 #include "MT_APP.h"
//   89 #include "MT.h"
//   90 
//   91 /*******
//   92   一些测试用的宏开关
//   93 */
//   94 // #define NEED_TEST_DIStANCE
//   95 
//   96 /*********************************************************************
//   97 * MACROS
//   98 */
//   99 #define COIN_PIN P0_5            //定义P0.5口为中断方式接收投币器信号引脚
//  100 #define SIMULATE_PIN P0_7        //定义P0.7口为替换投币器模拟信号发生引脚
//  101 #define UART0        0x00
//  102 #define COIN_SIGNAL_HALF_TIME 40
//  103 
//  104 // This list should be filled with Application specific Cluster IDs.

        RSEG XDATA_ROM_C:CONST:REORDER:NOROOT(0)
        DATA8
//  105 const cId_t SampleApp_ClusterList[SAMPLEAPP_MAX_CLUSTERS] =
SampleApp_ClusterList:
        DATA16
        DW 1
        DW 2
        DW 0
        DW 0
//  106 {
//  107   SAMPLEAPP_PERIODIC_CLUSTERID,
//  108   SAMPLEAPP_FLASH_CLUSTERID
//  109 };
//  110 

        RSEG XDATA_ROM_C:CONST:REORDER:NOROOT(0)
        DATA8
//  111 const SimpleDescriptionFormat_t SampleApp_SimpleDesc =
SampleApp_SimpleDesc:
        DB 20
        DATA16
        DW 3848
        DW 1
        DATA8
        DB 0
        DB 4
        DATA16
        DW SampleApp_ClusterList
        DATA8
        DB 4
        DATA16
        DW SampleApp_ClusterList
//  112 {
//  113   SAMPLEAPP_ENDPOINT,              //  int Endpoint;
//  114   SAMPLEAPP_PROFID,                //  uint16 AppProfId[2];
//  115   SAMPLEAPP_DEVICEID,              //  uint16 AppDeviceId[2];
//  116   SAMPLEAPP_DEVICE_VERSION,        //  int   AppDevVer:4;
//  117   SAMPLEAPP_FLAGS,                 //  int   AppFlags:4;
//  118   SAMPLEAPP_MAX_CLUSTERS,          //  uint8  AppNumInClusters;
//  119   (cId_t *)SampleApp_ClusterList,  //  uint8 *pAppInClusterList;
//  120   SAMPLEAPP_MAX_CLUSTERS,          //  uint8  AppNumInClusters;
//  121   (cId_t *)SampleApp_ClusterList   //  uint8 *pAppInClusterList;
//  122 };
//  123 
//  124 // This is the Endpoint/Interface description.  It is defined here, but
//  125 // filled-in in SampleApp_Init().  Another way to go would be to fill
//  126 // in the structure here and make it a "const" (in code space).  The
//  127 // way it's defined in this sample app it is define in RAM.

        RSEG XDATA_Z:XDATA:NOROOT(0)
        DATA8
//  128 endPointDesc_t SampleApp_epDesc;
SampleApp_epDesc:
        DS 6
        REQUIRE __INIT_XDATA_Z

        RSEG XDATA_Z:XDATA:NOROOT(0)
        DATA8
//  129 afAddrType_t GenericApp_DstAddr;
GenericApp_DstAddr:
        DS 12
        REQUIRE __INIT_XDATA_Z

        RSEG XDATA_Z:XDATA:NOROOT(0)
        DATA8
//  130 afAddrType_t EndPoint_DstAddr;
EndPoint_DstAddr:
        DS 12
        REQUIRE __INIT_XDATA_Z
//  131 
//  132 /*********************************************************************
//  133 * LOCAL VARIABLES
//  134 */

        RSEG XDATA_Z:XDATA:NOROOT(0)
        DATA8
//  135 uint8 SampleApp_TaskID;   // Task ID for internal task/event processing
SampleApp_TaskID:
        DS 1
        REQUIRE __INIT_XDATA_Z
//  136 // This variable will be received when
//  137 // SampleApp_Init() is called.

        RSEG XDATA_Z:XDATA:NOROOT(0)
        DATA8
//  138 devStates_t SampleApp_NwkState;
SampleApp_NwkState:
        DS 1
        REQUIRE __INIT_XDATA_Z
//  139 

        RSEG XDATA_Z:XDATA:NOROOT(0)
        DATA8
//  140 uint8 SampleApp_TransID;  // This is the unique message ID (counter)
SampleApp_TransID:
        DS 1
        REQUIRE __INIT_XDATA_Z
//  141 

        RSEG XDATA_Z:XDATA:NOROOT(0)
        DATA8
//  142 afAddrType_t SampleApp_Periodic_DstAddr; // 用于协调器广播消息
SampleApp_Periodic_DstAddr:
        DS 12
        REQUIRE __INIT_XDATA_Z

        RSEG XDATA_Z:XDATA:NOROOT(0)
        DATA8
//  143 afAddrType_t SampleApp_TxAddr; // 用于终端设备向协调器报告短地址信息
SampleApp_TxAddr:
        DS 12
        REQUIRE __INIT_XDATA_Z
//  144 

        RSEG XDATA_Z:XDATA:NOROOT(0)
        DATA8
//  145 aps_Group_t SampleApp_Group;
SampleApp_Group:
        DS 18
        REQUIRE __INIT_XDATA_Z

        RSEG XDATA_Z:XDATA:NOROOT(0)
        DATA8
//  146 uint8 SampleAppPeriodicCounter = 0;
SampleAppPeriodicCounter:
        DS 1
        REQUIRE __INIT_XDATA_Z

        RSEG XDATA_Z:XDATA:NOROOT(0)
        DATA8
//  147 uint8 SampleAppFlashCounter = 0;
SampleAppFlashCounter:
        DS 1
        REQUIRE __INIT_XDATA_Z
//  148 

        RSEG XDATA_Z:XDATA:NOROOT(0)
        DATA16
//  149 LinkList LL; // 定义线性链表存储终端地址以及心跳信息
LL:
        DS 2
        REQUIRE __INIT_XDATA_Z
//  150 
//  151 /*********************************************************************
//  152 * LOCAL FUNCTIONS
//  153 */
//  154 void AfSendAddrInfo(uint8 cmd);
//  155 void AfReplyGetCoinCmd(void);
//  156 void SampleApp_HandleKeys( uint8 shift, uint8 keys );
//  157 void SampleApp_MessageMSGCB( afIncomingMSGPacket_t *pckt );
//  158 void SampleApp_SendPeriodicMessage( int8 whichKey );
//  159 void SampleApp_SendHeartBeatMessageCoor(void);
//  160 void SampleApp_SendHeartBeatMessageEnd(void);
//  161 void printAddrInfoHex(uint8* buf, uint8 dataLen);
//  162 void convertHexToStr(uint16 addr, uint8 lcdLineNum);
//  163 
//  164 #ifdef END_DEVICE
//  165 int8 NeedCoinDelivered = 0; // 定义终端需要处理的投币个数
//  166 int8 NeedCoinTransport = 0; // 需要转发的投币器信号数量
//  167 #endif
//  168 
//  169 /**
//  170   终端设备P1端口中断处理函数，用来接收投币器的信号
//  171 */
//  172 #ifdef END_DEVICE
//  173 HAL_ISR_FUNCTION( coinPort0Isr, P0INT_VECTOR ) // P0_5配置为投币器电平变化中断引脚，在HAL/Common/hal_drivers.c中进行的引脚初始化
//  174 {  
//  175   P0IFG &= ~(0x1 << 5);       //端口0中断状态标志
//  176   P0IF = 0;        //端口0中断标志，0表示无中断未决，1表示有中断未决，需要每次触发之后置0，不然会一直触发中断
//  177   
//  178   SIMULATE_PIN = 1; // 初始高电平 
//  179   NeedCoinTransport = 1;
//  180   osal_start_timerEx( SampleApp_TaskID, SAMPLEAPP_TRANSPORT_COIN_MSG_EVT, 50); // 产生一个定时器事件
//  181   HalLedBlink(HAL_LED_2, 5, 50, 250);
//  182 }
//  183 #endif
//  184 
//  185 /**
//  186 * 自定义任务初始化函数
//  187 */

        RSEG BANKED_CODE:CODE:NOROOT(0)
//  188 void SampleApp_Init( uint8 task_id )
SampleApp_Init:
        CFI Block cfiBlock0 Using cfiCommon0
        CFI Function SampleApp_Init
        CODE
//  189 {
        FUNCALL SampleApp_Init, afRegister
        LOCFRAME ISTACK, 0, STACK
        LOCFRAME PSTACK, 0, STACK
        LOCFRAME XSTACK, 11, STACK
        LOCFRAME IOVERLAY, 0, STATIC
        LOCFRAME DOVERLAY, 0, STATIC
        ARGFRAME ISTACK, 0, STACK
        ARGFRAME PSTACK, 0, STACK
        ARGFRAME XSTACK, 11, STACK
        ARGFRAME IOVERLAY, 0, STATIC
        ARGFRAME DOVERLAY, 0, STATIC
        FUNCALL SampleApp_Init, RegisterForKeys
        LOCFRAME ISTACK, 0, STACK
        LOCFRAME PSTACK, 0, STACK
        LOCFRAME XSTACK, 11, STACK
        LOCFRAME IOVERLAY, 0, STATIC
        LOCFRAME DOVERLAY, 0, STATIC
        ARGFRAME ISTACK, 0, STACK
        ARGFRAME PSTACK, 0, STACK
        ARGFRAME XSTACK, 11, STACK
        ARGFRAME IOVERLAY, 0, STATIC
        ARGFRAME DOVERLAY, 0, STATIC
        FUNCALL SampleApp_Init, osal_memcpy
        LOCFRAME ISTACK, 0, STACK
        LOCFRAME PSTACK, 0, STACK
        LOCFRAME XSTACK, 14, STACK
        LOCFRAME IOVERLAY, 0, STATIC
        LOCFRAME DOVERLAY, 0, STATIC
        ARGFRAME ISTACK, 0, STACK
        ARGFRAME PSTACK, 0, STACK
        ARGFRAME XSTACK, 14, STACK
        ARGFRAME IOVERLAY, 0, STATIC
        ARGFRAME DOVERLAY, 0, STATIC
        FUNCALL SampleApp_Init, aps_AddGroup
        LOCFRAME ISTACK, 0, STACK
        LOCFRAME PSTACK, 0, STACK
        LOCFRAME XSTACK, 11, STACK
        LOCFRAME IOVERLAY, 0, STATIC
        LOCFRAME DOVERLAY, 0, STATIC
        ARGFRAME ISTACK, 0, STACK
        ARGFRAME PSTACK, 0, STACK
        ARGFRAME XSTACK, 11, STACK
        ARGFRAME IOVERLAY, 0, STATIC
        ARGFRAME DOVERLAY, 0, STATIC
        FUNCALL SampleApp_Init, MT_UartInit
        LOCFRAME ISTACK, 0, STACK
        LOCFRAME PSTACK, 0, STACK
        LOCFRAME XSTACK, 11, STACK
        LOCFRAME IOVERLAY, 0, STATIC
        LOCFRAME DOVERLAY, 0, STATIC
        ARGFRAME ISTACK, 0, STACK
        ARGFRAME PSTACK, 0, STACK
        ARGFRAME XSTACK, 11, STACK
        ARGFRAME IOVERLAY, 0, STATIC
        ARGFRAME DOVERLAY, 0, STATIC
        FUNCALL SampleApp_Init, MT_UartRegisterTaskID
        LOCFRAME ISTACK, 0, STACK
        LOCFRAME PSTACK, 0, STACK
        LOCFRAME XSTACK, 11, STACK
        LOCFRAME IOVERLAY, 0, STATIC
        LOCFRAME DOVERLAY, 0, STATIC
        ARGFRAME ISTACK, 0, STACK
        ARGFRAME PSTACK, 0, STACK
        ARGFRAME XSTACK, 11, STACK
        ARGFRAME IOVERLAY, 0, STATIC
        ARGFRAME DOVERLAY, 0, STATIC
        FUNCALL SampleApp_Init, myprintf
        LOCFRAME ISTACK, 0, STACK
        LOCFRAME PSTACK, 0, STACK
        LOCFRAME XSTACK, 11, STACK
        LOCFRAME IOVERLAY, 0, STATIC
        LOCFRAME DOVERLAY, 0, STATIC
        ARGFRAME ISTACK, 0, STACK
        ARGFRAME PSTACK, 0, STACK
        ARGFRAME XSTACK, 11, STACK
        ARGFRAME IOVERLAY, 0, STATIC
        ARGFRAME DOVERLAY, 0, STATIC
        FUNCALL SampleApp_Init, InitList_L
        LOCFRAME ISTACK, 0, STACK
        LOCFRAME PSTACK, 0, STACK
        LOCFRAME XSTACK, 11, STACK
        LOCFRAME IOVERLAY, 0, STATIC
        LOCFRAME DOVERLAY, 0, STATIC
        ARGFRAME ISTACK, 0, STACK
        ARGFRAME PSTACK, 0, STACK
        ARGFRAME XSTACK, 11, STACK
        ARGFRAME IOVERLAY, 0, STATIC
        ARGFRAME DOVERLAY, 0, STATIC
        FUNCALL SampleApp_Init, myprintf
        LOCFRAME ISTACK, 0, STACK
        LOCFRAME PSTACK, 0, STACK
        LOCFRAME XSTACK, 11, STACK
        LOCFRAME IOVERLAY, 0, STATIC
        LOCFRAME DOVERLAY, 0, STATIC
        ARGFRAME ISTACK, 0, STACK
        ARGFRAME PSTACK, 0, STACK
        ARGFRAME XSTACK, 11, STACK
        ARGFRAME IOVERLAY, 0, STATIC
        ARGFRAME DOVERLAY, 0, STATIC
        MOV     A,#-0xb
        LCALL   ?BANKED_ENTER_XDATA
        CFI DPH0 load(1, XDATA, add(CFA_XSP16, literal(-1)))
        CFI DPL0 load(1, XDATA, add(CFA_XSP16, literal(-2)))
        CFI ?BRET_EXT load(1, XDATA, add(CFA_XSP16, literal(-3)))
        CFI ?RET_HIGH load(1, XDATA, add(CFA_XSP16, literal(-4)))
        CFI ?RET_LOW load(1, XDATA, add(CFA_XSP16, literal(-5)))
        CFI R7 load(1, XDATA, add(CFA_XSP16, literal(-6)))
        CFI V2 load(1, XDATA, add(CFA_XSP16, literal(-7)))
        CFI V1 load(1, XDATA, add(CFA_XSP16, literal(-8)))
        CFI V0 load(1, XDATA, add(CFA_XSP16, literal(-9)))
        CFI VB load(1, XDATA, add(CFA_XSP16, literal(-10)))
        CFI R6 load(1, XDATA, add(CFA_XSP16, literal(-11)))
        CFI CFA_SP SP+0
        CFI CFA_XSP16 add(XSP16, 11)
        ; Saved register size: 11
        ; Auto size: 0
        MOV     A,R1
        MOV     R6,A
//  190   halUARTCfg_t uartConfig;
//  191   
//  192   SampleApp_TaskID = task_id;
        MOV     DPTR,#SampleApp_TaskID
        MOVX    @DPTR,A
//  193   SampleApp_NwkState = DEV_INIT;
        MOV     DPTR,#SampleApp_NwkState
        MOV     A,#0x1
        MOVX    @DPTR,A
//  194   SampleApp_TransID = 0;
        MOV     DPTR,#SampleApp_TransID
        CLR     A
        MOVX    @DPTR,A
//  195   
//  196   P0SEL &= ~(0x01 << 7);         //设置P0.7口为普通IO
        ANL     0xf3,#0x7f
//  197   P0DIR |= (0x01 << 7);          //设置P0.7口为输出
        ORL     0xfd,#0x80
//  198   SIMULATE_PIN = 1;       // 投币器信号模拟输出引脚
        SETB    0x80.7
//  199   
//  200 #if defined ( BUILD_ALL_DEVICES )
//  201   // The "Demo" target is setup to have BUILD_ALL_DEVICES and HOLD_AUTO_START
//  202   // We are looking at a jumper (defined in SampleAppHw.c) to be jumpered
//  203   // together - if they are - we will start up a coordinator. Otherwise,
//  204   // the device will start as a router.
//  205   if ( readCoordinatorJumper() )
//  206     zgDeviceLogicalType = ZG_DEVICETYPE_COORDINATOR;
//  207   else
//  208     zgDeviceLogicalType = ZG_DEVICETYPE_ROUTER;
//  209 #endif // BUILD_ALL_DEVICES
//  210   
//  211 #if defined ( HOLD_AUTO_START )
//  212   // HOLD_AUTO_START is a compile option that will surpress ZDApp
//  213   //  from starting the device and wait for the application to
//  214   //  start the device.
//  215   ZDOInitDevice(0);
//  216 #endif
//  217   
//  218   GenericApp_DstAddr.addrMode = (afAddrMode_t)AddrNotPresent;
        MOV     DPTR,#GenericApp_DstAddr + 8
        MOVX    @DPTR,A
//  219   GenericApp_DstAddr.endPoint = 0;
        INC     DPTR
        MOVX    @DPTR,A
//  220   GenericApp_DstAddr.addr.shortAddr = 0;
        MOV     DPTR,#GenericApp_DstAddr
        MOVX    @DPTR,A
        INC     DPTR
        MOVX    @DPTR,A
//  221   
//  222   // Setup for the periodic message's destination address
//  223   // Broadcast to everyone
//  224   // 协调器广播发送数据到终端
//  225   SampleApp_Periodic_DstAddr.addrMode = (afAddrMode_t)AddrBroadcast;
        MOV     DPTR,#SampleApp_Periodic_DstAddr + 8
        MOV     A,#0xf
        MOVX    @DPTR,A
//  226   SampleApp_Periodic_DstAddr.endPoint = SAMPLEAPP_ENDPOINT;
        INC     DPTR
        MOV     A,#0x14
        MOVX    @DPTR,A
//  227   SampleApp_Periodic_DstAddr.addr.shortAddr = 0xFFFF; // 广播地址
        MOV     DPTR,#SampleApp_Periodic_DstAddr
        MOV     A,#-0x1
        MOVX    @DPTR,A
        INC     DPTR
        MOVX    @DPTR,A
//  228   
//  229   // 终端单播发送数据到协调器
//  230   SampleApp_TxAddr.addrMode = (afAddrMode_t)Addr16Bit;
        MOV     DPTR,#SampleApp_TxAddr + 8
        MOV     A,#0x2
        MOVX    @DPTR,A
//  231   SampleApp_TxAddr.endPoint = SAMPLEAPP_ENDPOINT;
        INC     DPTR
        MOV     A,#0x14
        MOVX    @DPTR,A
//  232   SampleApp_TxAddr.addr.shortAddr = 0x00; // 单播协调器地址
        MOV     DPTR,#SampleApp_TxAddr
        CLR     A
        MOVX    @DPTR,A
        INC     DPTR
        MOVX    @DPTR,A
//  233   
//  234   // 协调器单播发送到指定地址的终端上  
//  235   EndPoint_DstAddr.addrMode = (afAddrMode_t)Addr16Bit;
        MOV     DPTR,#EndPoint_DstAddr + 8
        MOV     A,#0x2
        MOVX    @DPTR,A
//  236   EndPoint_DstAddr.endPoint = SAMPLEAPP_ENDPOINT;
        INC     DPTR
        MOV     A,#0x14
        MOVX    @DPTR,A
//  237   EndPoint_DstAddr.addr.shortAddr = 0x00; // 在发送的时候动态修改终端地址
        MOV     DPTR,#EndPoint_DstAddr
        CLR     A
        MOVX    @DPTR,A
        INC     DPTR
        MOVX    @DPTR,A
//  238   
//  239   // Fill out the endpoint description.
//  240   SampleApp_epDesc.endPoint = SAMPLEAPP_ENDPOINT; // 端点号
        MOV     DPTR,#SampleApp_epDesc
        MOV     A,#0x14
        MOVX    @DPTR,A
//  241   SampleApp_epDesc.task_id = &SampleApp_TaskID; // 端点对应的任务
        INC     DPTR
        MOV     A,#SampleApp_TaskID & 0xff
        MOVX    @DPTR,A
        INC     DPTR
        MOV     A,#(SampleApp_TaskID >> 8) & 0xff
        MOVX    @DPTR,A
//  242   SampleApp_epDesc.simpleDesc = (SimpleDescriptionFormat_t *)&SampleApp_SimpleDesc; // 简单描述符
        INC     DPTR
        MOV     A,#SampleApp_SimpleDesc & 0xff
        MOVX    @DPTR,A
        INC     DPTR
        MOV     A,#(SampleApp_SimpleDesc >> 8) & 0xff
        MOVX    @DPTR,A
//  243   SampleApp_epDesc.latencyReq = noLatencyReqs;  
        INC     DPTR
        CLR     A
        MOVX    @DPTR,A
//  244   afRegister( &SampleApp_epDesc ); // 注册一个应用的端点描述符，注册一个新的端点到任务，这样当有新的消息到来时直接发送到指定的任务中
        ; Setup parameters for call to function afRegister
        MOV     R2,#SampleApp_epDesc & 0xff
        MOV     R3,#(SampleApp_epDesc >> 8) & 0xff
        LCALL   ??afRegister?relay
//  245   
//  246   // 绑定按键事件到任务ID
//  247   RegisterForKeys( SampleApp_TaskID );
        ; Setup parameters for call to function RegisterForKeys
        MOV     DPTR,#SampleApp_TaskID
        MOVX    A,@DPTR
        MOV     R1,A
        LCALL   ??RegisterForKeys?relay
//  248   
//  249   // By default, all devices start out in Group 1
//  250   SampleApp_Group.ID = 0x0001;
        MOV     DPTR,#SampleApp_Group
        MOV     A,#0x1
        MOVX    @DPTR,A
        INC     DPTR
        CLR     A
        MOVX    @DPTR,A
//  251   osal_memcpy( SampleApp_Group.name, "Group 1", 7 );
        ; Setup parameters for call to function osal_memcpy
        MOV     ?V0 + 0,#`?<Constant "Group 1">` & 0xff
        MOV     ?V0 + 1,#(`?<Constant "Group 1">` >> 8) & 0xff
        MOV     ?V0 + 2,A
        MOV     R0,#?V0 + 0
        LCALL   ?PUSH_XSTACK_I_THREE
        CFI CFA_XSP16 add(XSP16, 14)
        MOV     R4,#0x7
        MOV     R5,#0x0
        MOV     R2,#(SampleApp_Group + 2) & 0xff
        MOV     R3,#((SampleApp_Group + 2) >> 8) & 0xff
        LCALL   ??osal_memcpy?relay
        MOV     A,#0x3
        LCALL   ?DEALLOC_XSTACK8
        CFI CFA_XSP16 add(XSP16, 11)
//  252   aps_AddGroup( SAMPLEAPP_ENDPOINT, &SampleApp_Group );
        ; Setup parameters for call to function aps_AddGroup
        MOV     R2,#SampleApp_Group & 0xff
        MOV     R3,#(SampleApp_Group >> 8) & 0xff
        MOV     R1,#0x14
        LCALL   ??aps_AddGroup?relay
//  253   
//  254   // 初始化串口
//  255   MT_UartInit();                    //串口初始化
        ; Setup parameters for call to function MT_UartInit
        LCALL   ??MT_UartInit?relay
//  256   MT_UartRegisterTaskID(task_id);   //注册串口任务
        ; Setup parameters for call to function MT_UartRegisterTaskID
        MOV     A,R6
        MOV     R1,A
        LCALL   ??MT_UartRegisterTaskID?relay
//  257   myprintf("UartInit OK\n");
        ; Setup parameters for call to function myprintf
        MOV     R2,#`?<Constant "UartInit OK\\n">` & 0xff
        MOV     R3,#(`?<Constant "UartInit OK\\n">` >> 8) & 0xff
        LCALL   ??myprintf?relay
//  258 
//  259 #ifdef ZDO_COORDINATOR   
//  260   int ret = InitList_L(&LL); // 单链表初始化
//  261   if(ret == OVERFLOW) {
        ; Setup parameters for call to function InitList_L
        MOV     R2,#LL & 0xff
        MOV     R3,#(LL >> 8) & 0xff
        LCALL   ??InitList_L?relay
        MOV     ?V0 + 0,R2
        MOV     ?V0 + 1,R3
        MOV     A,#-0x2
        XRL     A,?V0 + 0
        JNZ     ??SampleApp_Init_0
        MOV     A,#-0x1
        XRL     A,?V0 + 1
??SampleApp_Init_0:
        JNZ     ??SampleApp_Init_1
//  262     myprintf("InitList_L OVERFLOW\n");
        ; Setup parameters for call to function myprintf
        MOV     R2,#`?<Constant "InitList_L OVERFLOW\\n">` & 0xff
        MOV     R3,#(`?<Constant "InitList_L OVERFLOW\\n">` >> 8) & 0xff
        LCALL   ??myprintf?relay
//  263   }
//  264 #endif  
//  265 }
??SampleApp_Init_1:
        LJMP    ??Subroutine15_0 & 0xFFFF
        CFI EndBlock cfiBlock0
        REQUIRE P0SEL
        REQUIRE P0DIR
        REQUIRE _A_P0
//  266 
//  267 /*********************************************************************
//  268 * @fn      SampleApp_ProcessEvent
//  269 *
//  270 * @brief   Generic Application Task event processor.  This function
//  271 *          is called to process all events for the task.  Events
//  272 *          include timers, messages and any other user defined events.
//  273 *          系统各种事件的处理函数
//  274 *
//  275 * @param   task_id  - The OSAL assigned task ID.
//  276 * @param   events - events to process.  This is a bit map and can
//  277 *                   contain more than one event.
//  278 *
//  279 * @return  none
//  280 */

        RSEG BANKED_CODE:CODE:NOROOT(0)
//  281 uint16 SampleApp_ProcessEvent( uint8 task_id, uint16 events )
SampleApp_ProcessEvent:
        CFI Block cfiBlock1 Using cfiCommon0
        CFI Function SampleApp_ProcessEvent
        CODE
//  282 {
        FUNCALL SampleApp_ProcessEvent, osal_msg_receive
        LOCFRAME ISTACK, 0, STACK
        LOCFRAME PSTACK, 0, STACK
        LOCFRAME XSTACK, 15, STACK
        LOCFRAME IOVERLAY, 0, STATIC
        LOCFRAME DOVERLAY, 0, STATIC
        ARGFRAME ISTACK, 0, STACK
        ARGFRAME PSTACK, 0, STACK
        ARGFRAME XSTACK, 15, STACK
        ARGFRAME IOVERLAY, 0, STATIC
        ARGFRAME DOVERLAY, 0, STATIC
        FUNCALL SampleApp_ProcessEvent, myprintf
        LOCFRAME ISTACK, 0, STACK
        LOCFRAME PSTACK, 0, STACK
        LOCFRAME XSTACK, 17, STACK
        LOCFRAME IOVERLAY, 0, STATIC
        LOCFRAME DOVERLAY, 0, STATIC
        ARGFRAME ISTACK, 0, STACK
        ARGFRAME PSTACK, 0, STACK
        ARGFRAME XSTACK, 17, STACK
        ARGFRAME IOVERLAY, 0, STATIC
        ARGFRAME DOVERLAY, 0, STATIC
        FUNCALL SampleApp_ProcessEvent, osal_msg_deallocate
        LOCFRAME ISTACK, 0, STACK
        LOCFRAME PSTACK, 0, STACK
        LOCFRAME XSTACK, 15, STACK
        LOCFRAME IOVERLAY, 0, STATIC
        LOCFRAME DOVERLAY, 0, STATIC
        ARGFRAME ISTACK, 0, STACK
        ARGFRAME PSTACK, 0, STACK
        ARGFRAME XSTACK, 15, STACK
        ARGFRAME IOVERLAY, 0, STATIC
        ARGFRAME DOVERLAY, 0, STATIC
        FUNCALL SampleApp_ProcessEvent, osal_msg_receive
        LOCFRAME ISTACK, 0, STACK
        LOCFRAME PSTACK, 0, STACK
        LOCFRAME XSTACK, 15, STACK
        LOCFRAME IOVERLAY, 0, STATIC
        LOCFRAME DOVERLAY, 0, STATIC
        ARGFRAME ISTACK, 0, STACK
        ARGFRAME PSTACK, 0, STACK
        ARGFRAME XSTACK, 15, STACK
        ARGFRAME IOVERLAY, 0, STATIC
        ARGFRAME DOVERLAY, 0, STATIC
        FUNCALL SampleApp_ProcessEvent, myprintf
        LOCFRAME ISTACK, 0, STACK
        LOCFRAME PSTACK, 0, STACK
        LOCFRAME XSTACK, 15, STACK
        LOCFRAME IOVERLAY, 0, STATIC
        LOCFRAME DOVERLAY, 0, STATIC
        ARGFRAME ISTACK, 0, STACK
        ARGFRAME PSTACK, 0, STACK
        ARGFRAME XSTACK, 15, STACK
        ARGFRAME IOVERLAY, 0, STATIC
        ARGFRAME DOVERLAY, 0, STATIC
        FUNCALL SampleApp_ProcessEvent, SampleApp_HandleKeys
        LOCFRAME ISTACK, 0, STACK
        LOCFRAME PSTACK, 0, STACK
        LOCFRAME XSTACK, 15, STACK
        LOCFRAME IOVERLAY, 0, STATIC
        LOCFRAME DOVERLAY, 0, STATIC
        ARGFRAME ISTACK, 0, STACK
        ARGFRAME PSTACK, 0, STACK
        ARGFRAME XSTACK, 15, STACK
        ARGFRAME IOVERLAY, 0, STATIC
        ARGFRAME DOVERLAY, 0, STATIC
        FUNCALL SampleApp_ProcessEvent, SampleApp_MessageMSGCB
        LOCFRAME ISTACK, 0, STACK
        LOCFRAME PSTACK, 0, STACK
        LOCFRAME XSTACK, 15, STACK
        LOCFRAME IOVERLAY, 0, STATIC
        LOCFRAME DOVERLAY, 0, STATIC
        ARGFRAME ISTACK, 0, STACK
        ARGFRAME PSTACK, 0, STACK
        ARGFRAME XSTACK, 15, STACK
        ARGFRAME IOVERLAY, 0, STATIC
        ARGFRAME DOVERLAY, 0, STATIC
        FUNCALL SampleApp_ProcessEvent, mySendByteBuf
        LOCFRAME ISTACK, 0, STACK
        LOCFRAME PSTACK, 0, STACK
        LOCFRAME XSTACK, 15, STACK
        LOCFRAME IOVERLAY, 0, STATIC
        LOCFRAME DOVERLAY, 0, STATIC
        ARGFRAME ISTACK, 0, STACK
        ARGFRAME PSTACK, 0, STACK
        ARGFRAME XSTACK, 15, STACK
        ARGFRAME IOVERLAY, 0, STATIC
        ARGFRAME DOVERLAY, 0, STATIC
        FUNCALL SampleApp_ProcessEvent, osal_start_timerEx
        LOCFRAME ISTACK, 0, STACK
        LOCFRAME PSTACK, 0, STACK
        LOCFRAME XSTACK, 15, STACK
        LOCFRAME IOVERLAY, 0, STATIC
        LOCFRAME DOVERLAY, 0, STATIC
        ARGFRAME ISTACK, 0, STACK
        ARGFRAME PSTACK, 0, STACK
        ARGFRAME XSTACK, 15, STACK
        ARGFRAME IOVERLAY, 0, STATIC
        ARGFRAME DOVERLAY, 0, STATIC
        FUNCALL SampleApp_ProcessEvent, HalLedBlink
        LOCFRAME ISTACK, 0, STACK
        LOCFRAME PSTACK, 0, STACK
        LOCFRAME XSTACK, 15, STACK
        LOCFRAME IOVERLAY, 0, STATIC
        LOCFRAME DOVERLAY, 0, STATIC
        ARGFRAME ISTACK, 0, STACK
        ARGFRAME PSTACK, 0, STACK
        ARGFRAME XSTACK, 15, STACK
        ARGFRAME IOVERLAY, 0, STATIC
        ARGFRAME DOVERLAY, 0, STATIC
        FUNCALL SampleApp_ProcessEvent, HalLedBlink
        LOCFRAME ISTACK, 0, STACK
        LOCFRAME PSTACK, 0, STACK
        LOCFRAME XSTACK, 15, STACK
        LOCFRAME IOVERLAY, 0, STATIC
        LOCFRAME DOVERLAY, 0, STATIC
        ARGFRAME ISTACK, 0, STACK
        ARGFRAME PSTACK, 0, STACK
        ARGFRAME XSTACK, 15, STACK
        ARGFRAME IOVERLAY, 0, STATIC
        ARGFRAME DOVERLAY, 0, STATIC
        FUNCALL SampleApp_ProcessEvent, AfSendAddrInfo
        LOCFRAME ISTACK, 0, STACK
        LOCFRAME PSTACK, 0, STACK
        LOCFRAME XSTACK, 15, STACK
        LOCFRAME IOVERLAY, 0, STATIC
        LOCFRAME DOVERLAY, 0, STATIC
        ARGFRAME ISTACK, 0, STACK
        ARGFRAME PSTACK, 0, STACK
        ARGFRAME XSTACK, 15, STACK
        ARGFRAME IOVERLAY, 0, STATIC
        ARGFRAME DOVERLAY, 0, STATIC
        FUNCALL SampleApp_ProcessEvent, HalLedBlink
        LOCFRAME ISTACK, 0, STACK
        LOCFRAME PSTACK, 0, STACK
        LOCFRAME XSTACK, 15, STACK
        LOCFRAME IOVERLAY, 0, STATIC
        LOCFRAME DOVERLAY, 0, STATIC
        ARGFRAME ISTACK, 0, STACK
        ARGFRAME PSTACK, 0, STACK
        ARGFRAME XSTACK, 15, STACK
        ARGFRAME IOVERLAY, 0, STATIC
        ARGFRAME DOVERLAY, 0, STATIC
        FUNCALL SampleApp_ProcessEvent, osal_start_timerEx
        LOCFRAME ISTACK, 0, STACK
        LOCFRAME PSTACK, 0, STACK
        LOCFRAME XSTACK, 15, STACK
        LOCFRAME IOVERLAY, 0, STATIC
        LOCFRAME DOVERLAY, 0, STATIC
        ARGFRAME ISTACK, 0, STACK
        ARGFRAME PSTACK, 0, STACK
        ARGFRAME XSTACK, 15, STACK
        ARGFRAME IOVERLAY, 0, STATIC
        ARGFRAME DOVERLAY, 0, STATIC
        FUNCALL SampleApp_ProcessEvent, SampleApp_SendHeartBeatMessageCoor
        LOCFRAME ISTACK, 0, STACK
        LOCFRAME PSTACK, 0, STACK
        LOCFRAME XSTACK, 15, STACK
        LOCFRAME IOVERLAY, 0, STATIC
        LOCFRAME DOVERLAY, 0, STATIC
        ARGFRAME ISTACK, 0, STACK
        ARGFRAME PSTACK, 0, STACK
        ARGFRAME XSTACK, 15, STACK
        ARGFRAME IOVERLAY, 0, STATIC
        ARGFRAME DOVERLAY, 0, STATIC
        FUNCALL SampleApp_ProcessEvent, osal_start_timerEx
        LOCFRAME ISTACK, 0, STACK
        LOCFRAME PSTACK, 0, STACK
        LOCFRAME XSTACK, 15, STACK
        LOCFRAME IOVERLAY, 0, STATIC
        LOCFRAME DOVERLAY, 0, STATIC
        ARGFRAME ISTACK, 0, STACK
        ARGFRAME PSTACK, 0, STACK
        ARGFRAME XSTACK, 15, STACK
        ARGFRAME IOVERLAY, 0, STATIC
        ARGFRAME DOVERLAY, 0, STATIC
        MOV     A,#-0xc
        LCALL   ?BANKED_ENTER_XDATA
        CFI DPH0 load(1, XDATA, add(CFA_XSP16, literal(-1)))
        CFI DPL0 load(1, XDATA, add(CFA_XSP16, literal(-2)))
        CFI ?BRET_EXT load(1, XDATA, add(CFA_XSP16, literal(-3)))
        CFI ?RET_HIGH load(1, XDATA, add(CFA_XSP16, literal(-4)))
        CFI ?RET_LOW load(1, XDATA, add(CFA_XSP16, literal(-5)))
        CFI R7 load(1, XDATA, add(CFA_XSP16, literal(-6)))
        CFI V3 load(1, XDATA, add(CFA_XSP16, literal(-7)))
        CFI V2 load(1, XDATA, add(CFA_XSP16, literal(-8)))
        CFI V1 load(1, XDATA, add(CFA_XSP16, literal(-9)))
        CFI V0 load(1, XDATA, add(CFA_XSP16, literal(-10)))
        CFI VB load(1, XDATA, add(CFA_XSP16, literal(-11)))
        CFI R6 load(1, XDATA, add(CFA_XSP16, literal(-12)))
        CFI CFA_SP SP+0
        CFI CFA_XSP16 add(XSP16, 12)
        ; Saved register size: 12
        ; Auto size: 3
        MOV     A,#-0x3
        LCALL   ?ALLOC_XSTACK8
        CFI CFA_XSP16 add(XSP16, 15)
        MOV     A,R2
        MOV     R6,A
        MOV     A,R3
        MOV     R7,A
//  283   afIncomingMSGPacket_t *MSGpkt;
//  284   afDataConfirm_t *afDataConfirm;
//  285   ZStatus_t sentStatus;
//  286   (void)task_id;  // Intentionally unreferenced parameter
//  287   
//  288   if ( events & SYS_EVENT_MSG )
        ANL     A,#0x80
        JNZ     $+5
        LJMP    ??SampleApp_ProcessEvent_0 & 0xFFFF
//  289   {
//  290     MSGpkt = (afIncomingMSGPacket_t *)osal_msg_receive( SampleApp_TaskID );
        ; Setup parameters for call to function osal_msg_receive
        LCALL   ?Subroutine6 & 0xFFFF
//  291     uint8 coodStarted[3] = {'#', 0x45, '@'};
??CrossCallReturnLabel_4:
        MOV     DPL,?XSP + 0
        MOV     DPH,?XSP + 1
        MOV     R4,DPL
        MOV     R5,DPH
        MOV     DPH,#(`?<Constant {35, 69, 64}>` >> 8) & 0xff
        MOV     DPL,#`?<Constant {35, 69, 64}>` & 0xff
        MOV     A,#0x3
        LCALL   ?MOVE_LONG8_XDATA_XDATA
        SJMP    ??CrossCallReturnLabel_5
//  292     while ( MSGpkt )
//  293     {      
//  294       switch ( MSGpkt->hdr.event )
//  295       {
//  296         // 系统任务事件里面的接收数据确认消息
//  297         case AF_DATA_CONFIRM_CMD:          
//  298           afDataConfirm = (afDataConfirm_t *)MSGpkt;
//  299           sentStatus = afDataConfirm->hdr.status;
//  300           // Action taken when confirmation is received.
//  301           if ( sentStatus != ZSuccess )
//  302           {
//  303             myprintf("ERROR:AF_DATA_CONFIRM_CMD failed\n");
//  304           }
//  305           break;
//  306         
//  307           // 接收到一个按键事件
//  308         case KEY_CHANGE:
//  309           SampleApp_HandleKeys( ((keyChange_t *)MSGpkt)->state, ((keyChange_t *)MSGpkt)->keys );
//  310           break;
//  311           
//  312           // 无线网络收到数据
//  313         case AF_INCOMING_MSG_CMD:
//  314           SampleApp_MessageMSGCB( MSGpkt );
//  315           break;
//  316           
//  317           // 设备组网或者入网成功，可以发送一个消息，并开启一个心跳事件的定时器
//  318         case ZDO_STATE_CHANGE:
//  319           SampleApp_NwkState = (devStates_t)(MSGpkt->hdr.status); // 另外MSGpkt->srcAddr.addr.shortAddr;可用于获取终端节点的网络短地址          
//  320           
//  321           // 判断不同的设备类型
//  322           if(SampleApp_NwkState == DEV_ZB_COORD) { // 协调器组建好网络            
//  323             mySendByteBuf(coodStarted, 3); // 向上位机发送已经启动消息            
//  324             osal_start_timerEx( SampleApp_TaskID, SAMPLEAPP_SEND_PERIODIC_MSG_EVT, SAMPLEAPP_SEND_PERIODIC_MSG_TIMEOUT ); // 开启定时器
//  325             HalLedBlink(HAL_LED_2, 3, 50, 250);
//  326           } else if(SampleApp_NwkState == DEV_ROUTER) { // 路由器加入网络
//  327             HalLedBlink(HAL_LED_2, 3, 50, 250);
//  328           } else if(SampleApp_NwkState == DEV_END_DEVICE) { // 终端加入网络
//  329             AfSendAddrInfo(0x71); // 向协调器发送入网消息
//  330             HalLedBlink(HAL_LED_2, 3, 50, 250);
//  331             osal_start_timerEx( SampleApp_TaskID, SAMPLEAPP_SEND_PERIODIC_MSG_EVT, SAMPLEAPP_SEND_PERIODIC_MSG_TIMEOUT ); // 开启定时器
//  332           }
//  333           break;
//  334           
//  335         default:        
//  336           myprintf("unknown pkg-event = 0x%x\n", MSGpkt->hdr.event);      
??SampleApp_ProcessEvent_1:
        ; Setup parameters for call to function myprintf
        LCALL   ?Subroutine8 & 0xFFFF
??CrossCallReturnLabel_9:
        LCALL   ?PUSH_XSTACK_I_TWO
        CFI CFA_XSP16 add(XSP16, 17)
        MOV     R2,#`?<Constant "unknown pkg-event = 0...">` & 0xff
        MOV     R3,#(`?<Constant "unknown pkg-event = 0...">` >> 8) & 0xff
        LCALL   ??myprintf?relay
        MOV     A,#0x2
        LCALL   ?DEALLOC_XSTACK8
        CFI CFA_XSP16 add(XSP16, 15)
//  337           break;
//  338       }      
//  339       
//  340       osal_msg_deallocate( (uint8 *)MSGpkt );// Release the memory
??SampleApp_ProcessEvent_2:
        ; Setup parameters for call to function osal_msg_deallocate
        MOV     R2,?V0 + 0
        MOV     R3,?V0 + 1
        LCALL   ??osal_msg_deallocate?relay
//  341       MSGpkt = (afIncomingMSGPacket_t *)osal_msg_receive( SampleApp_TaskID );// Next - if one is available
        ; Setup parameters for call to function osal_msg_receive
        LCALL   ?Subroutine6 & 0xFFFF
??CrossCallReturnLabel_5:
        MOV     A,?V0 + 0
        ORL     A,?V0 + 1
        JNZ     $+5
        LJMP    ??SampleApp_ProcessEvent_3 & 0xFFFF
        MOV     DPL,?V0 + 0
        MOV     DPH,?V0 + 1
        MOVX    A,@DPTR
        ADD     A,#-0x1a
        JZ      ??SampleApp_ProcessEvent_4
        ADD     A,#0x5a
        JZ      ??SampleApp_ProcessEvent_5
        ADD     A,#-0x11
        JZ      ??SampleApp_ProcessEvent_6
        ADD     A,#-0x2c
        JNZ     ??SampleApp_ProcessEvent_1
        INC     DPTR
        MOVX    A,@DPTR
        JZ      ??SampleApp_ProcessEvent_2
        ; Setup parameters for call to function myprintf
        MOV     R2,#`?<Constant "ERROR:AF_DATA_CONFIRM...">` & 0xff
        MOV     R3,#(`?<Constant "ERROR:AF_DATA_CONFIRM...">` >> 8) & 0xff
        LCALL   ??myprintf?relay
        SJMP    ??SampleApp_ProcessEvent_2
??SampleApp_ProcessEvent_5:
        ; Setup parameters for call to function SampleApp_HandleKeys
        INC     DPTR
        INC     DPTR
        INC     DPTR
        MOVX    A,@DPTR
        MOV     R2,A
        MOV     DPL,?V0 + 0
        MOV     DPH,?V0 + 1
        INC     DPTR
        INC     DPTR
        MOVX    A,@DPTR
        MOV     R1,A
        LCALL   ??SampleApp_HandleKeys?relay
        SJMP    ??SampleApp_ProcessEvent_2
??SampleApp_ProcessEvent_4:
        ; Setup parameters for call to function SampleApp_MessageMSGCB
        MOV     R2,?V0 + 0
        MOV     R3,?V0 + 1
        LCALL   ??SampleApp_MessageMSGCB?relay
        SJMP    ??SampleApp_ProcessEvent_2
??SampleApp_ProcessEvent_6:
        INC     DPTR
        MOVX    A,@DPTR
        MOV     DPTR,#SampleApp_NwkState
        MOVX    @DPTR,A
        XRL     A,#0x9
        JNZ     ??SampleApp_ProcessEvent_7
        ; Setup parameters for call to function mySendByteBuf
        MOV     R4,#0x3
        MOV     R5,#0x0
        MOV     DPL,?XSP + 0
        MOV     DPH,?XSP + 1
        MOV     R2,DPL
        MOV     R3,DPH
        LCALL   ??mySendByteBuf?relay
        ; Setup parameters for call to function osal_start_timerEx
        LCALL   ?Subroutine7 & 0xFFFF
        ; Setup parameters for call to function HalLedBlink
??CrossCallReturnLabel_6:
        MOV     R4,#-0x6
        MOV     R5,#0x0
        MOV     R3,#0x32
        MOV     R2,#0x3
        MOV     R1,#0x2
        LCALL   ??HalLedBlink?relay
        LJMP    ??SampleApp_ProcessEvent_2 & 0xFFFF
??SampleApp_ProcessEvent_7:
        MOVX    A,@DPTR
        XRL     A,#0x7
        JZ      ??CrossCallReturnLabel_6
        ; Setup parameters for call to function HalLedBlink
        MOVX    A,@DPTR
        XRL     A,#0x6
        JZ      $+5
        LJMP    ??SampleApp_ProcessEvent_2 & 0xFFFF
        ; Setup parameters for call to function AfSendAddrInfo
        MOV     R1,#0x71
        LCALL   ??AfSendAddrInfo?relay
        ; Setup parameters for call to function HalLedBlink
        MOV     R4,#-0x6
        MOV     R5,#0x0
        MOV     R3,#0x32
        MOV     R2,#0x3
        MOV     R1,#0x2
        LCALL   ??HalLedBlink?relay
        ; Setup parameters for call to function osal_start_timerEx
        LCALL   ?Subroutine7 & 0xFFFF
//  342     }
??CrossCallReturnLabel_7:
        LJMP    ??SampleApp_ProcessEvent_2 & 0xFFFF
//  343     
//  344     // return unprocessed events
//  345     return (events ^ SYS_EVENT_MSG);
??SampleApp_ProcessEvent_3:
        MOV     A,R6
        MOV     R2,A
        MOV     A,R7
        XRL     A,#0x80
??SampleApp_ProcessEvent_8:
        MOV     R3,A
        SJMP    ??SampleApp_ProcessEvent_9
//  346   }
//  347   
//  348   // 接收到一个定时器事件
//  349   if ( events & SAMPLEAPP_SEND_PERIODIC_MSG_EVT )
??SampleApp_ProcessEvent_0:
        MOV     A,R6
        MOV     C,0xE0 /* A   */.0
        JNC     ??SampleApp_ProcessEvent_10
//  350   {
//  351 #ifdef ZDO_COORDINATOR // 协调器
//  352     SampleApp_SendHeartBeatMessageCoor(); // 协调器心跳功能函数，同时检测掉线的终端，将掉线信息发送到服务器
        ; Setup parameters for call to function SampleApp_SendHeartBeatMessageCoor
        LCALL   ??SampleApp_SendHeartBeatMessageCoor?relay
//  353     osal_start_timerEx( SampleApp_TaskID, SAMPLEAPP_SEND_PERIODIC_MSG_EVT, SAMPLEAPP_SEND_PERIODIC_MSG_TIMEOUT); // 1000ms再次开启定时器
        ; Setup parameters for call to function osal_start_timerEx
        LCALL   ?Subroutine7 & 0xFFFF
//  354 #endif
//  355     
//  356 #ifdef END_DEVICE // 终端设备
//  357     SampleApp_SendHeartBeatMessageEnd(); // 终端心跳功能函数
//  358     osal_start_timerEx( SampleApp_TaskID, SAMPLEAPP_SEND_PERIODIC_MSG_EVT, SAMPLEAPP_SEND_PERIODIC_MSG_TIMEOUT*2); // 2000ms再次开启定时器
//  359 #endif
//  360     
//  361     return (events ^ SAMPLEAPP_SEND_PERIODIC_MSG_EVT); // 清除此已经处理事件标志位
??CrossCallReturnLabel_8:
        MOV     A,R6
        XRL     A,#0x1
        MOV     R2,A
        MOV     A,R7
        SJMP    ??SampleApp_ProcessEvent_8
//  362   }  
//  363   
//  364 #ifdef END_DEVICE  // 接收到线上金币的开启信号，模拟电平变化的定时器事件
//  365   else if(events & SAMPLEAPP_SIMULATE_COIN_MSG_EVT) {
//  366     myprintf("Get COIN_MSG_EVT, NeedCoinDelivered = %d\n", NeedCoinDelivered);
//  367     if(SIMULATE_PIN == 1) {
//  368       SIMULATE_PIN = 0; // 产生一个下降沿
//  369     } else if(SIMULATE_PIN == 0) {
//  370       SIMULATE_PIN = 1; // 完整产生了一个脉冲
//  371       NeedCoinDelivered--;
//  372     }
//  373     if(NeedCoinDelivered > 0) { // 还需要开启定时器
//  374       osal_start_timerEx( SampleApp_TaskID, SAMPLEAPP_SIMULATE_COIN_MSG_EVT, COIN_SIGNAL_HALF_TIME); // 低电平和高电平至少保持50ms
//  375     }    
//  376     return (events ^ SAMPLEAPP_SIMULATE_COIN_MSG_EVT);
//  377   } else if(events & SAMPLEAPP_TRANSPORT_COIN_MSG_EVT) { // 需要转发投币器的投币信号
//  378     myprintf("Get transport coin EVT");
//  379     
//  380     if(SIMULATE_PIN == 1) {
//  381       SIMULATE_PIN = 0; // 产生一个下降沿
//  382     } else if(SIMULATE_PIN == 0) {
//  383       SIMULATE_PIN = 1; // 完整产生了一个脉冲
//  384       NeedCoinTransport--;
//  385     }
//  386     if(NeedCoinTransport > 0) { // 还需要开启定时器
//  387       osal_start_timerEx( SampleApp_TaskID, SAMPLEAPP_TRANSPORT_COIN_MSG_EVT, COIN_SIGNAL_HALF_TIME); // 低电平和高电平至少保持50ms
//  388     }
//  389     return (events ^ SAMPLEAPP_TRANSPORT_COIN_MSG_EVT);
//  390   }
//  391 #endif  
//  392   
//  393   return 0;
??SampleApp_ProcessEvent_10:
        MOV     R2,#0x0
        MOV     R3,#0x0
??SampleApp_ProcessEvent_9:
        MOV     A,#0x3
        LCALL   ?DEALLOC_XSTACK8
        CFI CFA_XSP16 add(XSP16, 12)
        MOV     R7,#0x4
        LJMP    ?BANKED_LEAVE_XDATA
        CFI EndBlock cfiBlock1
//  394 }

        RSEG BANKED_CODE:CODE:NOROOT(0)
?Subroutine7:
        CFI Block cfiCond2 Using cfiCommon0
        CFI NoFunction
        CFI Conditional ??CrossCallReturnLabel_6
        CFI R6 load(1, XDATA, add(CFA_XSP16, literal(-12)))
        CFI VB load(1, XDATA, add(CFA_XSP16, literal(-11)))
        CFI V0 load(1, XDATA, add(CFA_XSP16, literal(-10)))
        CFI V1 load(1, XDATA, add(CFA_XSP16, literal(-9)))
        CFI V2 load(1, XDATA, add(CFA_XSP16, literal(-8)))
        CFI V3 load(1, XDATA, add(CFA_XSP16, literal(-7)))
        CFI R7 load(1, XDATA, add(CFA_XSP16, literal(-6)))
        CFI ?RET_LOW load(1, XDATA, add(CFA_XSP16, literal(-5)))
        CFI ?RET_HIGH load(1, XDATA, add(CFA_XSP16, literal(-4)))
        CFI ?BRET_EXT load(1, XDATA, add(CFA_XSP16, literal(-3)))
        CFI DPL0 load(1, XDATA, add(CFA_XSP16, literal(-2)))
        CFI DPH0 load(1, XDATA, add(CFA_XSP16, literal(-1)))
        CFI CFA_SP SP+0
        CFI CFA_XSP16 add(XSP16, 15)
        CFI Block cfiCond3 Using cfiCommon0
        CFI (cfiCond3) NoFunction
        CFI (cfiCond3) Conditional ??CrossCallReturnLabel_7
        CFI (cfiCond3) R6 load(1, XDATA, add(CFA_XSP16, literal(-12)))
        CFI (cfiCond3) VB load(1, XDATA, add(CFA_XSP16, literal(-11)))
        CFI (cfiCond3) V0 load(1, XDATA, add(CFA_XSP16, literal(-10)))
        CFI (cfiCond3) V1 load(1, XDATA, add(CFA_XSP16, literal(-9)))
        CFI (cfiCond3) V2 load(1, XDATA, add(CFA_XSP16, literal(-8)))
        CFI (cfiCond3) V3 load(1, XDATA, add(CFA_XSP16, literal(-7)))
        CFI (cfiCond3) R7 load(1, XDATA, add(CFA_XSP16, literal(-6)))
        CFI (cfiCond3) ?RET_LOW load(1, XDATA, add(CFA_XSP16, literal(-5)))
        CFI (cfiCond3) ?RET_HIGH load(1, XDATA, add(CFA_XSP16, literal(-4)))
        CFI (cfiCond3) ?BRET_EXT load(1, XDATA, add(CFA_XSP16, literal(-3)))
        CFI (cfiCond3) DPL0 load(1, XDATA, add(CFA_XSP16, literal(-2)))
        CFI (cfiCond3) DPH0 load(1, XDATA, add(CFA_XSP16, literal(-1)))
        CFI (cfiCond3) CFA_SP SP+0
        CFI (cfiCond3) CFA_XSP16 add(XSP16, 15)
        CFI Block cfiCond4 Using cfiCommon0
        CFI (cfiCond4) NoFunction
        CFI (cfiCond4) Conditional ??CrossCallReturnLabel_8
        CFI (cfiCond4) R6 load(1, XDATA, add(CFA_XSP16, literal(-12)))
        CFI (cfiCond4) VB load(1, XDATA, add(CFA_XSP16, literal(-11)))
        CFI (cfiCond4) V0 load(1, XDATA, add(CFA_XSP16, literal(-10)))
        CFI (cfiCond4) V1 load(1, XDATA, add(CFA_XSP16, literal(-9)))
        CFI (cfiCond4) V2 load(1, XDATA, add(CFA_XSP16, literal(-8)))
        CFI (cfiCond4) V3 load(1, XDATA, add(CFA_XSP16, literal(-7)))
        CFI (cfiCond4) R7 load(1, XDATA, add(CFA_XSP16, literal(-6)))
        CFI (cfiCond4) ?RET_LOW load(1, XDATA, add(CFA_XSP16, literal(-5)))
        CFI (cfiCond4) ?RET_HIGH load(1, XDATA, add(CFA_XSP16, literal(-4)))
        CFI (cfiCond4) ?BRET_EXT load(1, XDATA, add(CFA_XSP16, literal(-3)))
        CFI (cfiCond4) DPL0 load(1, XDATA, add(CFA_XSP16, literal(-2)))
        CFI (cfiCond4) DPH0 load(1, XDATA, add(CFA_XSP16, literal(-1)))
        CFI (cfiCond4) CFA_SP SP+0
        CFI (cfiCond4) CFA_XSP16 add(XSP16, 15)
        CFI Block cfiPicker5 Using cfiCommon1
        CFI (cfiPicker5) NoFunction
        CFI (cfiPicker5) Picker
        MOV     R4,#-0x18
        MOV     R5,#0x3
        MOV     R2,#0x1
        MOV     R3,#0x0
        MOV     DPTR,#SampleApp_TaskID
        MOVX    A,@DPTR
        MOV     R1,A
        LCALL   ??osal_start_timerEx?relay
        RET
        CFI EndBlock cfiCond2
        CFI EndBlock cfiCond3
        CFI EndBlock cfiCond4
        CFI EndBlock cfiPicker5

        RSEG BANKED_CODE:CODE:NOROOT(0)
?Subroutine6:
        CFI Block cfiCond6 Using cfiCommon0
        CFI NoFunction
        CFI Conditional ??CrossCallReturnLabel_4
        CFI R6 load(1, XDATA, add(CFA_XSP16, literal(-12)))
        CFI VB load(1, XDATA, add(CFA_XSP16, literal(-11)))
        CFI V0 load(1, XDATA, add(CFA_XSP16, literal(-10)))
        CFI V1 load(1, XDATA, add(CFA_XSP16, literal(-9)))
        CFI V2 load(1, XDATA, add(CFA_XSP16, literal(-8)))
        CFI V3 load(1, XDATA, add(CFA_XSP16, literal(-7)))
        CFI R7 load(1, XDATA, add(CFA_XSP16, literal(-6)))
        CFI ?RET_LOW load(1, XDATA, add(CFA_XSP16, literal(-5)))
        CFI ?RET_HIGH load(1, XDATA, add(CFA_XSP16, literal(-4)))
        CFI ?BRET_EXT load(1, XDATA, add(CFA_XSP16, literal(-3)))
        CFI DPL0 load(1, XDATA, add(CFA_XSP16, literal(-2)))
        CFI DPH0 load(1, XDATA, add(CFA_XSP16, literal(-1)))
        CFI CFA_SP SP+0
        CFI CFA_XSP16 add(XSP16, 15)
        CFI Block cfiCond7 Using cfiCommon0
        CFI (cfiCond7) NoFunction
        CFI (cfiCond7) Conditional ??CrossCallReturnLabel_5
        CFI (cfiCond7) R6 load(1, XDATA, add(CFA_XSP16, literal(-12)))
        CFI (cfiCond7) VB load(1, XDATA, add(CFA_XSP16, literal(-11)))
        CFI (cfiCond7) V0 load(1, XDATA, add(CFA_XSP16, literal(-10)))
        CFI (cfiCond7) V1 load(1, XDATA, add(CFA_XSP16, literal(-9)))
        CFI (cfiCond7) V2 load(1, XDATA, add(CFA_XSP16, literal(-8)))
        CFI (cfiCond7) V3 load(1, XDATA, add(CFA_XSP16, literal(-7)))
        CFI (cfiCond7) R7 load(1, XDATA, add(CFA_XSP16, literal(-6)))
        CFI (cfiCond7) ?RET_LOW load(1, XDATA, add(CFA_XSP16, literal(-5)))
        CFI (cfiCond7) ?RET_HIGH load(1, XDATA, add(CFA_XSP16, literal(-4)))
        CFI (cfiCond7) ?BRET_EXT load(1, XDATA, add(CFA_XSP16, literal(-3)))
        CFI (cfiCond7) DPL0 load(1, XDATA, add(CFA_XSP16, literal(-2)))
        CFI (cfiCond7) DPH0 load(1, XDATA, add(CFA_XSP16, literal(-1)))
        CFI (cfiCond7) CFA_SP SP+0
        CFI (cfiCond7) CFA_XSP16 add(XSP16, 15)
        CFI Block cfiPicker8 Using cfiCommon1
        CFI (cfiPicker8) NoFunction
        CFI (cfiPicker8) Picker
        MOV     DPTR,#SampleApp_TaskID
        MOVX    A,@DPTR
        MOV     R1,A
        LCALL   ??osal_msg_receive?relay
        MOV     ?V0 + 0,R2
        MOV     ?V0 + 1,R3
        RET
        CFI EndBlock cfiCond6
        CFI EndBlock cfiCond7
        CFI EndBlock cfiPicker8
//  395 
//  396 /*********************************************************************
//  397 * Event Generation Functions
//  398 */
//  399 /*********************************************************************
//  400 * @fn      SampleApp_HandleKeys
//  401 *
//  402 * @brief   按键事件处理函数
//  403 *
//  404 * @param   shift - true if in shift/alt.
//  405 * @param   keys - bit field for key events. Valid entries:
//  406 *                 HAL_KEY_SW_2
//  407 *                 HAL_KEY_SW_1
//  408 *
//  409 * @return  none
//  410 */

        RSEG BANKED_CODE:CODE:NOROOT(0)
//  411 void SampleApp_HandleKeys( uint8 shift, uint8 keys )
SampleApp_HandleKeys:
        CFI Block cfiBlock9 Using cfiCommon0
        CFI Function SampleApp_HandleKeys
        CODE
//  412 {
        FUNCALL SampleApp_HandleKeys, SampleApp_SendPeriodicMessage
        LOCFRAME ISTACK, 0, STACK
        LOCFRAME PSTACK, 0, STACK
        LOCFRAME XSTACK, 9, STACK
        LOCFRAME IOVERLAY, 0, STATIC
        LOCFRAME DOVERLAY, 0, STATIC
        ARGFRAME ISTACK, 0, STACK
        ARGFRAME PSTACK, 0, STACK
        ARGFRAME XSTACK, 9, STACK
        ARGFRAME IOVERLAY, 0, STATIC
        ARGFRAME DOVERLAY, 0, STATIC
        FUNCALL SampleApp_HandleKeys, SampleApp_SendPeriodicMessage
        LOCFRAME ISTACK, 0, STACK
        LOCFRAME PSTACK, 0, STACK
        LOCFRAME XSTACK, 9, STACK
        LOCFRAME IOVERLAY, 0, STATIC
        LOCFRAME DOVERLAY, 0, STATIC
        ARGFRAME ISTACK, 0, STACK
        ARGFRAME PSTACK, 0, STACK
        ARGFRAME XSTACK, 9, STACK
        ARGFRAME IOVERLAY, 0, STATIC
        ARGFRAME DOVERLAY, 0, STATIC
        MOV     A,#-0x9
        LCALL   ?BANKED_ENTER_XDATA
        CFI DPH0 load(1, XDATA, add(CFA_XSP16, literal(-1)))
        CFI DPL0 load(1, XDATA, add(CFA_XSP16, literal(-2)))
        CFI ?BRET_EXT load(1, XDATA, add(CFA_XSP16, literal(-3)))
        CFI ?RET_HIGH load(1, XDATA, add(CFA_XSP16, literal(-4)))
        CFI ?RET_LOW load(1, XDATA, add(CFA_XSP16, literal(-5)))
        CFI R7 load(1, XDATA, add(CFA_XSP16, literal(-6)))
        CFI V0 load(1, XDATA, add(CFA_XSP16, literal(-7)))
        CFI VB load(1, XDATA, add(CFA_XSP16, literal(-8)))
        CFI R6 load(1, XDATA, add(CFA_XSP16, literal(-9)))
        CFI CFA_SP SP+0
        CFI CFA_XSP16 add(XSP16, 9)
        ; Saved register size: 9
        ; Auto size: 0
        MOV     A,R2
//  413   (void)shift;  // Intentionally unreferenced parameter
//  414 #ifdef ZDO_COORDINATOR       //按协调器S1才发数据  
//  415   if ( keys & HAL_KEY_SW_6 ){ // 按键S1,以广播方式发数据    
        MOV     C,0xE0 /* A   */.5
        JNC     ??SampleApp_HandleKeys_0
//  416     SampleApp_SendPeriodicMessage(1);
        ; Setup parameters for call to function SampleApp_SendPeriodicMessage
        MOV     R1,#0x1
        SJMP    ??SampleApp_HandleKeys_1
//  417   } else if(keys & HAL_KEY_SW_1) { // 按键S2
??SampleApp_HandleKeys_0:
        MOV     C,0xE0 /* A   */.0
        JNC     ??SampleApp_HandleKeys_2
//  418     SampleApp_SendPeriodicMessage(2);
        ; Setup parameters for call to function SampleApp_SendPeriodicMessage
        MOV     R1,#0x2
??SampleApp_HandleKeys_1:
        LCALL   ??SampleApp_SendPeriodicMessage?relay
//  419   }
//  420 #endif
//  421 
//  422 #ifdef END_DEVICE
//  423   if ( keys & HAL_KEY_SW_6 ){
//  424     AfSendAddrInfo(0x51); // 只用在路由和终端设备上，向协调器上传自身地址，协调器收到此消息后打印出地址
//  425   }
//  426 #endif
//  427 }
??SampleApp_HandleKeys_2:
        MOV     R7,#0x1
        LJMP    ?BANKED_LEAVE_XDATA
        CFI EndBlock cfiBlock9
//  428 
//  429 /*********************************************************************
//  430 * LOCAL FUNCTIONS
//  431 */
//  432 
//  433 /*********************************************************************
//  434 * @fn      SampleApp_MessageMSGCB
//  435 *
//  436 * @brief   Data message processor callback.  This function processes
//  437 *          any incoming data - probably from other devices.  So, based
//  438 *          on cluster ID, perform the intended action.
//  439 *
//  440 * @param   none
//  441 *
//  442 * @return  none
//  443 */
//  444 #define INIT_LEFT_SEC 5
//  445 #ifdef NEED_TEST_DIStANCE
//  446 uint16 recvTestMsgCount = 0;
//  447 #endif

        RSEG BANKED_CODE:CODE:NOROOT(0)
//  448 void SampleApp_MessageMSGCB( afIncomingMSGPacket_t *pkt )
SampleApp_MessageMSGCB:
        CFI Block cfiBlock10 Using cfiCommon0
        CFI Function SampleApp_MessageMSGCB
        CODE
//  449 {
        FUNCALL SampleApp_MessageMSGCB, checkEPInList
        LOCFRAME ISTACK, 0, STACK
        LOCFRAME PSTACK, 0, STACK
        LOCFRAME XSTACK, 10, STACK
        LOCFRAME IOVERLAY, 0, STATIC
        LOCFRAME DOVERLAY, 0, STATIC
        ARGFRAME ISTACK, 0, STACK
        ARGFRAME PSTACK, 0, STACK
        ARGFRAME XSTACK, 10, STACK
        ARGFRAME IOVERLAY, 0, STATIC
        ARGFRAME DOVERLAY, 0, STATIC
        FUNCALL SampleApp_MessageMSGCB, ListLength_L
        LOCFRAME ISTACK, 0, STACK
        LOCFRAME PSTACK, 0, STACK
        LOCFRAME XSTACK, 10, STACK
        LOCFRAME IOVERLAY, 0, STATIC
        LOCFRAME DOVERLAY, 0, STATIC
        ARGFRAME ISTACK, 0, STACK
        ARGFRAME PSTACK, 0, STACK
        ARGFRAME XSTACK, 10, STACK
        ARGFRAME IOVERLAY, 0, STATIC
        ARGFRAME DOVERLAY, 0, STATIC
        FUNCALL SampleApp_MessageMSGCB, ListInsert_L
        LOCFRAME ISTACK, 0, STACK
        LOCFRAME PSTACK, 0, STACK
        LOCFRAME XSTACK, 14, STACK
        LOCFRAME IOVERLAY, 0, STATIC
        LOCFRAME DOVERLAY, 0, STATIC
        ARGFRAME ISTACK, 0, STACK
        ARGFRAME PSTACK, 0, STACK
        ARGFRAME XSTACK, 14, STACK
        ARGFRAME IOVERLAY, 0, STATIC
        ARGFRAME DOVERLAY, 0, STATIC
        FUNCALL SampleApp_MessageMSGCB, myprintf
        LOCFRAME ISTACK, 0, STACK
        LOCFRAME PSTACK, 0, STACK
        LOCFRAME XSTACK, 10, STACK
        LOCFRAME IOVERLAY, 0, STATIC
        LOCFRAME DOVERLAY, 0, STATIC
        ARGFRAME ISTACK, 0, STACK
        ARGFRAME PSTACK, 0, STACK
        ARGFRAME XSTACK, 10, STACK
        ARGFRAME IOVERLAY, 0, STATIC
        ARGFRAME DOVERLAY, 0, STATIC
        FUNCALL SampleApp_MessageMSGCB, updateListEleStatus
        LOCFRAME ISTACK, 0, STACK
        LOCFRAME PSTACK, 0, STACK
        LOCFRAME XSTACK, 12, STACK
        LOCFRAME IOVERLAY, 0, STATIC
        LOCFRAME DOVERLAY, 0, STATIC
        ARGFRAME ISTACK, 0, STACK
        ARGFRAME PSTACK, 0, STACK
        ARGFRAME XSTACK, 12, STACK
        ARGFRAME IOVERLAY, 0, STATIC
        ARGFRAME DOVERLAY, 0, STATIC
        FUNCALL SampleApp_MessageMSGCB, mySendByteBuf
        LOCFRAME ISTACK, 0, STACK
        LOCFRAME PSTACK, 0, STACK
        LOCFRAME XSTACK, 10, STACK
        LOCFRAME IOVERLAY, 0, STATIC
        LOCFRAME DOVERLAY, 0, STATIC
        ARGFRAME ISTACK, 0, STACK
        ARGFRAME PSTACK, 0, STACK
        ARGFRAME XSTACK, 10, STACK
        ARGFRAME IOVERLAY, 0, STATIC
        ARGFRAME DOVERLAY, 0, STATIC
        FUNCALL SampleApp_MessageMSGCB, printAddrInfoHex
        LOCFRAME ISTACK, 0, STACK
        LOCFRAME PSTACK, 0, STACK
        LOCFRAME XSTACK, 10, STACK
        LOCFRAME IOVERLAY, 0, STATIC
        LOCFRAME DOVERLAY, 0, STATIC
        ARGFRAME ISTACK, 0, STACK
        ARGFRAME PSTACK, 0, STACK
        ARGFRAME XSTACK, 10, STACK
        ARGFRAME IOVERLAY, 0, STATIC
        ARGFRAME DOVERLAY, 0, STATIC
        FUNCALL SampleApp_MessageMSGCB, mySendByteBuf
        LOCFRAME ISTACK, 0, STACK
        LOCFRAME PSTACK, 0, STACK
        LOCFRAME XSTACK, 10, STACK
        LOCFRAME IOVERLAY, 0, STATIC
        LOCFRAME DOVERLAY, 0, STATIC
        ARGFRAME ISTACK, 0, STACK
        ARGFRAME PSTACK, 0, STACK
        ARGFRAME XSTACK, 10, STACK
        ARGFRAME IOVERLAY, 0, STATIC
        ARGFRAME DOVERLAY, 0, STATIC
        MOV     A,#-0xa
        LCALL   ?BANKED_ENTER_XDATA
        CFI DPH0 load(1, XDATA, add(CFA_XSP16, literal(-1)))
        CFI DPL0 load(1, XDATA, add(CFA_XSP16, literal(-2)))
        CFI ?BRET_EXT load(1, XDATA, add(CFA_XSP16, literal(-3)))
        CFI ?RET_HIGH load(1, XDATA, add(CFA_XSP16, literal(-4)))
        CFI ?RET_LOW load(1, XDATA, add(CFA_XSP16, literal(-5)))
        CFI R7 load(1, XDATA, add(CFA_XSP16, literal(-6)))
        CFI V1 load(1, XDATA, add(CFA_XSP16, literal(-7)))
        CFI V0 load(1, XDATA, add(CFA_XSP16, literal(-8)))
        CFI VB load(1, XDATA, add(CFA_XSP16, literal(-9)))
        CFI R6 load(1, XDATA, add(CFA_XSP16, literal(-10)))
        CFI CFA_SP SP+0
        CFI CFA_XSP16 add(XSP16, 10)
        ; Saved register size: 10
        ; Auto size: 0
        MOV     A,R2
        MOV     R6,A
        MOV     A,R3
        MOV     R7,A
//  450 #ifndef ROUTER_EB  
//  451   uint8 data;
//  452   uint8 cmd;
//  453 #endif  
//  454 #ifdef ZDO_COORDINATOR  
//  455   int8 ret = 0;
//  456 #endif  
//  457   
//  458   switch ( pkt->clusterId )
        MOV     DPL,R6
        MOV     DPH,R7
        INC     DPTR
        INC     DPTR
        INC     DPTR
        INC     DPTR
        MOVX    A,@DPTR
        XRL     A,#0x1
        JNZ     ??SampleApp_MessageMSGCB_0
        INC     DPTR
        MOVX    A,@DPTR
??SampleApp_MessageMSGCB_0:
        JZ      $+5
        LJMP    ??SampleApp_MessageMSGCB_1 & 0xFFFF
//  459   {    
//  460   case SAMPLEAPP_PERIODIC_CLUSTERID: // 协调器在发送数据的时候指定的此消息对应的命令字，即表示哪种类型的控制命令
//  461 //协调器接收到终端的无线数据 
//  462 #ifdef ZDO_COORDINATOR
//  463     data = pkt->cmd.Data[0];
//  464     cmd = pkt->cmd.Data[1];
        MOV     A,R6
        ADD     A,#0x22
        MOV     R0,A
        MOV     A,R7
        ADDC    A,#0x0
        MOV     R1,A
        MOV     ?V0 + 0,R0
        MOV     ?V0 + 1,R1
        MOV     DPL,R0
        MOV     DPH,A
        MOVX    A,@DPTR
        MOV     R0,A
        INC     DPTR
        MOVX    A,@DPTR
        MOV     R1,A
        MOV     DPL,R0
        MOV     DPH,R1
        INC     DPTR
        MOVX    A,@DPTR
        MOV     R2,A
//  465     if(data == '#') {
        MOV     DPL,R0
        MOV     DPH,R1
        MOVX    A,@DPTR
        XRL     A,#0x23
        JZ      $+5
        LJMP    ??SampleApp_MessageMSGCB_1 & 0xFFFF
//  466       if(cmd == 0x71 && pkt->cmd.Data[12] == '@') { // 接收到终端上传的短地址和IEEE地址
        MOV     A,#0x71
        XRL     A,R2
        JZ      $+5
        LJMP    ??SampleApp_MessageMSGCB_2 & 0xFFFF
        LCALL   ?Subroutine3 & 0xFFFF
??CrossCallReturnLabel_0:
        JZ      $+5
        LJMP    ??SampleApp_MessageMSGCB_1 & 0xFFFF
//  467         ret = checkEPInList(LL, pkt->cmd.Data + 4); // 使用IEEE地址检查终端是否已经在链表中
        ; Setup parameters for call to function checkEPInList
        LCALL   ?Subroutine9 & 0xFFFF
??CrossCallReturnLabel_11:
        MOVX    A,@DPTR
        ADD     A,#0x4
        MOV     R4,A
        INC     DPTR
        MOVX    A,@DPTR
        LCALL   ?Subroutine5 & 0xFFFF
??CrossCallReturnLabel_22:
        LCALL   ??checkEPInList?relay
        MOV     A,R2
        MOV     R1,A
//  468         if(ret == -1) { // 如果当前终端没有在列表中        
        MOV     A,#-0x1
        XRL     A,R1
        JNZ     ??SampleApp_MessageMSGCB_3
//  469           ListInsert_L(LL, ListLength_L(LL)+1, pkt->cmd.Data[2], pkt->cmd.Data[3], &(pkt->cmd.Data[4]), INIT_LEFT_SEC); // 添加一个线性列表元素到链表尾部 
        ; Setup parameters for call to function ListLength_L
        LCALL   ??Subroutine13_0 & 0xFFFF
??CrossCallReturnLabel_19:
        LCALL   ??ListLength_L?relay
        MOV     ?V0 + 0,R2
        MOV     ?V0 + 1,R3
        MOV     R4,?V0 + 0
        MOV     R5,?V0 + 1
        MOV     A,R6
        ADD     A,#0x22
        MOV     ?V0 + 0,A
        MOV     A,R7
        ADDC    A,#0x0
        MOV     DPL,?V0 + 0
        MOV     DPH,A
        MOVX    A,@DPTR
        MOV     R0,A
        INC     DPTR
        MOVX    A,@DPTR
        MOV     R1,A
        MOV     A,R0
        MOV     R2,A
        MOV     A,R1
        MOV     R3,A
        ; Setup parameters for call to function ListInsert_L
        MOV     ?V0 + 0,#0x5
        MOV     R0,#?V0 + 0
        LCALL   ?PUSH_XSTACK_I_ONE
        CFI CFA_XSP16 add(XSP16, 11)
        MOV     A,R2
        ADD     A,#0x4
        MOV     ?V0 + 0,A
        MOV     A,R3
        ADDC    A,#0x0
        MOV     ?V0 + 1,A
        MOV     R0,#?V0 + 0
        LCALL   ?PUSH_XSTACK_I_TWO
        CFI CFA_XSP16 add(XSP16, 13)
        MOV     DPL,R2
        MOV     DPH,R3
        INC     DPTR
        INC     DPTR
        INC     DPTR
        MOVX    A,@DPTR
        MOV     ?V0 + 0,A
        MOV     R0,#?V0 + 0
        LCALL   ?PUSH_XSTACK_I_ONE
        CFI CFA_XSP16 add(XSP16, 14)
        MOV     DPL,R2
        MOV     DPH,R3
        INC     DPTR
        INC     DPTR
        MOVX    A,@DPTR
        MOV     R1,A
        MOV     A,R4
        ADD     A,#0x1
        INC     R4
        MOV     A,R5
        LCALL   ?Subroutine5 & 0xFFFF
??CrossCallReturnLabel_23:
        LCALL   ??ListInsert_L?relay
        MOV     A,#0x4
        LCALL   ?DEALLOC_XSTACK8
        CFI CFA_XSP16 add(XSP16, 10)
//  470           myprintf("Insert new EP in list\n");
        ; Setup parameters for call to function myprintf
        MOV     R2,#`?<Constant "Insert new EP in list\\n">` & 0xff
        MOV     R3,#(`?<Constant "Insert new EP in list\\n">` >> 8) & 0xff
        LCALL   ??myprintf?relay
        SJMP    ??SampleApp_MessageMSGCB_1
//  471         } else { // 更新终端所在节点的在线时长，标记为在线状态
//  472           updateListEleStatus(LL, ret, INIT_LEFT_SEC);
??SampleApp_MessageMSGCB_3:
        ; Setup parameters for call to function updateListEleStatus
        MOV     ?V0 + 0,#0x5
        MOV     ?V0 + 1,#0x0
        MOV     R0,#?V0 + 0
        LCALL   ?PUSH_XSTACK_I_TWO
        CFI CFA_XSP16 add(XSP16, 12)
        MOV     A,R1
        MOV     R4,A
        RLC     A
        SUBB    A,0xE0 /* A   */
        LCALL   ??Subroutine12_0 & 0xFFFF
//  473           // myprintf("Already In List, update()\n");
//  474         }
//  475         // myprintf("length = %d\n", ListLength_L(LL));
//  476       } else if(cmd == 0x72 && pkt->cmd.Data[10] == '@') { // 收到终端回复的确认收到投币命令
??CrossCallReturnLabel_21:
        LCALL   ??updateListEleStatus?relay
        MOV     A,#0x2
        LCALL   ?DEALLOC_XSTACK8
        CFI CFA_XSP16 add(XSP16, 10)
        SJMP    ??SampleApp_MessageMSGCB_1
??SampleApp_MessageMSGCB_2:
        MOV     A,#0x72
        XRL     A,R2
        JNZ     ??SampleApp_MessageMSGCB_4
        LCALL   ?Subroutine9 & 0xFFFF
??CrossCallReturnLabel_12:
        INC     DPTR
        MOVX    A,@DPTR
        MOV     DPH,A
        MOV     DPL,R0
        INC     DPTR
        INC     DPTR
        INC     DPTR
        INC     DPTR
        INC     DPTR
        INC     DPTR
        INC     DPTR
        INC     DPTR
        INC     DPTR
        INC     DPTR
        MOVX    A,@DPTR
        XRL     A,#0x40
        JNZ     ??SampleApp_MessageMSGCB_1
//  477         mySendByteBuf(pkt->cmd.Data, 11); // 转发回复消息到上位机        
        ; Setup parameters for call to function mySendByteBuf
        MOV     R4,#0xb
        MOV     R5,#0x0
        LCALL   ?Subroutine9 & 0xFFFF
//  478       } else if(cmd == 0x51 && pkt->cmd.Data[12] == '@') { // 终端按键S1上传的长短地址信息
??CrossCallReturnLabel_13:
        SJMP    ??SampleApp_MessageMSGCB_5
??SampleApp_MessageMSGCB_4:
        MOV     A,#0x51
        XRL     A,R2
        JNZ     ??SampleApp_MessageMSGCB_1
        LCALL   ?Subroutine3 & 0xFFFF
??CrossCallReturnLabel_1:
        JNZ     ??SampleApp_MessageMSGCB_1
//  479         printAddrInfoHex(pkt->cmd.Data+2, 10);
        ; Setup parameters for call to function printAddrInfoHex
        MOV     R1,#0xa
        MOV     DPL,?V0 + 0
        MOV     DPH,?V0 + 1
        MOVX    A,@DPTR
        ADD     A,#0x2
        MOV     R2,A
        INC     DPTR
        MOVX    A,@DPTR
        ADDC    A,#0x0
        MOV     R3,A
        LCALL   ??printAddrInfoHex?relay
//  480         mySendByteBuf(pkt->cmd.Data, 13);        
        ; Setup parameters for call to function mySendByteBuf
        MOV     R4,#0xd
        MOV     R5,#0x0
        MOV     DPL,?V0 + 0
        MOV     DPH,?V0 + 1
//  481       }
//  482     }
//  483 #endif    
//  484 #ifdef END_DEVICE //终端接收数据处理
//  485     data = pkt->cmd.Data[0];
//  486     cmd = pkt->cmd.Data[1];
//  487     if(data == '#')
//  488     {
//  489       if(cmd == 0x81 && pkt->cmd.Data[3] == '@') { // 收到投递指定币数的消息
//  490         NeedCoinDelivered = pkt->cmd.Data[2]; // 开始模拟投币信号        
//  491         SIMULATE_PIN = 1; // 初始高电平
//  492         osal_start_timerEx( SampleApp_TaskID, SAMPLEAPP_SIMULATE_COIN_MSG_EVT, COIN_SIGNAL_HALF_TIME); // 产生定时器事件                
//  493         AfReplyGetCoinCmd();  // 回复已经收到投币命令0x72
//  494       } else if(cmd == 0x31 && pkt->cmd.Data[3] == '@') { // LED2闪灯测试命令
//  495         HalLedBlink(HAL_LED_1, 1, 50, 500);
//  496 #ifdef NEED_TEST_DIStANCE
//  497         recvTestMsgCount++;
//  498         HalLcdWriteString("Recv:", HAL_LCD_LINE_5);
//  499         convertHexToStr(recvTestMsgCount, HAL_LCD_LINE_6);
//  500 #endif        
//  501       }
//  502     }        
//  503 #endif    
//  504     break;
//  505     
//  506   default:
//  507     break;
//  508   }
??SampleApp_MessageMSGCB_5:
        LCALL   ??Subroutine14_0 & 0xFFFF
??CrossCallReturnLabel_18:
        LCALL   ??mySendByteBuf?relay
        CFI EndBlock cfiBlock10
//  509 }
??SampleApp_MessageMSGCB_1:
        REQUIRE ?Subroutine1
        ; // Fall through to label ?Subroutine1

        RSEG BANKED_CODE:CODE:NOROOT(0)
?Subroutine1:
        CFI Block cfiBlock11 Using cfiCommon0
        CFI NoFunction
        CFI CFA_SP SP+0
        CFI CFA_XSP16 add(XSP16, 10)
        CFI VB load(1, XDATA, add(CFA_XSP16, literal(-9)))
        CFI DPL0 load(1, XDATA, add(CFA_XSP16, literal(-2)))
        CFI DPH0 load(1, XDATA, add(CFA_XSP16, literal(-1)))
        CFI R6 load(1, XDATA, add(CFA_XSP16, literal(-10)))
        CFI R7 load(1, XDATA, add(CFA_XSP16, literal(-6)))
        CFI V0 load(1, XDATA, add(CFA_XSP16, literal(-8)))
        CFI V1 load(1, XDATA, add(CFA_XSP16, literal(-7)))
        CFI ?BRET_EXT load(1, XDATA, add(CFA_XSP16, literal(-3)))
        CFI ?RET_HIGH load(1, XDATA, add(CFA_XSP16, literal(-4)))
        CFI ?RET_LOW load(1, XDATA, add(CFA_XSP16, literal(-5)))
        MOV     R7,#0x2
        LJMP    ?BANKED_LEAVE_XDATA
        CFI EndBlock cfiBlock11

        RSEG BANKED_CODE:CODE:NOROOT(0)
?Subroutine9:
        CFI Block cfiCond12 Using cfiCommon0
        CFI NoFunction
        CFI Conditional ??CrossCallReturnLabel_11
        CFI R6 load(1, XDATA, add(CFA_XSP16, literal(-10)))
        CFI VB load(1, XDATA, add(CFA_XSP16, literal(-9)))
        CFI V0 load(1, XDATA, add(CFA_XSP16, literal(-8)))
        CFI V1 load(1, XDATA, add(CFA_XSP16, literal(-7)))
        CFI R7 load(1, XDATA, add(CFA_XSP16, literal(-6)))
        CFI ?RET_LOW load(1, XDATA, add(CFA_XSP16, literal(-5)))
        CFI ?RET_HIGH load(1, XDATA, add(CFA_XSP16, literal(-4)))
        CFI ?BRET_EXT load(1, XDATA, add(CFA_XSP16, literal(-3)))
        CFI DPL0 load(1, XDATA, add(CFA_XSP16, literal(-2)))
        CFI DPH0 load(1, XDATA, add(CFA_XSP16, literal(-1)))
        CFI CFA_SP SP+0
        CFI CFA_XSP16 add(XSP16, 10)
        CFI Block cfiCond13 Using cfiCommon0
        CFI (cfiCond13) NoFunction
        CFI (cfiCond13) Conditional ??CrossCallReturnLabel_12
        CFI (cfiCond13) R6 load(1, XDATA, add(CFA_XSP16, literal(-10)))
        CFI (cfiCond13) VB load(1, XDATA, add(CFA_XSP16, literal(-9)))
        CFI (cfiCond13) V0 load(1, XDATA, add(CFA_XSP16, literal(-8)))
        CFI (cfiCond13) V1 load(1, XDATA, add(CFA_XSP16, literal(-7)))
        CFI (cfiCond13) R7 load(1, XDATA, add(CFA_XSP16, literal(-6)))
        CFI (cfiCond13) ?RET_LOW load(1, XDATA, add(CFA_XSP16, literal(-5)))
        CFI (cfiCond13) ?RET_HIGH load(1, XDATA, add(CFA_XSP16, literal(-4)))
        CFI (cfiCond13) ?BRET_EXT load(1, XDATA, add(CFA_XSP16, literal(-3)))
        CFI (cfiCond13) DPL0 load(1, XDATA, add(CFA_XSP16, literal(-2)))
        CFI (cfiCond13) DPH0 load(1, XDATA, add(CFA_XSP16, literal(-1)))
        CFI (cfiCond13) CFA_SP SP+0
        CFI (cfiCond13) CFA_XSP16 add(XSP16, 10)
        CFI Block cfiCond14 Using cfiCommon0
        CFI (cfiCond14) NoFunction
        CFI (cfiCond14) Conditional ??CrossCallReturnLabel_13
        CFI (cfiCond14) R6 load(1, XDATA, add(CFA_XSP16, literal(-10)))
        CFI (cfiCond14) VB load(1, XDATA, add(CFA_XSP16, literal(-9)))
        CFI (cfiCond14) V0 load(1, XDATA, add(CFA_XSP16, literal(-8)))
        CFI (cfiCond14) V1 load(1, XDATA, add(CFA_XSP16, literal(-7)))
        CFI (cfiCond14) R7 load(1, XDATA, add(CFA_XSP16, literal(-6)))
        CFI (cfiCond14) ?RET_LOW load(1, XDATA, add(CFA_XSP16, literal(-5)))
        CFI (cfiCond14) ?RET_HIGH load(1, XDATA, add(CFA_XSP16, literal(-4)))
        CFI (cfiCond14) ?BRET_EXT load(1, XDATA, add(CFA_XSP16, literal(-3)))
        CFI (cfiCond14) DPL0 load(1, XDATA, add(CFA_XSP16, literal(-2)))
        CFI (cfiCond14) DPH0 load(1, XDATA, add(CFA_XSP16, literal(-1)))
        CFI (cfiCond14) CFA_SP SP+0
        CFI (cfiCond14) CFA_XSP16 add(XSP16, 10)
        CFI Block cfiPicker15 Using cfiCommon1
        CFI (cfiPicker15) NoFunction
        CFI (cfiPicker15) Picker
        LCALL   ?Subroutine11 & 0xFFFF
??CrossCallReturnLabel_17:
        RET
        CFI EndBlock cfiCond12
        CFI EndBlock cfiCond13
        CFI EndBlock cfiCond14
        CFI EndBlock cfiPicker15

        RSEG BANKED_CODE:CODE:NOROOT(0)
?Subroutine11:
        CFI Block cfiCond16 Using cfiCommon0
        CFI NoFunction
        CFI Conditional ??CrossCallReturnLabel_17, ??CrossCallReturnLabel_11
        CFI R6 load(1, XDATA, add(CFA_XSP16, literal(-10)))
        CFI VB load(1, XDATA, add(CFA_XSP16, literal(-9)))
        CFI V0 load(1, XDATA, add(CFA_XSP16, literal(-8)))
        CFI V1 load(1, XDATA, add(CFA_XSP16, literal(-7)))
        CFI R7 load(1, XDATA, add(CFA_XSP16, literal(-6)))
        CFI ?RET_LOW load(1, XDATA, add(CFA_XSP16, literal(-5)))
        CFI ?RET_HIGH load(1, XDATA, add(CFA_XSP16, literal(-4)))
        CFI ?BRET_EXT load(1, XDATA, add(CFA_XSP16, literal(-3)))
        CFI DPL0 load(1, XDATA, add(CFA_XSP16, literal(-2)))
        CFI DPH0 load(1, XDATA, add(CFA_XSP16, literal(-1)))
        CFI CFA_SP SP+0
        CFI CFA_XSP16 add(XSP16, 10)
        CFI Block cfiCond17 Using cfiCommon0
        CFI (cfiCond17) NoFunction
        CFI (cfiCond17) Conditional ??CrossCallReturnLabel_17, ??CrossCallReturnLabel_12
        CFI (cfiCond17) R6 load(1, XDATA, add(CFA_XSP16, literal(-10)))
        CFI (cfiCond17) VB load(1, XDATA, add(CFA_XSP16, literal(-9)))
        CFI (cfiCond17) V0 load(1, XDATA, add(CFA_XSP16, literal(-8)))
        CFI (cfiCond17) V1 load(1, XDATA, add(CFA_XSP16, literal(-7)))
        CFI (cfiCond17) R7 load(1, XDATA, add(CFA_XSP16, literal(-6)))
        CFI (cfiCond17) ?RET_LOW load(1, XDATA, add(CFA_XSP16, literal(-5)))
        CFI (cfiCond17) ?RET_HIGH load(1, XDATA, add(CFA_XSP16, literal(-4)))
        CFI (cfiCond17) ?BRET_EXT load(1, XDATA, add(CFA_XSP16, literal(-3)))
        CFI (cfiCond17) DPL0 load(1, XDATA, add(CFA_XSP16, literal(-2)))
        CFI (cfiCond17) DPH0 load(1, XDATA, add(CFA_XSP16, literal(-1)))
        CFI (cfiCond17) CFA_SP SP+0
        CFI (cfiCond17) CFA_XSP16 add(XSP16, 10)
        CFI Block cfiCond18 Using cfiCommon0
        CFI (cfiCond18) NoFunction
        CFI (cfiCond18) Conditional ??CrossCallReturnLabel_17, ??CrossCallReturnLabel_13
        CFI (cfiCond18) R6 load(1, XDATA, add(CFA_XSP16, literal(-10)))
        CFI (cfiCond18) VB load(1, XDATA, add(CFA_XSP16, literal(-9)))
        CFI (cfiCond18) V0 load(1, XDATA, add(CFA_XSP16, literal(-8)))
        CFI (cfiCond18) V1 load(1, XDATA, add(CFA_XSP16, literal(-7)))
        CFI (cfiCond18) R7 load(1, XDATA, add(CFA_XSP16, literal(-6)))
        CFI (cfiCond18) ?RET_LOW load(1, XDATA, add(CFA_XSP16, literal(-5)))
        CFI (cfiCond18) ?RET_HIGH load(1, XDATA, add(CFA_XSP16, literal(-4)))
        CFI (cfiCond18) ?BRET_EXT load(1, XDATA, add(CFA_XSP16, literal(-3)))
        CFI (cfiCond18) DPL0 load(1, XDATA, add(CFA_XSP16, literal(-2)))
        CFI (cfiCond18) DPH0 load(1, XDATA, add(CFA_XSP16, literal(-1)))
        CFI (cfiCond18) CFA_SP SP+0
        CFI (cfiCond18) CFA_XSP16 add(XSP16, 10)
        CFI Block cfiCond19 Using cfiCommon0
        CFI (cfiCond19) NoFunction
        CFI (cfiCond19) Conditional ??CrossCallReturnLabel_16, ??CrossCallReturnLabel_0
        CFI (cfiCond19) R6 load(1, XDATA, add(CFA_XSP16, literal(-10)))
        CFI (cfiCond19) VB load(1, XDATA, add(CFA_XSP16, literal(-9)))
        CFI (cfiCond19) V0 load(1, XDATA, add(CFA_XSP16, literal(-8)))
        CFI (cfiCond19) V1 load(1, XDATA, add(CFA_XSP16, literal(-7)))
        CFI (cfiCond19) R7 load(1, XDATA, add(CFA_XSP16, literal(-6)))
        CFI (cfiCond19) ?RET_LOW load(1, XDATA, add(CFA_XSP16, literal(-5)))
        CFI (cfiCond19) ?RET_HIGH load(1, XDATA, add(CFA_XSP16, literal(-4)))
        CFI (cfiCond19) ?BRET_EXT load(1, XDATA, add(CFA_XSP16, literal(-3)))
        CFI (cfiCond19) DPL0 load(1, XDATA, add(CFA_XSP16, literal(-2)))
        CFI (cfiCond19) DPH0 load(1, XDATA, add(CFA_XSP16, literal(-1)))
        CFI (cfiCond19) CFA_SP SP+0
        CFI (cfiCond19) CFA_XSP16 add(XSP16, 10)
        CFI Block cfiCond20 Using cfiCommon0
        CFI (cfiCond20) NoFunction
        CFI (cfiCond20) Conditional ??CrossCallReturnLabel_16, ??CrossCallReturnLabel_1
        CFI (cfiCond20) R6 load(1, XDATA, add(CFA_XSP16, literal(-10)))
        CFI (cfiCond20) VB load(1, XDATA, add(CFA_XSP16, literal(-9)))
        CFI (cfiCond20) V0 load(1, XDATA, add(CFA_XSP16, literal(-8)))
        CFI (cfiCond20) V1 load(1, XDATA, add(CFA_XSP16, literal(-7)))
        CFI (cfiCond20) R7 load(1, XDATA, add(CFA_XSP16, literal(-6)))
        CFI (cfiCond20) ?RET_LOW load(1, XDATA, add(CFA_XSP16, literal(-5)))
        CFI (cfiCond20) ?RET_HIGH load(1, XDATA, add(CFA_XSP16, literal(-4)))
        CFI (cfiCond20) ?BRET_EXT load(1, XDATA, add(CFA_XSP16, literal(-3)))
        CFI (cfiCond20) DPL0 load(1, XDATA, add(CFA_XSP16, literal(-2)))
        CFI (cfiCond20) DPH0 load(1, XDATA, add(CFA_XSP16, literal(-1)))
        CFI (cfiCond20) CFA_SP SP+0
        CFI (cfiCond20) CFA_XSP16 add(XSP16, 10)
        CFI Block cfiPicker21 Using cfiCommon1
        CFI (cfiPicker21) NoFunction
        CFI (cfiPicker21) Picker
        MOV     A,R6
        ADD     A,#0x22
        MOV     DPL,A
        MOV     A,R7
        ADDC    A,#0x0
        MOV     DPH,A
        RET
        CFI EndBlock cfiCond16
        CFI EndBlock cfiCond17
        CFI EndBlock cfiCond18
        CFI EndBlock cfiCond19
        CFI EndBlock cfiCond20
        CFI EndBlock cfiPicker21

        RSEG BANKED_CODE:CODE:NOROOT(0)
?Subroutine3:
        CFI Block cfiCond22 Using cfiCommon0
        CFI NoFunction
        CFI Conditional ??CrossCallReturnLabel_0
        CFI R6 load(1, XDATA, add(CFA_XSP16, literal(-10)))
        CFI VB load(1, XDATA, add(CFA_XSP16, literal(-9)))
        CFI V0 load(1, XDATA, add(CFA_XSP16, literal(-8)))
        CFI V1 load(1, XDATA, add(CFA_XSP16, literal(-7)))
        CFI R7 load(1, XDATA, add(CFA_XSP16, literal(-6)))
        CFI ?RET_LOW load(1, XDATA, add(CFA_XSP16, literal(-5)))
        CFI ?RET_HIGH load(1, XDATA, add(CFA_XSP16, literal(-4)))
        CFI ?BRET_EXT load(1, XDATA, add(CFA_XSP16, literal(-3)))
        CFI DPL0 load(1, XDATA, add(CFA_XSP16, literal(-2)))
        CFI DPH0 load(1, XDATA, add(CFA_XSP16, literal(-1)))
        CFI CFA_SP SP+0
        CFI CFA_XSP16 add(XSP16, 10)
        CFI Block cfiCond23 Using cfiCommon0
        CFI (cfiCond23) NoFunction
        CFI (cfiCond23) Conditional ??CrossCallReturnLabel_1
        CFI (cfiCond23) R6 load(1, XDATA, add(CFA_XSP16, literal(-10)))
        CFI (cfiCond23) VB load(1, XDATA, add(CFA_XSP16, literal(-9)))
        CFI (cfiCond23) V0 load(1, XDATA, add(CFA_XSP16, literal(-8)))
        CFI (cfiCond23) V1 load(1, XDATA, add(CFA_XSP16, literal(-7)))
        CFI (cfiCond23) R7 load(1, XDATA, add(CFA_XSP16, literal(-6)))
        CFI (cfiCond23) ?RET_LOW load(1, XDATA, add(CFA_XSP16, literal(-5)))
        CFI (cfiCond23) ?RET_HIGH load(1, XDATA, add(CFA_XSP16, literal(-4)))
        CFI (cfiCond23) ?BRET_EXT load(1, XDATA, add(CFA_XSP16, literal(-3)))
        CFI (cfiCond23) DPL0 load(1, XDATA, add(CFA_XSP16, literal(-2)))
        CFI (cfiCond23) DPH0 load(1, XDATA, add(CFA_XSP16, literal(-1)))
        CFI (cfiCond23) CFA_SP SP+0
        CFI (cfiCond23) CFA_XSP16 add(XSP16, 10)
        CFI Block cfiPicker24 Using cfiCommon1
        CFI (cfiPicker24) NoFunction
        CFI (cfiPicker24) Picker
        LCALL   ?Subroutine11 & 0xFFFF
??CrossCallReturnLabel_16:
        MOVX    A,@DPTR
        ADD     A,#0xc
        MOV     R0,A
        INC     DPTR
        MOVX    A,@DPTR
        ADDC    A,#0x0
        MOV     R1,A
        MOV     DPL,R0
        MOV     DPH,R1
        MOVX    A,@DPTR
        XRL     A,#0x40
        RET
        CFI EndBlock cfiCond22
        CFI EndBlock cfiCond23
        CFI EndBlock cfiPicker24
//  510 
//  511 /**
//  512 * 协调器向终端发送广播类型消息
//  513 */

        RSEG BANKED_CODE:CODE:NOROOT(0)
//  514 void SampleApp_SendPeriodicMessage( int8 key )
SampleApp_SendPeriodicMessage:
        CFI Block cfiBlock25 Using cfiCommon0
        CFI Function SampleApp_SendPeriodicMessage
        CODE
//  515 {
        FUNCALL SampleApp_SendPeriodicMessage, AF_DataRequest
        LOCFRAME ISTACK, 0, STACK
        LOCFRAME PSTACK, 0, STACK
        LOCFRAME XSTACK, 23, STACK
        LOCFRAME IOVERLAY, 0, STATIC
        LOCFRAME DOVERLAY, 0, STATIC
        ARGFRAME ISTACK, 0, STACK
        ARGFRAME PSTACK, 0, STACK
        ARGFRAME XSTACK, 23, STACK
        ARGFRAME IOVERLAY, 0, STATIC
        ARGFRAME DOVERLAY, 0, STATIC
        FUNCALL SampleApp_SendPeriodicMessage, HalLedBlink
        LOCFRAME ISTACK, 0, STACK
        LOCFRAME PSTACK, 0, STACK
        LOCFRAME XSTACK, 14, STACK
        LOCFRAME IOVERLAY, 0, STATIC
        LOCFRAME DOVERLAY, 0, STATIC
        ARGFRAME ISTACK, 0, STACK
        ARGFRAME PSTACK, 0, STACK
        ARGFRAME XSTACK, 14, STACK
        ARGFRAME IOVERLAY, 0, STATIC
        ARGFRAME DOVERLAY, 0, STATIC
        MOV     A,#-0xa
        LCALL   ?BANKED_ENTER_XDATA
        CFI DPH0 load(1, XDATA, add(CFA_XSP16, literal(-1)))
        CFI DPL0 load(1, XDATA, add(CFA_XSP16, literal(-2)))
        CFI ?BRET_EXT load(1, XDATA, add(CFA_XSP16, literal(-3)))
        CFI ?RET_HIGH load(1, XDATA, add(CFA_XSP16, literal(-4)))
        CFI ?RET_LOW load(1, XDATA, add(CFA_XSP16, literal(-5)))
        CFI R7 load(1, XDATA, add(CFA_XSP16, literal(-6)))
        CFI V1 load(1, XDATA, add(CFA_XSP16, literal(-7)))
        CFI V0 load(1, XDATA, add(CFA_XSP16, literal(-8)))
        CFI VB load(1, XDATA, add(CFA_XSP16, literal(-9)))
        CFI R6 load(1, XDATA, add(CFA_XSP16, literal(-10)))
        CFI CFA_SP SP+0
        CFI CFA_XSP16 add(XSP16, 10)
        ; Saved register size: 10
        ; Auto size: 4
        MOV     A,#-0x4
        LCALL   ?ALLOC_XSTACK8
        CFI CFA_XSP16 add(XSP16, 14)
        MOV     A,R1
        MOV     R6,A
//  516   if(key == 1) { // 按键S1
        MOV     A,#0x1
        XRL     A,R6
        JNZ     ??SampleApp_SendPeriodicMessage_0
//  517     uint8 sendKeyS1Buf[4] = {'#', 0x31, 0, '@'};
        MOV     DPL,?XSP + 0
        MOV     DPH,?XSP + 1
        MOV     R4,DPL
        MOV     R5,DPH
        MOV     DPH,#(`?<Constant {35, 49, 0, 64}>` >> 8) & 0xff
        MOV     DPL,#`?<Constant {35, 49, 0, 64}>` & 0xff
        MOV     A,#0x4
        LCALL   ?MOVE_LONG8_XDATA_XDATA
//  518     
//  519     if ( AF_DataRequest( &SampleApp_Periodic_DstAddr, &SampleApp_epDesc,
//  520                         SAMPLEAPP_PERIODIC_CLUSTERID,
//  521                         4,
//  522                         sendKeyS1Buf,
//  523                         &SampleApp_TransID,
//  524                         AF_DISCV_ROUTE,
//  525                         AF_DEFAULT_RADIUS ) == afStatus_SUCCESS )
        ; Setup parameters for call to function AF_DataRequest
        MOV     ?V0 + 0,#0x1e
        MOV     R0,#?V0 + 0
        LCALL   ?PUSH_XSTACK_I_ONE
        CFI CFA_XSP16 add(XSP16, 15)
        MOV     ?V0 + 0,#SampleApp_TransID & 0xff
        MOV     ?V0 + 1,#(SampleApp_TransID >> 8) & 0xff
        MOV     R0,#?V0 + 0
        LCALL   ?PUSH_XSTACK_I_TWO
        CFI CFA_XSP16 add(XSP16, 17)
        MOV     A,#0x3
        LCALL   ?XSTACK_DISP0_8
        MOV     ?V0 + 0,DPL
        MOV     ?V0 + 1,DPH
        MOV     R0,#?V0 + 0
        LCALL   ?PUSH_XSTACK_I_TWO
        CFI CFA_XSP16 add(XSP16, 19)
        MOV     ?V0 + 0,#0x4
        MOV     ?V0 + 1,#0x0
        MOV     R0,#?V0 + 0
        LCALL   ?PUSH_XSTACK_I_TWO
        CFI CFA_XSP16 add(XSP16, 21)
        MOV     ?V0 + 0,#0x1
        MOV     R0,#?V0 + 0
        LCALL   ?PUSH_XSTACK_I_TWO
        CFI CFA_XSP16 add(XSP16, 23)
        MOV     R1,#0x20
        MOV     R4,#SampleApp_epDesc & 0xff
        MOV     R5,#(SampleApp_epDesc >> 8) & 0xff
        MOV     R2,#SampleApp_Periodic_DstAddr & 0xff
        MOV     R3,#(SampleApp_Periodic_DstAddr >> 8) & 0xff
        LCALL   ??AF_DataRequest?relay
        MOV     A,#0x9
        LCALL   ?DEALLOC_XSTACK8
        CFI CFA_XSP16 add(XSP16, 14)
        MOV     A,R1
        JNZ     ??SampleApp_SendPeriodicMessage_0
//  526     {
//  527       HalLedBlink(HAL_LED_1, 1, 50, 250);
        ; Setup parameters for call to function HalLedBlink
        MOV     R4,#-0x6
        MOV     R5,#0x0
        MOV     R3,#0x32
        MOV     R2,#0x1
        MOV     R1,#0x1
        LCALL   ??HalLedBlink?relay
//  528     }
//  529   } else if(key == 2) { // 按键S2
//  530     // myprintf("press key S2\n");
//  531   }
//  532 }
??SampleApp_SendPeriodicMessage_0:
        MOV     A,#0x4
        LCALL   ?DEALLOC_XSTACK8
        CFI CFA_XSP16 add(XSP16, 10)
        LJMP    ?Subroutine1 & 0xFFFF
        CFI EndBlock cfiBlock25
//  533 
//  534 /**
//  535   协调器心跳功能函数，使用串口向树莓派发送心跳信息
//  536 */
//  537 #ifdef NEED_TEST_DIStANCE
//  538   uint16 totalSendTestCount = 0;
//  539   uint16 sendTestCount = 0;
//  540 #endif  

        RSEG BANKED_CODE:CODE:NOROOT(0)
//  541 void SampleApp_SendHeartBeatMessageCoor(void) {
SampleApp_SendHeartBeatMessageCoor:
        CFI Block cfiBlock26 Using cfiCommon0
        CFI Function SampleApp_SendHeartBeatMessageCoor
        CODE
        FUNCALL SampleApp_SendHeartBeatMessageCoor, mySendByteBuf
        LOCFRAME ISTACK, 2, STACK
        LOCFRAME PSTACK, 0, STACK
        LOCFRAME XSTACK, 3, STACK
        LOCFRAME IOVERLAY, 0, STATIC
        LOCFRAME DOVERLAY, 0, STATIC
        ARGFRAME ISTACK, 2, STACK
        ARGFRAME PSTACK, 0, STACK
        ARGFRAME XSTACK, 3, STACK
        ARGFRAME IOVERLAY, 0, STATIC
        ARGFRAME DOVERLAY, 0, STATIC
        FUNCALL SampleApp_SendHeartBeatMessageCoor, decAllListEPLeftSec
        LOCFRAME ISTACK, 2, STACK
        LOCFRAME PSTACK, 0, STACK
        LOCFRAME XSTACK, 3, STACK
        LOCFRAME IOVERLAY, 0, STATIC
        LOCFRAME DOVERLAY, 0, STATIC
        ARGFRAME ISTACK, 2, STACK
        ARGFRAME PSTACK, 0, STACK
        ARGFRAME XSTACK, 3, STACK
        ARGFRAME IOVERLAY, 0, STATIC
        ARGFRAME DOVERLAY, 0, STATIC
        FUNCALL SampleApp_SendHeartBeatMessageCoor, HalLedBlink
        LOCFRAME ISTACK, 2, STACK
        LOCFRAME PSTACK, 0, STACK
        LOCFRAME XSTACK, 3, STACK
        LOCFRAME IOVERLAY, 0, STATIC
        LOCFRAME DOVERLAY, 0, STATIC
        ARGFRAME ISTACK, 2, STACK
        ARGFRAME PSTACK, 0, STACK
        ARGFRAME XSTACK, 3, STACK
        ARGFRAME IOVERLAY, 0, STATIC
        ARGFRAME DOVERLAY, 0, STATIC
        PUSH    DPL
        CFI DPL0 Frame(CFA_SP, 4)
        CFI CFA_SP SP+-4
        PUSH    DPH
        CFI DPH0 Frame(CFA_SP, 5)
        CFI CFA_SP SP+-5
        ; Saved register size: 2
        ; Auto size: 3
        MOV     A,#-0x3
        LCALL   ?ALLOC_XSTACK8
        CFI CFA_XSP16 add(XSP16, 3)
//  542   // 遍历终端列表，将所有节点剩余时间-1，如果小于0，则置0
//  543   uint8 heartBeatBuf[3] = {'#', 0x46, '@'};
        MOV     DPL,?XSP + 0
        MOV     DPH,?XSP + 1
        MOV     R4,DPL
        MOV     R5,DPH
        MOV     DPH,#(`?<Constant {35, 70, 64}>` >> 8) & 0xff
        MOV     DPL,#`?<Constant {35, 70, 64}>` & 0xff
        MOV     A,#0x3
        LCALL   ?MOVE_LONG8_XDATA_XDATA
//  544   mySendByteBuf(heartBeatBuf, 3);
        ; Setup parameters for call to function mySendByteBuf
        MOV     R4,#0x3
        MOV     R5,A
        MOV     DPL,?XSP + 0
        MOV     DPH,?XSP + 1
        MOV     R2,DPL
        MOV     R3,DPH
        LCALL   ??mySendByteBuf?relay
//  545   
//  546   // 将终端列表中元素在线时长-1，如果检测到超时则将IEEE发送到上位机
//  547   decAllListEPLeftSec(LL); 
        ; Setup parameters for call to function decAllListEPLeftSec
        LCALL   ??Subroutine13_0 & 0xFFFF
??CrossCallReturnLabel_20:
        LCALL   ??decAllListEPLeftSec?relay
//  548   HalLedBlink(HAL_LED_2, 1, 50, 500);
        ; Setup parameters for call to function HalLedBlink
        MOV     R4,#-0xc
        MOV     R5,#0x1
        MOV     R3,#0x32
        MOV     R2,#0x1
        MOV     R1,#0x2
        LCALL   ??HalLedBlink?relay
//  549 #ifdef NEED_TEST_DIStANCE  
//  550   // 发送稳定性测试数据到终端设备
//  551   totalSendTestCount++;
//  552   if(totalSendTestCount % 3 == 0) {
//  553     SampleApp_SendPeriodicMessage(1);
//  554     myprintf("sendTestCount = %d\n", totalSendTestCount); // 串口打印发送的次数
//  555   }
//  556 #endif  
//  557 }
        MOV     A,#0x3
        LCALL   ?DEALLOC_XSTACK8
        CFI EndBlock cfiBlock26
        REQUIRE ?Subroutine2
        ; // Fall through to label ?Subroutine2

        RSEG BANKED_CODE:CODE:NOROOT(0)
?Subroutine2:
        CFI Block cfiBlock27 Using cfiCommon0
        CFI NoFunction
        CFI CFA_SP SP+-5
        CFI DPL0 Frame(CFA_SP, 4)
        CFI DPH0 Frame(CFA_SP, 5)
        POP     DPH
        CFI CFA_SP SP+-4
        CFI DPH0 SameValue
        POP     DPL
        CFI CFA_SP SP+-3
        CFI DPL0 SameValue
        LJMP    ?BRET
        CFI EndBlock cfiBlock27

        RSEG BANKED_CODE:CODE:NOROOT(0)
?Subroutine5:
        CFI Block cfiCond28 Using cfiCommon0
        CFI NoFunction
        CFI Conditional ??CrossCallReturnLabel_22
        CFI R6 load(1, XDATA, add(CFA_XSP16, literal(-10)))
        CFI VB load(1, XDATA, add(CFA_XSP16, literal(-9)))
        CFI V0 load(1, XDATA, add(CFA_XSP16, literal(-8)))
        CFI V1 load(1, XDATA, add(CFA_XSP16, literal(-7)))
        CFI R7 load(1, XDATA, add(CFA_XSP16, literal(-6)))
        CFI ?RET_LOW load(1, XDATA, add(CFA_XSP16, literal(-5)))
        CFI ?RET_HIGH load(1, XDATA, add(CFA_XSP16, literal(-4)))
        CFI ?BRET_EXT load(1, XDATA, add(CFA_XSP16, literal(-3)))
        CFI DPL0 load(1, XDATA, add(CFA_XSP16, literal(-2)))
        CFI DPH0 load(1, XDATA, add(CFA_XSP16, literal(-1)))
        CFI CFA_SP SP+0
        CFI CFA_XSP16 add(XSP16, 10)
        CFI Block cfiCond29 Using cfiCommon0
        CFI (cfiCond29) NoFunction
        CFI (cfiCond29) Conditional ??CrossCallReturnLabel_23
        CFI (cfiCond29) R6 load(1, XDATA, add(CFA_XSP16, literal(-10)))
        CFI (cfiCond29) VB load(1, XDATA, add(CFA_XSP16, literal(-9)))
        CFI (cfiCond29) V0 load(1, XDATA, add(CFA_XSP16, literal(-8)))
        CFI (cfiCond29) V1 load(1, XDATA, add(CFA_XSP16, literal(-7)))
        CFI (cfiCond29) R7 load(1, XDATA, add(CFA_XSP16, literal(-6)))
        CFI (cfiCond29) ?RET_LOW load(1, XDATA, add(CFA_XSP16, literal(-5)))
        CFI (cfiCond29) ?RET_HIGH load(1, XDATA, add(CFA_XSP16, literal(-4)))
        CFI (cfiCond29) ?BRET_EXT load(1, XDATA, add(CFA_XSP16, literal(-3)))
        CFI (cfiCond29) DPL0 load(1, XDATA, add(CFA_XSP16, literal(-2)))
        CFI (cfiCond29) DPH0 load(1, XDATA, add(CFA_XSP16, literal(-1)))
        CFI (cfiCond29) CFA_SP SP+0
        CFI (cfiCond29) CFA_XSP16 add(XSP16, 14)
        CFI Block cfiPicker30 Using cfiCommon1
        CFI (cfiPicker30) NoFunction
        CFI (cfiPicker30) Picker
        ADDC    A,#0x0
        CFI EndBlock cfiCond28
        CFI EndBlock cfiCond29
        CFI EndBlock cfiPicker30
        REQUIRE ??Subroutine12_0
        ; // Fall through to label ??Subroutine12_0

        RSEG BANKED_CODE:CODE:NOROOT(0)
??Subroutine12_0:
        CFI Block cfiCond31 Using cfiCommon0
        CFI NoFunction
        CFI Conditional ??CrossCallReturnLabel_21
        CFI R6 load(1, XDATA, add(CFA_XSP16, literal(-10)))
        CFI VB load(1, XDATA, add(CFA_XSP16, literal(-9)))
        CFI V0 load(1, XDATA, add(CFA_XSP16, literal(-8)))
        CFI V1 load(1, XDATA, add(CFA_XSP16, literal(-7)))
        CFI R7 load(1, XDATA, add(CFA_XSP16, literal(-6)))
        CFI ?RET_LOW load(1, XDATA, add(CFA_XSP16, literal(-5)))
        CFI ?RET_HIGH load(1, XDATA, add(CFA_XSP16, literal(-4)))
        CFI ?BRET_EXT load(1, XDATA, add(CFA_XSP16, literal(-3)))
        CFI DPL0 load(1, XDATA, add(CFA_XSP16, literal(-2)))
        CFI DPH0 load(1, XDATA, add(CFA_XSP16, literal(-1)))
        CFI CFA_SP SP+0
        CFI CFA_XSP16 add(XSP16, 12)
        CFI Block cfiCond32 Using cfiCommon0
        CFI (cfiCond32) NoFunction
        CFI (cfiCond32) Conditional ??CrossCallReturnLabel_22
        CFI (cfiCond32) R6 load(1, XDATA, add(CFA_XSP16, literal(-10)))
        CFI (cfiCond32) VB load(1, XDATA, add(CFA_XSP16, literal(-9)))
        CFI (cfiCond32) V0 load(1, XDATA, add(CFA_XSP16, literal(-8)))
        CFI (cfiCond32) V1 load(1, XDATA, add(CFA_XSP16, literal(-7)))
        CFI (cfiCond32) R7 load(1, XDATA, add(CFA_XSP16, literal(-6)))
        CFI (cfiCond32) ?RET_LOW load(1, XDATA, add(CFA_XSP16, literal(-5)))
        CFI (cfiCond32) ?RET_HIGH load(1, XDATA, add(CFA_XSP16, literal(-4)))
        CFI (cfiCond32) ?BRET_EXT load(1, XDATA, add(CFA_XSP16, literal(-3)))
        CFI (cfiCond32) DPL0 load(1, XDATA, add(CFA_XSP16, literal(-2)))
        CFI (cfiCond32) DPH0 load(1, XDATA, add(CFA_XSP16, literal(-1)))
        CFI (cfiCond32) CFA_SP SP+0
        CFI (cfiCond32) CFA_XSP16 add(XSP16, 10)
        CFI Block cfiCond33 Using cfiCommon0
        CFI (cfiCond33) NoFunction
        CFI (cfiCond33) Conditional ??CrossCallReturnLabel_23
        CFI (cfiCond33) R6 load(1, XDATA, add(CFA_XSP16, literal(-10)))
        CFI (cfiCond33) VB load(1, XDATA, add(CFA_XSP16, literal(-9)))
        CFI (cfiCond33) V0 load(1, XDATA, add(CFA_XSP16, literal(-8)))
        CFI (cfiCond33) V1 load(1, XDATA, add(CFA_XSP16, literal(-7)))
        CFI (cfiCond33) R7 load(1, XDATA, add(CFA_XSP16, literal(-6)))
        CFI (cfiCond33) ?RET_LOW load(1, XDATA, add(CFA_XSP16, literal(-5)))
        CFI (cfiCond33) ?RET_HIGH load(1, XDATA, add(CFA_XSP16, literal(-4)))
        CFI (cfiCond33) ?BRET_EXT load(1, XDATA, add(CFA_XSP16, literal(-3)))
        CFI (cfiCond33) DPL0 load(1, XDATA, add(CFA_XSP16, literal(-2)))
        CFI (cfiCond33) DPH0 load(1, XDATA, add(CFA_XSP16, literal(-1)))
        CFI (cfiCond33) CFA_SP SP+0
        CFI (cfiCond33) CFA_XSP16 add(XSP16, 14)
        CFI Block cfiPicker34 Using cfiCommon1
        CFI (cfiPicker34) NoFunction
        CFI (cfiPicker34) Picker
        MOV     R5,A
        CFI EndBlock cfiCond31
        CFI EndBlock cfiCond32
        CFI EndBlock cfiCond33
        CFI EndBlock cfiPicker34
        REQUIRE ??Subroutine13_0
        ; // Fall through to label ??Subroutine13_0

        RSEG BANKED_CODE:CODE:NOROOT(0)
??Subroutine13_0:
        CFI Block cfiCond35 Using cfiCommon0
        CFI NoFunction
        CFI Conditional ??CrossCallReturnLabel_19
        CFI R6 load(1, XDATA, add(CFA_XSP16, literal(-10)))
        CFI VB load(1, XDATA, add(CFA_XSP16, literal(-9)))
        CFI V0 load(1, XDATA, add(CFA_XSP16, literal(-8)))
        CFI V1 load(1, XDATA, add(CFA_XSP16, literal(-7)))
        CFI R7 load(1, XDATA, add(CFA_XSP16, literal(-6)))
        CFI ?RET_LOW load(1, XDATA, add(CFA_XSP16, literal(-5)))
        CFI ?RET_HIGH load(1, XDATA, add(CFA_XSP16, literal(-4)))
        CFI ?BRET_EXT load(1, XDATA, add(CFA_XSP16, literal(-3)))
        CFI DPL0 load(1, XDATA, add(CFA_XSP16, literal(-2)))
        CFI DPH0 load(1, XDATA, add(CFA_XSP16, literal(-1)))
        CFI CFA_SP SP+0
        CFI CFA_XSP16 add(XSP16, 10)
        CFI Block cfiCond36 Using cfiCommon0
        CFI (cfiCond36) NoFunction
        CFI (cfiCond36) Conditional ??CrossCallReturnLabel_20
        CFI (cfiCond36) DPL0 Frame(CFA_SP, 4)
        CFI (cfiCond36) DPH0 Frame(CFA_SP, 5)
        CFI (cfiCond36) CFA_SP SP+-5
        CFI (cfiCond36) CFA_XSP16 add(XSP16, 3)
        CFI Block cfiCond37 Using cfiCommon0
        CFI (cfiCond37) NoFunction
        CFI (cfiCond37) Conditional ??CrossCallReturnLabel_21
        CFI (cfiCond37) R6 load(1, XDATA, add(CFA_XSP16, literal(-10)))
        CFI (cfiCond37) VB load(1, XDATA, add(CFA_XSP16, literal(-9)))
        CFI (cfiCond37) V0 load(1, XDATA, add(CFA_XSP16, literal(-8)))
        CFI (cfiCond37) V1 load(1, XDATA, add(CFA_XSP16, literal(-7)))
        CFI (cfiCond37) R7 load(1, XDATA, add(CFA_XSP16, literal(-6)))
        CFI (cfiCond37) ?RET_LOW load(1, XDATA, add(CFA_XSP16, literal(-5)))
        CFI (cfiCond37) ?RET_HIGH load(1, XDATA, add(CFA_XSP16, literal(-4)))
        CFI (cfiCond37) ?BRET_EXT load(1, XDATA, add(CFA_XSP16, literal(-3)))
        CFI (cfiCond37) DPL0 load(1, XDATA, add(CFA_XSP16, literal(-2)))
        CFI (cfiCond37) DPH0 load(1, XDATA, add(CFA_XSP16, literal(-1)))
        CFI (cfiCond37) CFA_SP SP+0
        CFI (cfiCond37) CFA_XSP16 add(XSP16, 12)
        CFI Block cfiCond38 Using cfiCommon0
        CFI (cfiCond38) NoFunction
        CFI (cfiCond38) Conditional ??CrossCallReturnLabel_22
        CFI (cfiCond38) R6 load(1, XDATA, add(CFA_XSP16, literal(-10)))
        CFI (cfiCond38) VB load(1, XDATA, add(CFA_XSP16, literal(-9)))
        CFI (cfiCond38) V0 load(1, XDATA, add(CFA_XSP16, literal(-8)))
        CFI (cfiCond38) V1 load(1, XDATA, add(CFA_XSP16, literal(-7)))
        CFI (cfiCond38) R7 load(1, XDATA, add(CFA_XSP16, literal(-6)))
        CFI (cfiCond38) ?RET_LOW load(1, XDATA, add(CFA_XSP16, literal(-5)))
        CFI (cfiCond38) ?RET_HIGH load(1, XDATA, add(CFA_XSP16, literal(-4)))
        CFI (cfiCond38) ?BRET_EXT load(1, XDATA, add(CFA_XSP16, literal(-3)))
        CFI (cfiCond38) DPL0 load(1, XDATA, add(CFA_XSP16, literal(-2)))
        CFI (cfiCond38) DPH0 load(1, XDATA, add(CFA_XSP16, literal(-1)))
        CFI (cfiCond38) CFA_SP SP+0
        CFI (cfiCond38) CFA_XSP16 add(XSP16, 10)
        CFI Block cfiCond39 Using cfiCommon0
        CFI (cfiCond39) NoFunction
        CFI (cfiCond39) Conditional ??CrossCallReturnLabel_23
        CFI (cfiCond39) R6 load(1, XDATA, add(CFA_XSP16, literal(-10)))
        CFI (cfiCond39) VB load(1, XDATA, add(CFA_XSP16, literal(-9)))
        CFI (cfiCond39) V0 load(1, XDATA, add(CFA_XSP16, literal(-8)))
        CFI (cfiCond39) V1 load(1, XDATA, add(CFA_XSP16, literal(-7)))
        CFI (cfiCond39) R7 load(1, XDATA, add(CFA_XSP16, literal(-6)))
        CFI (cfiCond39) ?RET_LOW load(1, XDATA, add(CFA_XSP16, literal(-5)))
        CFI (cfiCond39) ?RET_HIGH load(1, XDATA, add(CFA_XSP16, literal(-4)))
        CFI (cfiCond39) ?BRET_EXT load(1, XDATA, add(CFA_XSP16, literal(-3)))
        CFI (cfiCond39) DPL0 load(1, XDATA, add(CFA_XSP16, literal(-2)))
        CFI (cfiCond39) DPH0 load(1, XDATA, add(CFA_XSP16, literal(-1)))
        CFI (cfiCond39) CFA_SP SP+0
        CFI (cfiCond39) CFA_XSP16 add(XSP16, 14)
        CFI Block cfiPicker40 Using cfiCommon1
        CFI (cfiPicker40) NoFunction
        CFI (cfiPicker40) Picker
        MOV     DPTR,#LL
        CFI EndBlock cfiCond35
        CFI EndBlock cfiCond36
        CFI EndBlock cfiCond37
        CFI EndBlock cfiCond38
        CFI EndBlock cfiCond39
        CFI EndBlock cfiPicker40
        REQUIRE ??Subroutine14_0
        ; // Fall through to label ??Subroutine14_0

        RSEG BANKED_CODE:CODE:NOROOT(0)
??Subroutine14_0:
        CFI Block cfiCond41 Using cfiCommon0
        CFI NoFunction
        CFI Conditional ??CrossCallReturnLabel_18
        CFI R6 load(1, XDATA, add(CFA_XSP16, literal(-10)))
        CFI VB load(1, XDATA, add(CFA_XSP16, literal(-9)))
        CFI V0 load(1, XDATA, add(CFA_XSP16, literal(-8)))
        CFI V1 load(1, XDATA, add(CFA_XSP16, literal(-7)))
        CFI R7 load(1, XDATA, add(CFA_XSP16, literal(-6)))
        CFI ?RET_LOW load(1, XDATA, add(CFA_XSP16, literal(-5)))
        CFI ?RET_HIGH load(1, XDATA, add(CFA_XSP16, literal(-4)))
        CFI ?BRET_EXT load(1, XDATA, add(CFA_XSP16, literal(-3)))
        CFI DPL0 load(1, XDATA, add(CFA_XSP16, literal(-2)))
        CFI DPH0 load(1, XDATA, add(CFA_XSP16, literal(-1)))
        CFI CFA_SP SP+0
        CFI CFA_XSP16 add(XSP16, 10)
        CFI Block cfiCond42 Using cfiCommon0
        CFI (cfiCond42) NoFunction
        CFI (cfiCond42) Conditional ??CrossCallReturnLabel_19
        CFI (cfiCond42) R6 load(1, XDATA, add(CFA_XSP16, literal(-10)))
        CFI (cfiCond42) VB load(1, XDATA, add(CFA_XSP16, literal(-9)))
        CFI (cfiCond42) V0 load(1, XDATA, add(CFA_XSP16, literal(-8)))
        CFI (cfiCond42) V1 load(1, XDATA, add(CFA_XSP16, literal(-7)))
        CFI (cfiCond42) R7 load(1, XDATA, add(CFA_XSP16, literal(-6)))
        CFI (cfiCond42) ?RET_LOW load(1, XDATA, add(CFA_XSP16, literal(-5)))
        CFI (cfiCond42) ?RET_HIGH load(1, XDATA, add(CFA_XSP16, literal(-4)))
        CFI (cfiCond42) ?BRET_EXT load(1, XDATA, add(CFA_XSP16, literal(-3)))
        CFI (cfiCond42) DPL0 load(1, XDATA, add(CFA_XSP16, literal(-2)))
        CFI (cfiCond42) DPH0 load(1, XDATA, add(CFA_XSP16, literal(-1)))
        CFI (cfiCond42) CFA_SP SP+0
        CFI (cfiCond42) CFA_XSP16 add(XSP16, 10)
        CFI Block cfiCond43 Using cfiCommon0
        CFI (cfiCond43) NoFunction
        CFI (cfiCond43) Conditional ??CrossCallReturnLabel_20
        CFI (cfiCond43) DPL0 Frame(CFA_SP, 4)
        CFI (cfiCond43) DPH0 Frame(CFA_SP, 5)
        CFI (cfiCond43) CFA_SP SP+-5
        CFI (cfiCond43) CFA_XSP16 add(XSP16, 3)
        CFI Block cfiCond44 Using cfiCommon0
        CFI (cfiCond44) NoFunction
        CFI (cfiCond44) Conditional ??CrossCallReturnLabel_21
        CFI (cfiCond44) R6 load(1, XDATA, add(CFA_XSP16, literal(-10)))
        CFI (cfiCond44) VB load(1, XDATA, add(CFA_XSP16, literal(-9)))
        CFI (cfiCond44) V0 load(1, XDATA, add(CFA_XSP16, literal(-8)))
        CFI (cfiCond44) V1 load(1, XDATA, add(CFA_XSP16, literal(-7)))
        CFI (cfiCond44) R7 load(1, XDATA, add(CFA_XSP16, literal(-6)))
        CFI (cfiCond44) ?RET_LOW load(1, XDATA, add(CFA_XSP16, literal(-5)))
        CFI (cfiCond44) ?RET_HIGH load(1, XDATA, add(CFA_XSP16, literal(-4)))
        CFI (cfiCond44) ?BRET_EXT load(1, XDATA, add(CFA_XSP16, literal(-3)))
        CFI (cfiCond44) DPL0 load(1, XDATA, add(CFA_XSP16, literal(-2)))
        CFI (cfiCond44) DPH0 load(1, XDATA, add(CFA_XSP16, literal(-1)))
        CFI (cfiCond44) CFA_SP SP+0
        CFI (cfiCond44) CFA_XSP16 add(XSP16, 12)
        CFI Block cfiCond45 Using cfiCommon0
        CFI (cfiCond45) NoFunction
        CFI (cfiCond45) Conditional ??CrossCallReturnLabel_22
        CFI (cfiCond45) R6 load(1, XDATA, add(CFA_XSP16, literal(-10)))
        CFI (cfiCond45) VB load(1, XDATA, add(CFA_XSP16, literal(-9)))
        CFI (cfiCond45) V0 load(1, XDATA, add(CFA_XSP16, literal(-8)))
        CFI (cfiCond45) V1 load(1, XDATA, add(CFA_XSP16, literal(-7)))
        CFI (cfiCond45) R7 load(1, XDATA, add(CFA_XSP16, literal(-6)))
        CFI (cfiCond45) ?RET_LOW load(1, XDATA, add(CFA_XSP16, literal(-5)))
        CFI (cfiCond45) ?RET_HIGH load(1, XDATA, add(CFA_XSP16, literal(-4)))
        CFI (cfiCond45) ?BRET_EXT load(1, XDATA, add(CFA_XSP16, literal(-3)))
        CFI (cfiCond45) DPL0 load(1, XDATA, add(CFA_XSP16, literal(-2)))
        CFI (cfiCond45) DPH0 load(1, XDATA, add(CFA_XSP16, literal(-1)))
        CFI (cfiCond45) CFA_SP SP+0
        CFI (cfiCond45) CFA_XSP16 add(XSP16, 10)
        CFI Block cfiCond46 Using cfiCommon0
        CFI (cfiCond46) NoFunction
        CFI (cfiCond46) Conditional ??CrossCallReturnLabel_23
        CFI (cfiCond46) R6 load(1, XDATA, add(CFA_XSP16, literal(-10)))
        CFI (cfiCond46) VB load(1, XDATA, add(CFA_XSP16, literal(-9)))
        CFI (cfiCond46) V0 load(1, XDATA, add(CFA_XSP16, literal(-8)))
        CFI (cfiCond46) V1 load(1, XDATA, add(CFA_XSP16, literal(-7)))
        CFI (cfiCond46) R7 load(1, XDATA, add(CFA_XSP16, literal(-6)))
        CFI (cfiCond46) ?RET_LOW load(1, XDATA, add(CFA_XSP16, literal(-5)))
        CFI (cfiCond46) ?RET_HIGH load(1, XDATA, add(CFA_XSP16, literal(-4)))
        CFI (cfiCond46) ?BRET_EXT load(1, XDATA, add(CFA_XSP16, literal(-3)))
        CFI (cfiCond46) DPL0 load(1, XDATA, add(CFA_XSP16, literal(-2)))
        CFI (cfiCond46) DPH0 load(1, XDATA, add(CFA_XSP16, literal(-1)))
        CFI (cfiCond46) CFA_SP SP+0
        CFI (cfiCond46) CFA_XSP16 add(XSP16, 14)
        CFI Block cfiPicker47 Using cfiCommon1
        CFI (cfiPicker47) NoFunction
        CFI (cfiPicker47) Picker
        MOVX    A,@DPTR
        MOV     R2,A
        INC     DPTR
        MOVX    A,@DPTR
        MOV     R3,A
        RET
        CFI EndBlock cfiCond41
        CFI EndBlock cfiCond42
        CFI EndBlock cfiCond43
        CFI EndBlock cfiCond44
        CFI EndBlock cfiCond45
        CFI EndBlock cfiCond46
        CFI EndBlock cfiPicker47
//  558 
//  559 /**
//  560   终端心跳函数，用于定时向协调器发送本机地址信息
//  561 */

        RSEG BANKED_CODE:CODE:NOROOT(0)
//  562 void SampleApp_SendHeartBeatMessageEnd(void) { 
SampleApp_SendHeartBeatMessageEnd:
        CFI Block cfiBlock48 Using cfiCommon0
        CFI Function SampleApp_SendHeartBeatMessageEnd
        CODE
        FUNCALL SampleApp_SendHeartBeatMessageEnd, AfSendAddrInfo
        LOCFRAME ISTACK, 2, STACK
        LOCFRAME PSTACK, 0, STACK
        LOCFRAME XSTACK, 0, STACK
        LOCFRAME IOVERLAY, 0, STATIC
        LOCFRAME DOVERLAY, 0, STATIC
        ARGFRAME ISTACK, 2, STACK
        ARGFRAME PSTACK, 0, STACK
        ARGFRAME XSTACK, 0, STACK
        ARGFRAME IOVERLAY, 0, STATIC
        ARGFRAME DOVERLAY, 0, STATIC
        PUSH    DPL
        CFI DPL0 Frame(CFA_SP, 4)
        CFI CFA_SP SP+-4
        PUSH    DPH
        CFI DPH0 Frame(CFA_SP, 5)
        CFI CFA_SP SP+-5
        ; Saved register size: 2
        ; Auto size: 0
//  563   AfSendAddrInfo(0x71);  
        ; Setup parameters for call to function AfSendAddrInfo
        MOV     R1,#0x71
        LCALL   ??AfSendAddrInfo?relay
//  564 }
        SJMP    ?Subroutine2
        CFI EndBlock cfiBlock48
//  565 
//  566 /**
//  567   发送终端地址信息到协调器
//  568 */

        RSEG BANKED_CODE:CODE:NOROOT(0)
//  569 void AfSendAddrInfo(uint8 cmd) {
AfSendAddrInfo:
        CFI Block cfiBlock49 Using cfiCommon0
        CFI Function AfSendAddrInfo
        CODE
        FUNCALL AfSendAddrInfo, NLME_GetShortAddr
        LOCFRAME ISTACK, 0, STACK
        LOCFRAME PSTACK, 0, STACK
        LOCFRAME XSTACK, 24, STACK
        LOCFRAME IOVERLAY, 0, STATIC
        LOCFRAME DOVERLAY, 0, STATIC
        ARGFRAME ISTACK, 0, STACK
        ARGFRAME PSTACK, 0, STACK
        ARGFRAME XSTACK, 24, STACK
        ARGFRAME IOVERLAY, 0, STATIC
        ARGFRAME DOVERLAY, 0, STATIC
        FUNCALL AfSendAddrInfo, NLME_GetExtAddr
        LOCFRAME ISTACK, 0, STACK
        LOCFRAME PSTACK, 0, STACK
        LOCFRAME XSTACK, 24, STACK
        LOCFRAME IOVERLAY, 0, STATIC
        LOCFRAME DOVERLAY, 0, STATIC
        ARGFRAME ISTACK, 0, STACK
        ARGFRAME PSTACK, 0, STACK
        ARGFRAME XSTACK, 24, STACK
        ARGFRAME IOVERLAY, 0, STATIC
        ARGFRAME DOVERLAY, 0, STATIC
        FUNCALL AfSendAddrInfo, osal_memcpy
        LOCFRAME ISTACK, 0, STACK
        LOCFRAME PSTACK, 0, STACK
        LOCFRAME XSTACK, 27, STACK
        LOCFRAME IOVERLAY, 0, STATIC
        LOCFRAME DOVERLAY, 0, STATIC
        ARGFRAME ISTACK, 0, STACK
        ARGFRAME PSTACK, 0, STACK
        ARGFRAME XSTACK, 27, STACK
        ARGFRAME IOVERLAY, 0, STATIC
        ARGFRAME DOVERLAY, 0, STATIC
        FUNCALL AfSendAddrInfo, AF_DataRequest
        LOCFRAME ISTACK, 0, STACK
        LOCFRAME PSTACK, 0, STACK
        LOCFRAME XSTACK, 33, STACK
        LOCFRAME IOVERLAY, 0, STATIC
        LOCFRAME DOVERLAY, 0, STATIC
        ARGFRAME ISTACK, 0, STACK
        ARGFRAME PSTACK, 0, STACK
        ARGFRAME XSTACK, 33, STACK
        ARGFRAME IOVERLAY, 0, STATIC
        ARGFRAME DOVERLAY, 0, STATIC
        FUNCALL AfSendAddrInfo, HalLedBlink
        LOCFRAME ISTACK, 0, STACK
        LOCFRAME PSTACK, 0, STACK
        LOCFRAME XSTACK, 24, STACK
        LOCFRAME IOVERLAY, 0, STATIC
        LOCFRAME DOVERLAY, 0, STATIC
        ARGFRAME ISTACK, 0, STACK
        ARGFRAME PSTACK, 0, STACK
        ARGFRAME XSTACK, 24, STACK
        ARGFRAME IOVERLAY, 0, STATIC
        ARGFRAME DOVERLAY, 0, STATIC
        FUNCALL AfSendAddrInfo, HalLedBlink
        LOCFRAME ISTACK, 0, STACK
        LOCFRAME PSTACK, 0, STACK
        LOCFRAME XSTACK, 24, STACK
        LOCFRAME IOVERLAY, 0, STATIC
        LOCFRAME DOVERLAY, 0, STATIC
        ARGFRAME ISTACK, 0, STACK
        ARGFRAME PSTACK, 0, STACK
        ARGFRAME XSTACK, 24, STACK
        ARGFRAME IOVERLAY, 0, STATIC
        ARGFRAME DOVERLAY, 0, STATIC
        MOV     A,#-0xb
        LCALL   ?BANKED_ENTER_XDATA
        CFI DPH0 load(1, XDATA, add(CFA_XSP16, literal(-1)))
        CFI DPL0 load(1, XDATA, add(CFA_XSP16, literal(-2)))
        CFI ?BRET_EXT load(1, XDATA, add(CFA_XSP16, literal(-3)))
        CFI ?RET_HIGH load(1, XDATA, add(CFA_XSP16, literal(-4)))
        CFI ?RET_LOW load(1, XDATA, add(CFA_XSP16, literal(-5)))
        CFI R7 load(1, XDATA, add(CFA_XSP16, literal(-6)))
        CFI V2 load(1, XDATA, add(CFA_XSP16, literal(-7)))
        CFI V1 load(1, XDATA, add(CFA_XSP16, literal(-8)))
        CFI V0 load(1, XDATA, add(CFA_XSP16, literal(-9)))
        CFI VB load(1, XDATA, add(CFA_XSP16, literal(-10)))
        CFI R6 load(1, XDATA, add(CFA_XSP16, literal(-11)))
        CFI CFA_SP SP+0
        CFI CFA_XSP16 add(XSP16, 11)
        ; Saved register size: 11
        ; Auto size: 13
        MOV     A,#-0xd
        LCALL   ?ALLOC_XSTACK8
        CFI CFA_XSP16 add(XSP16, 24)
        MOV     A,R1
        MOV     R6,A
//  570   uint16 shortAddr;
//  571   uint8 strBuf[13] = {0};  
        MOV     DPL,?XSP + 0
        MOV     DPH,?XSP + 1
        MOV     R4,DPL
        MOV     R5,DPH
        MOV     DPH,#(`?<Constant {0}>` >> 8) & 0xff
        MOV     DPL,#`?<Constant {0}>` & 0xff
        MOV     A,#0xd
        LCALL   ?MOVE_LONG8_XDATA_XDATA
//  572   
//  573   shortAddr = NLME_GetShortAddr(); // 获取自身网络设备地址，获取父设备网络地址：uint16 NLME_GetCoordShortAddr( void );
        ; Setup parameters for call to function NLME_GetShortAddr
        LCALL   ??NLME_GetShortAddr?relay
//  574   strBuf[0] = '#';  // 发送数据的标识，便于协调器解析
        MOV     DPL,?XSP + 0
        MOV     DPH,?XSP + 1
        MOV     A,#0x23
        MOVX    @DPTR,A
//  575   strBuf[1] = cmd; // 消息类型标识
        MOV     A,#0x1
        LCALL   ?XSTACK_DISP0_8
        MOV     A,R6
        MOVX    @DPTR,A
//  576   strBuf[2] = HI_UINT16(shortAddr); // 存放地址的高8位
        MOV     A,#0x2
        LCALL   ?XSTACK_DISP0_8
        MOV     A,R3
        MOVX    @DPTR,A
//  577   strBuf[3] = LO_UINT16(shortAddr); // 存放低8位
        MOV     A,#0x3
        LCALL   ?XSTACK_DISP0_8
        MOV     A,R2
        LCALL   ?Subroutine4 & 0xFFFF
//  578   osal_memcpy(&strBuf[4], NLME_GetExtAddr(), 8); // 复制IEEE地址
??CrossCallReturnLabel_2:
        LCALL   ?PUSH_XSTACK_I_THREE
        CFI CFA_XSP16 add(XSP16, 27)
        MOV     R4,#0x8
        MOV     R5,#0x0
        MOV     A,#0x7
        LCALL   ?XSTACK_DISP0_8
        MOV     R2,DPL
        MOV     R3,DPH
        LCALL   ??osal_memcpy?relay
        MOV     A,#0x3
        LCALL   ?DEALLOC_XSTACK8
        CFI CFA_XSP16 add(XSP16, 24)
//  579   strBuf[12] = '@'; // 尾部字节
        MOV     A,#0xc
        LCALL   ?XSTACK_DISP0_8
        MOV     A,#0x40
        MOVX    @DPTR,A
//  580   if ( AF_DataRequest( &SampleApp_TxAddr,                  // 发送的目的地址+端点地址+传送模式
//  581                       (endPointDesc_t *)&SampleApp_epDesc, // 源终端的描述
//  582                       SAMPLEAPP_PERIODIC_CLUSTERID,        // 被profile指定的有效的集群号
//  583                       13,                                  // 发送数据长度
//  584                       strBuf,                              // 发送数据缓冲区
//  585                       &SampleApp_TransID,                  // 消息发送ID
//  586                       AF_DISCV_ROUTE,                      // 有效位掩码的发送选项
//  587                       AF_DEFAULT_RADIUS ) != afStatus_SUCCESS ) // 传送跳数，通常设置为AF_DEFAULT_RADIUS
        ; Setup parameters for call to function AF_DataRequest
        MOV     ?V0 + 0,#0x1e
        MOV     R0,#?V0 + 0
        LCALL   ?PUSH_XSTACK_I_ONE
        CFI CFA_XSP16 add(XSP16, 25)
        MOV     ?V0 + 0,#SampleApp_TransID & 0xff
        MOV     ?V0 + 1,#(SampleApp_TransID >> 8) & 0xff
        MOV     R0,#?V0 + 0
        LCALL   ?PUSH_XSTACK_I_TWO
        CFI CFA_XSP16 add(XSP16, 27)
        MOV     A,#0x3
        LCALL   ?XSTACK_DISP0_8
        MOV     ?V0 + 0,DPL
        MOV     ?V0 + 1,DPH
        MOV     R0,#?V0 + 0
        LCALL   ?PUSH_XSTACK_I_TWO
        CFI CFA_XSP16 add(XSP16, 29)
        MOV     ?V0 + 0,#0xd
        MOV     ?V0 + 1,#0x0
        MOV     R0,#?V0 + 0
        LCALL   ?PUSH_XSTACK_I_TWO
        CFI CFA_XSP16 add(XSP16, 31)
        MOV     ?V0 + 0,#0x1
        MOV     R0,#?V0 + 0
        LCALL   ?PUSH_XSTACK_I_TWO
        CFI CFA_XSP16 add(XSP16, 33)
        MOV     R1,#0x20
        MOV     R4,#SampleApp_epDesc & 0xff
        MOV     R5,#(SampleApp_epDesc >> 8) & 0xff
        MOV     R2,#SampleApp_TxAddr & 0xff
        MOV     R3,#(SampleApp_TxAddr >> 8) & 0xff
        LCALL   ??AF_DataRequest?relay
        MOV     A,#0x9
        LCALL   ?DEALLOC_XSTACK8
        CFI CFA_XSP16 add(XSP16, 24)
        MOV     A,R1
        JZ      ??AfSendAddrInfo_0
//  588   {
//  589     HalLedBlink(HAL_LED_1, 2, 50, 250); // 发送失败快速闪烁两次
        ; Setup parameters for call to function HalLedBlink
        MOV     R4,#-0x6
        MOV     R5,#0x0
        MOV     R3,#0x32
        MOV     R2,#0x2
        MOV     R1,#0x1
        SJMP    ??AfSendAddrInfo_1
//  590   } else {
//  591     HalLedBlink(HAL_LED_2, 1, 50, 500); // 发送成功正常闪烁一次
??AfSendAddrInfo_0:
        ; Setup parameters for call to function HalLedBlink
        MOV     R4,#-0xc
        MOV     R5,#0x1
        MOV     R3,#0x32
        MOV     R2,#0x1
        MOV     R1,#0x2
??AfSendAddrInfo_1:
        LCALL   ??HalLedBlink?relay
//  592   }
//  593 }
        MOV     A,#0xd
        LJMP    ?Subroutine0 & 0xFFFF
        CFI EndBlock cfiBlock49
//  594 
//  595 /**
//  596   终端发送已经收到投币开始游戏命令
//  597 */

        RSEG BANKED_CODE:CODE:NOROOT(0)
//  598 void AfReplyGetCoinCmd(void) {
AfReplyGetCoinCmd:
        CFI Block cfiBlock50 Using cfiCommon0
        CFI Function AfReplyGetCoinCmd
        CODE
        FUNCALL AfReplyGetCoinCmd, NLME_GetExtAddr
        LOCFRAME ISTACK, 0, STACK
        LOCFRAME PSTACK, 0, STACK
        LOCFRAME XSTACK, 22, STACK
        LOCFRAME IOVERLAY, 0, STATIC
        LOCFRAME DOVERLAY, 0, STATIC
        ARGFRAME ISTACK, 0, STACK
        ARGFRAME PSTACK, 0, STACK
        ARGFRAME XSTACK, 22, STACK
        ARGFRAME IOVERLAY, 0, STATIC
        ARGFRAME DOVERLAY, 0, STATIC
        FUNCALL AfReplyGetCoinCmd, osal_memcpy
        LOCFRAME ISTACK, 0, STACK
        LOCFRAME PSTACK, 0, STACK
        LOCFRAME XSTACK, 25, STACK
        LOCFRAME IOVERLAY, 0, STATIC
        LOCFRAME DOVERLAY, 0, STATIC
        ARGFRAME ISTACK, 0, STACK
        ARGFRAME PSTACK, 0, STACK
        ARGFRAME XSTACK, 25, STACK
        ARGFRAME IOVERLAY, 0, STATIC
        ARGFRAME DOVERLAY, 0, STATIC
        FUNCALL AfReplyGetCoinCmd, AF_DataRequest
        LOCFRAME ISTACK, 0, STACK
        LOCFRAME PSTACK, 0, STACK
        LOCFRAME XSTACK, 31, STACK
        LOCFRAME IOVERLAY, 0, STATIC
        LOCFRAME DOVERLAY, 0, STATIC
        ARGFRAME ISTACK, 0, STACK
        ARGFRAME PSTACK, 0, STACK
        ARGFRAME XSTACK, 31, STACK
        ARGFRAME IOVERLAY, 0, STATIC
        ARGFRAME DOVERLAY, 0, STATIC
        FUNCALL AfReplyGetCoinCmd, HalLedBlink
        LOCFRAME ISTACK, 0, STACK
        LOCFRAME PSTACK, 0, STACK
        LOCFRAME XSTACK, 22, STACK
        LOCFRAME IOVERLAY, 0, STATIC
        LOCFRAME DOVERLAY, 0, STATIC
        ARGFRAME ISTACK, 0, STACK
        ARGFRAME PSTACK, 0, STACK
        ARGFRAME XSTACK, 22, STACK
        ARGFRAME IOVERLAY, 0, STATIC
        ARGFRAME DOVERLAY, 0, STATIC
        FUNCALL AfReplyGetCoinCmd, HalLedBlink
        LOCFRAME ISTACK, 0, STACK
        LOCFRAME PSTACK, 0, STACK
        LOCFRAME XSTACK, 22, STACK
        LOCFRAME IOVERLAY, 0, STATIC
        LOCFRAME DOVERLAY, 0, STATIC
        ARGFRAME ISTACK, 0, STACK
        ARGFRAME PSTACK, 0, STACK
        ARGFRAME XSTACK, 22, STACK
        ARGFRAME IOVERLAY, 0, STATIC
        ARGFRAME DOVERLAY, 0, STATIC
        MOV     A,#-0xb
        LCALL   ?BANKED_ENTER_XDATA
        CFI DPH0 load(1, XDATA, add(CFA_XSP16, literal(-1)))
        CFI DPL0 load(1, XDATA, add(CFA_XSP16, literal(-2)))
        CFI ?BRET_EXT load(1, XDATA, add(CFA_XSP16, literal(-3)))
        CFI ?RET_HIGH load(1, XDATA, add(CFA_XSP16, literal(-4)))
        CFI ?RET_LOW load(1, XDATA, add(CFA_XSP16, literal(-5)))
        CFI R7 load(1, XDATA, add(CFA_XSP16, literal(-6)))
        CFI V2 load(1, XDATA, add(CFA_XSP16, literal(-7)))
        CFI V1 load(1, XDATA, add(CFA_XSP16, literal(-8)))
        CFI V0 load(1, XDATA, add(CFA_XSP16, literal(-9)))
        CFI VB load(1, XDATA, add(CFA_XSP16, literal(-10)))
        CFI R6 load(1, XDATA, add(CFA_XSP16, literal(-11)))
        CFI CFA_SP SP+0
        CFI CFA_XSP16 add(XSP16, 11)
        ; Saved register size: 11
        ; Auto size: 11
        MOV     A,#-0xb
        LCALL   ?ALLOC_XSTACK8
        CFI CFA_XSP16 add(XSP16, 22)
//  599   uint8 strBuf[11] = {0};  
        MOV     DPL,?XSP + 0
        MOV     DPH,?XSP + 1
        MOV     R4,DPL
        MOV     R5,DPH
        MOV     DPH,#(`?<Constant {0}>_1` >> 8) & 0xff
        MOV     DPL,#`?<Constant {0}>_1` & 0xff
        MOV     A,#0xb
        LCALL   ?MOVE_LONG8_XDATA_XDATA
//  600   
//  601   strBuf[0] = '#';  // 发送数据的标识，便于协调器解析
        MOV     DPL,?XSP + 0
        MOV     DPH,?XSP + 1
        MOV     A,#0x23
        MOVX    @DPTR,A
//  602   strBuf[1] = 0x72; // 消息类型标识
        MOV     A,#0x1
        LCALL   ?XSTACK_DISP0_8
        MOV     A,#0x72
        LCALL   ?Subroutine4 & 0xFFFF
//  603   osal_memcpy(&strBuf[2], NLME_GetExtAddr(), 8); // 复制IEEE地址
??CrossCallReturnLabel_3:
        LCALL   ?PUSH_XSTACK_I_THREE
        CFI CFA_XSP16 add(XSP16, 25)
        MOV     R4,#0x8
        MOV     R5,#0x0
        MOV     A,#0x5
        LCALL   ?XSTACK_DISP0_8
        MOV     R2,DPL
        MOV     R3,DPH
        LCALL   ??osal_memcpy?relay
        MOV     A,#0x3
        LCALL   ?DEALLOC_XSTACK8
        CFI CFA_XSP16 add(XSP16, 22)
//  604   strBuf[10] = '@'; // 尾部字节
        MOV     A,#0xa
        LCALL   ?XSTACK_DISP0_8
        MOV     A,#0x40
        MOVX    @DPTR,A
//  605   if ( AF_DataRequest( &SampleApp_TxAddr,                  // 发送的目的地址+端点地址+传送模式
//  606                       (endPointDesc_t *)&SampleApp_epDesc, // 源终端的描述
//  607                       SAMPLEAPP_PERIODIC_CLUSTERID,        // 被profile指定的有效的集群号
//  608                       11,                                  // 发送数据长度
//  609                       strBuf,                              // 发送数据缓冲区
//  610                       &SampleApp_TransID,                  // 消息发送ID
//  611                       AF_DISCV_ROUTE,                      // 有效位掩码的发送选项
//  612                       AF_DEFAULT_RADIUS ) != afStatus_SUCCESS ) // 传送跳数，通常设置为AF_DEFAULT_RADIUS
        ; Setup parameters for call to function AF_DataRequest
        MOV     ?V0 + 0,#0x1e
        MOV     R0,#?V0 + 0
        LCALL   ?PUSH_XSTACK_I_ONE
        CFI CFA_XSP16 add(XSP16, 23)
        MOV     ?V0 + 0,#SampleApp_TransID & 0xff
        MOV     ?V0 + 1,#(SampleApp_TransID >> 8) & 0xff
        MOV     R0,#?V0 + 0
        LCALL   ?PUSH_XSTACK_I_TWO
        CFI CFA_XSP16 add(XSP16, 25)
        MOV     A,#0x3
        LCALL   ?XSTACK_DISP0_8
        MOV     ?V0 + 0,DPL
        MOV     ?V0 + 1,DPH
        MOV     R0,#?V0 + 0
        LCALL   ?PUSH_XSTACK_I_TWO
        CFI CFA_XSP16 add(XSP16, 27)
        MOV     ?V0 + 0,#0xb
        MOV     ?V0 + 1,#0x0
        MOV     R0,#?V0 + 0
        LCALL   ?PUSH_XSTACK_I_TWO
        CFI CFA_XSP16 add(XSP16, 29)
        MOV     ?V0 + 0,#0x1
        MOV     R0,#?V0 + 0
        LCALL   ?PUSH_XSTACK_I_TWO
        CFI CFA_XSP16 add(XSP16, 31)
        MOV     R1,#0x20
        MOV     R4,#SampleApp_epDesc & 0xff
        MOV     R5,#(SampleApp_epDesc >> 8) & 0xff
        MOV     R2,#SampleApp_TxAddr & 0xff
        MOV     R3,#(SampleApp_TxAddr >> 8) & 0xff
        LCALL   ??AF_DataRequest?relay
        MOV     A,#0x9
        LCALL   ?DEALLOC_XSTACK8
        CFI CFA_XSP16 add(XSP16, 22)
        MOV     A,R1
        JZ      ??AfReplyGetCoinCmd_0
//  613   {
//  614     HalLedBlink(HAL_LED_1, 4, 50, 250); // 发送失败快速闪烁两次
        ; Setup parameters for call to function HalLedBlink
        MOV     R4,#-0x6
        MOV     R5,#0x0
        MOV     R3,#0x32
        MOV     R2,#0x4
        SJMP    ??AfReplyGetCoinCmd_1
//  615   } else {
//  616     HalLedBlink(HAL_LED_1, 2, 50, 500); // 发送成功正常闪烁2次
??AfReplyGetCoinCmd_0:
        ; Setup parameters for call to function HalLedBlink
        MOV     R4,#-0xc
        MOV     R5,#0x1
        MOV     R3,#0x32
        MOV     R2,#0x2
??AfReplyGetCoinCmd_1:
        MOV     R1,#0x1
        LCALL   ??HalLedBlink?relay
//  617   }
//  618 }
        MOV     A,#0xb
        LJMP    ?Subroutine0 & 0xFFFF
        CFI EndBlock cfiBlock50

        RSEG BANKED_CODE:CODE:NOROOT(0)
?Subroutine4:
        CFI Block cfiCond51 Using cfiCommon0
        CFI NoFunction
        CFI Conditional ??CrossCallReturnLabel_2
        CFI R6 load(1, XDATA, add(CFA_XSP16, literal(-11)))
        CFI VB load(1, XDATA, add(CFA_XSP16, literal(-10)))
        CFI V0 load(1, XDATA, add(CFA_XSP16, literal(-9)))
        CFI V1 load(1, XDATA, add(CFA_XSP16, literal(-8)))
        CFI V2 load(1, XDATA, add(CFA_XSP16, literal(-7)))
        CFI R7 load(1, XDATA, add(CFA_XSP16, literal(-6)))
        CFI ?RET_LOW load(1, XDATA, add(CFA_XSP16, literal(-5)))
        CFI ?RET_HIGH load(1, XDATA, add(CFA_XSP16, literal(-4)))
        CFI ?BRET_EXT load(1, XDATA, add(CFA_XSP16, literal(-3)))
        CFI DPL0 load(1, XDATA, add(CFA_XSP16, literal(-2)))
        CFI DPH0 load(1, XDATA, add(CFA_XSP16, literal(-1)))
        CFI CFA_SP SP+0
        CFI CFA_XSP16 add(XSP16, 24)
        CFI Block cfiCond52 Using cfiCommon0
        CFI (cfiCond52) NoFunction
        CFI (cfiCond52) Conditional ??CrossCallReturnLabel_3
        CFI (cfiCond52) R6 load(1, XDATA, add(CFA_XSP16, literal(-11)))
        CFI (cfiCond52) VB load(1, XDATA, add(CFA_XSP16, literal(-10)))
        CFI (cfiCond52) V0 load(1, XDATA, add(CFA_XSP16, literal(-9)))
        CFI (cfiCond52) V1 load(1, XDATA, add(CFA_XSP16, literal(-8)))
        CFI (cfiCond52) V2 load(1, XDATA, add(CFA_XSP16, literal(-7)))
        CFI (cfiCond52) R7 load(1, XDATA, add(CFA_XSP16, literal(-6)))
        CFI (cfiCond52) ?RET_LOW load(1, XDATA, add(CFA_XSP16, literal(-5)))
        CFI (cfiCond52) ?RET_HIGH load(1, XDATA, add(CFA_XSP16, literal(-4)))
        CFI (cfiCond52) ?BRET_EXT load(1, XDATA, add(CFA_XSP16, literal(-3)))
        CFI (cfiCond52) DPL0 load(1, XDATA, add(CFA_XSP16, literal(-2)))
        CFI (cfiCond52) DPH0 load(1, XDATA, add(CFA_XSP16, literal(-1)))
        CFI (cfiCond52) CFA_SP SP+0
        CFI (cfiCond52) CFA_XSP16 add(XSP16, 22)
        CFI Block cfiPicker53 Using cfiCommon1
        CFI (cfiPicker53) NoFunction
        CFI (cfiPicker53) Picker
        MOVX    @DPTR,A
        ; Setup parameters for call to function osal_memcpy
        ; Setup parameters for call to function NLME_GetExtAddr
        ; Setup parameters for call to function osal_memcpy
        ; Setup parameters for call to function NLME_GetExtAddr
        LCALL   ??NLME_GetExtAddr?relay
        MOV     ?V0 + 0,R2
        MOV     ?V0 + 1,R3
        MOV     ?V0 + 2,#0x0
        MOV     R0,#?V0 + 0
        RET
        CFI EndBlock cfiCond51
        CFI EndBlock cfiCond52
        CFI EndBlock cfiPicker53
//  619 
//  620 /**
//  621   协调器打印终端上传的长短地址
//  622 */

        RSEG BANKED_CODE:CODE:NOROOT(0)
//  623 void printAddrInfoHex(uint8* buf, uint8 dataLen) {
printAddrInfoHex:
        CFI Block cfiBlock54 Using cfiCommon0
        CFI Function printAddrInfoHex
        CODE
        FUNCALL printAddrInfoHex, myprintf
        LOCFRAME ISTACK, 0, STACK
        LOCFRAME PSTACK, 0, STACK
        LOCFRAME XSTACK, 13, STACK
        LOCFRAME IOVERLAY, 0, STATIC
        LOCFRAME DOVERLAY, 0, STATIC
        ARGFRAME ISTACK, 0, STACK
        ARGFRAME PSTACK, 0, STACK
        ARGFRAME XSTACK, 13, STACK
        ARGFRAME IOVERLAY, 0, STATIC
        ARGFRAME DOVERLAY, 0, STATIC
        FUNCALL printAddrInfoHex, myprintf
        LOCFRAME ISTACK, 0, STACK
        LOCFRAME PSTACK, 0, STACK
        LOCFRAME XSTACK, 13, STACK
        LOCFRAME IOVERLAY, 0, STATIC
        LOCFRAME DOVERLAY, 0, STATIC
        ARGFRAME ISTACK, 0, STACK
        ARGFRAME PSTACK, 0, STACK
        ARGFRAME XSTACK, 13, STACK
        ARGFRAME IOVERLAY, 0, STATIC
        ARGFRAME DOVERLAY, 0, STATIC
        FUNCALL printAddrInfoHex, myprintf
        LOCFRAME ISTACK, 0, STACK
        LOCFRAME PSTACK, 0, STACK
        LOCFRAME XSTACK, 15, STACK
        LOCFRAME IOVERLAY, 0, STATIC
        LOCFRAME DOVERLAY, 0, STATIC
        ARGFRAME ISTACK, 0, STACK
        ARGFRAME PSTACK, 0, STACK
        ARGFRAME XSTACK, 15, STACK
        ARGFRAME IOVERLAY, 0, STATIC
        ARGFRAME DOVERLAY, 0, STATIC
        FUNCALL printAddrInfoHex, myprintf
        LOCFRAME ISTACK, 0, STACK
        LOCFRAME PSTACK, 0, STACK
        LOCFRAME XSTACK, 13, STACK
        LOCFRAME IOVERLAY, 0, STATIC
        LOCFRAME DOVERLAY, 0, STATIC
        ARGFRAME ISTACK, 0, STACK
        ARGFRAME PSTACK, 0, STACK
        ARGFRAME XSTACK, 13, STACK
        ARGFRAME IOVERLAY, 0, STATIC
        ARGFRAME DOVERLAY, 0, STATIC
        MOV     A,#-0xd
        LCALL   ?BANKED_ENTER_XDATA
        CFI DPH0 load(1, XDATA, add(CFA_XSP16, literal(-1)))
        CFI DPL0 load(1, XDATA, add(CFA_XSP16, literal(-2)))
        CFI ?BRET_EXT load(1, XDATA, add(CFA_XSP16, literal(-3)))
        CFI ?RET_HIGH load(1, XDATA, add(CFA_XSP16, literal(-4)))
        CFI ?RET_LOW load(1, XDATA, add(CFA_XSP16, literal(-5)))
        CFI R7 load(1, XDATA, add(CFA_XSP16, literal(-6)))
        CFI V4 load(1, XDATA, add(CFA_XSP16, literal(-7)))
        CFI V3 load(1, XDATA, add(CFA_XSP16, literal(-8)))
        CFI V2 load(1, XDATA, add(CFA_XSP16, literal(-9)))
        CFI V1 load(1, XDATA, add(CFA_XSP16, literal(-10)))
        CFI V0 load(1, XDATA, add(CFA_XSP16, literal(-11)))
        CFI VB load(1, XDATA, add(CFA_XSP16, literal(-12)))
        CFI R6 load(1, XDATA, add(CFA_XSP16, literal(-13)))
        CFI CFA_SP SP+0
        CFI CFA_XSP16 add(XSP16, 13)
        ; Saved register size: 13
        ; Auto size: 0
        MOV     A,R2
        MOV     R6,A
        MOV     A,R3
        MOV     R7,A
        MOV     ?V0 + 4,R1
//  624   int i = 0;
//  625   
//  626   myprintf("\n");
        ; Setup parameters for call to function myprintf
        MOV     R2,#`?<Constant "\\n">` & 0xff
        MOV     R3,#(`?<Constant "\\n">` >> 8) & 0xff
        LCALL   ??myprintf?relay
//  627   for(i = 0; i < dataLen; i++) {
        MOV     ?V0 + 0,#0x0
        MOV     ?V0 + 1,#0x0
        SJMP    ??printAddrInfoHex_0
//  628     if(i == 2) {
??printAddrInfoHex_1:
        MOV     A,#0x2
        XRL     A,?V0 + 0
        JNZ     ??printAddrInfoHex_2
        MOV     A,?V0 + 1
??printAddrInfoHex_2:
        JNZ     ??printAddrInfoHex_3
//  629       myprintf("; IEEE = ");
        ; Setup parameters for call to function myprintf
        MOV     R2,#`?<Constant "; IEEE = ">` & 0xff
        MOV     R3,#(`?<Constant "; IEEE = ">` >> 8) & 0xff
        LCALL   ??myprintf?relay
//  630     }
//  631     myprintf("0x%x,", buf[i]);
??printAddrInfoHex_3:
        ; Setup parameters for call to function myprintf
        MOV     A,R6
        ADD     A,?V0 + 0
        MOV     DPL,A
        MOV     A,R7
        ADDC    A,?V0 + 1
        MOV     DPH,A
        LCALL   ?Subroutine8 & 0xFFFF
//  632   }
??CrossCallReturnLabel_10:
        LCALL   ?PUSH_XSTACK_I_TWO
        CFI CFA_XSP16 add(XSP16, 15)
        MOV     R2,#`?<Constant "0x%x,">` & 0xff
        MOV     R3,#(`?<Constant "0x%x,">` >> 8) & 0xff
        LCALL   ??myprintf?relay
        MOV     A,#0x2
        LCALL   ?DEALLOC_XSTACK8
        CFI CFA_XSP16 add(XSP16, 13)
        MOV     A,?V0 + 0
        ADD     A,#0x1
        MOV     ?V0 + 0,A
        MOV     A,?V0 + 1
        ADDC    A,#0x0
        MOV     ?V0 + 1,A
??printAddrInfoHex_0:
        MOV     ?V0 + 2,?V0 + 4
        CLR     C
        MOV     A,?V0 + 0
        SUBB    A,?V0 + 2
        MOV     A,?V0 + 1
        SUBB    A,#0x0
        MOV     C,0xD0 /* PSW */.2
        XRL     A,PSW
        RLC     A
        JC      ??printAddrInfoHex_1
//  633   myprintf("\n");
        ; Setup parameters for call to function myprintf
        MOV     R2,#`?<Constant "\\n">` & 0xff
        MOV     R3,#(`?<Constant "\\n">` >> 8) & 0xff
        LCALL   ??myprintf?relay
//  634 }
        MOV     R7,#0x5
        LJMP    ?BANKED_LEAVE_XDATA
        CFI EndBlock cfiBlock54

        RSEG BANKED_CODE:CODE:NOROOT(0)
?Subroutine8:
        CFI Block cfiCond55 Using cfiCommon0
        CFI NoFunction
        CFI Conditional ??CrossCallReturnLabel_9
        CFI R6 load(1, XDATA, add(CFA_XSP16, literal(-12)))
        CFI VB load(1, XDATA, add(CFA_XSP16, literal(-11)))
        CFI V0 load(1, XDATA, add(CFA_XSP16, literal(-10)))
        CFI V1 load(1, XDATA, add(CFA_XSP16, literal(-9)))
        CFI V2 load(1, XDATA, add(CFA_XSP16, literal(-8)))
        CFI V3 load(1, XDATA, add(CFA_XSP16, literal(-7)))
        CFI R7 load(1, XDATA, add(CFA_XSP16, literal(-6)))
        CFI ?RET_LOW load(1, XDATA, add(CFA_XSP16, literal(-5)))
        CFI ?RET_HIGH load(1, XDATA, add(CFA_XSP16, literal(-4)))
        CFI ?BRET_EXT load(1, XDATA, add(CFA_XSP16, literal(-3)))
        CFI DPL0 load(1, XDATA, add(CFA_XSP16, literal(-2)))
        CFI DPH0 load(1, XDATA, add(CFA_XSP16, literal(-1)))
        CFI CFA_SP SP+0
        CFI CFA_XSP16 add(XSP16, 15)
        CFI Block cfiCond56 Using cfiCommon0
        CFI (cfiCond56) NoFunction
        CFI (cfiCond56) Conditional ??CrossCallReturnLabel_10
        CFI (cfiCond56) R6 load(1, XDATA, add(CFA_XSP16, literal(-13)))
        CFI (cfiCond56) VB load(1, XDATA, add(CFA_XSP16, literal(-12)))
        CFI (cfiCond56) V0 load(1, XDATA, add(CFA_XSP16, literal(-11)))
        CFI (cfiCond56) V1 load(1, XDATA, add(CFA_XSP16, literal(-10)))
        CFI (cfiCond56) V2 load(1, XDATA, add(CFA_XSP16, literal(-9)))
        CFI (cfiCond56) V3 load(1, XDATA, add(CFA_XSP16, literal(-8)))
        CFI (cfiCond56) V4 load(1, XDATA, add(CFA_XSP16, literal(-7)))
        CFI (cfiCond56) R7 load(1, XDATA, add(CFA_XSP16, literal(-6)))
        CFI (cfiCond56) ?RET_LOW load(1, XDATA, add(CFA_XSP16, literal(-5)))
        CFI (cfiCond56) ?RET_HIGH load(1, XDATA, add(CFA_XSP16, literal(-4)))
        CFI (cfiCond56) ?BRET_EXT load(1, XDATA, add(CFA_XSP16, literal(-3)))
        CFI (cfiCond56) DPL0 load(1, XDATA, add(CFA_XSP16, literal(-2)))
        CFI (cfiCond56) DPH0 load(1, XDATA, add(CFA_XSP16, literal(-1)))
        CFI (cfiCond56) CFA_SP SP+0
        CFI (cfiCond56) CFA_XSP16 add(XSP16, 13)
        CFI Block cfiPicker57 Using cfiCommon1
        CFI (cfiPicker57) NoFunction
        CFI (cfiPicker57) Picker
        MOVX    A,@DPTR
        MOV     ?V0 + 2,A
        MOV     ?V0 + 3,#0x0
        MOV     R0,#?V0 + 2
        RET
        CFI EndBlock cfiCond55
        CFI EndBlock cfiCond56
        CFI EndBlock cfiPicker57
//  635 
//  636 /**
//  637   将十六进制数转变成字符
//  638 */

        RSEG BANKED_CODE:CODE:NOROOT(0)
//  639 void convertHexToStr(uint16 addr, uint8 lcdLineNum) {
convertHexToStr:
        CFI Block cfiBlock58 Using cfiCommon0
        CFI Function convertHexToStr
        CODE
        FUNCALL convertHexToStr, HalLcdWriteString
        LOCFRAME ISTACK, 0, STACK
        LOCFRAME PSTACK, 0, STACK
        LOCFRAME XSTACK, 18, STACK
        LOCFRAME IOVERLAY, 0, STATIC
        LOCFRAME DOVERLAY, 0, STATIC
        ARGFRAME ISTACK, 0, STACK
        ARGFRAME PSTACK, 0, STACK
        ARGFRAME XSTACK, 18, STACK
        ARGFRAME IOVERLAY, 0, STATIC
        ARGFRAME DOVERLAY, 0, STATIC
        MOV     A,#-0xb
        LCALL   ?BANKED_ENTER_XDATA
        CFI DPH0 load(1, XDATA, add(CFA_XSP16, literal(-1)))
        CFI DPL0 load(1, XDATA, add(CFA_XSP16, literal(-2)))
        CFI ?BRET_EXT load(1, XDATA, add(CFA_XSP16, literal(-3)))
        CFI ?RET_HIGH load(1, XDATA, add(CFA_XSP16, literal(-4)))
        CFI ?RET_LOW load(1, XDATA, add(CFA_XSP16, literal(-5)))
        CFI R7 load(1, XDATA, add(CFA_XSP16, literal(-6)))
        CFI V2 load(1, XDATA, add(CFA_XSP16, literal(-7)))
        CFI V1 load(1, XDATA, add(CFA_XSP16, literal(-8)))
        CFI V0 load(1, XDATA, add(CFA_XSP16, literal(-9)))
        CFI VB load(1, XDATA, add(CFA_XSP16, literal(-10)))
        CFI R6 load(1, XDATA, add(CFA_XSP16, literal(-11)))
        CFI CFA_SP SP+0
        CFI CFA_XSP16 add(XSP16, 11)
        ; Saved register size: 11
        ; Auto size: 7
        MOV     A,#-0x7
        LCALL   ?ALLOC_XSTACK8
        CFI CFA_XSP16 add(XSP16, 18)
        MOV     A,#0x5
        LCALL   ?XSTACK_DISP0_8
        MOV     A,R2
        MOVX    @DPTR,A
        INC     DPTR
        MOV     A,R3
        MOVX    @DPTR,A
        MOV     A,R1
        MOV     R6,A
//  640   uint8 i;
//  641   uint8 *xad;
//  642   uint8 lcd_buf[2*2+1];
//  643 
//  644   // Display the extended address.
//  645   xad = (uint8*)&addr + 2 - 1;
        MOV     R0,DPL
        MOV     R1,DPH
//  646 
//  647   for (i = 0; i < 2*2; xad--)
        MOV     R4,#0x0
//  648   {
//  649     uint8 ch;
//  650     ch = (*xad >> 4) & 0x0F;
??convertHexToStr_0:
        MOV     DPL,R0
        MOV     DPH,R1
        MOVX    A,@DPTR
        SWAP    A
        ANL     A,#0xf
        MOV     R5,A
//  651     lcd_buf[i++] = ch + (( ch < 10 ) ? '0' : '7'); // +7可以转变成大写字符ABCDEF
        MOV     A,R4
        MOV     R7,A
        INC     R4
        MOV     A,R5
        CLR     C
        SUBB    A,#0xa
        JNC     ??convertHexToStr_1
        MOV     R2,#0x30
        SJMP    ??convertHexToStr_2
??convertHexToStr_1:
        MOV     R2,#0x37
??convertHexToStr_2:
        MOV     A,R2
        ADD     A,R5
        PUSH    A
        CFI CFA_SP SP+-1
        MOV     ?V0 + 0,R7
        LCALL   ?Subroutine10 & 0xFFFF
??CrossCallReturnLabel_14:
        POP     A
        CFI CFA_SP SP+0
        MOVX    @DPTR,A
//  652     ch = *xad & 0x0F;
        MOV     DPL,R0
        MOV     DPH,R1
        MOVX    A,@DPTR
        ANL     A,#0xf
        MOV     R5,A
//  653     lcd_buf[i++] = ch + (( ch < 10 ) ? '0' : '7');
        MOV     ?V0 + 2,R4
        INC     R4
        CLR     C
        SUBB    A,#0xa
        JNC     ??convertHexToStr_3
        MOV     R2,#0x30
        SJMP    ??convertHexToStr_4
??convertHexToStr_3:
        MOV     R2,#0x37
??convertHexToStr_4:
        MOV     A,R2
        ADD     A,R5
        PUSH    A
        CFI CFA_SP SP+-1
        MOV     ?V0 + 0,?V0 + 2
        LCALL   ?Subroutine10 & 0xFFFF
//  654   }
??CrossCallReturnLabel_15:
        POP     A
        CFI CFA_SP SP+0
        MOVX    @DPTR,A
        MOV     A,R0
        ADD     A,#-0x1
        DEC     R0
        MOV     A,R1
        ADDC    A,#-0x1
        MOV     R1,A
        MOV     A,R4
        CLR     C
        SUBB    A,#0x4
        JC      ??convertHexToStr_0
//  655   lcd_buf[2*2] = '\0';
        MOV     A,#0x4
        LCALL   ?XSTACK_DISP0_8
        CLR     A
        MOVX    @DPTR,A
//  656   HalLcdWriteString( (char*)lcd_buf, lcdLineNum);
        ; Setup parameters for call to function HalLcdWriteString
        MOV     A,R6
        MOV     R1,A
        MOV     DPL,?XSP + 0
        MOV     DPH,?XSP + 1
        MOV     R2,DPL
        MOV     R3,DPH
        LCALL   ??HalLcdWriteString?relay
//  657 }
        MOV     A,#0x7
        CFI EndBlock cfiBlock58
        REQUIRE ?Subroutine0
        ; // Fall through to label ?Subroutine0

        RSEG BANKED_CODE:CODE:NOROOT(0)
?Subroutine0:
        CFI Block cfiBlock59 Using cfiCommon0
        CFI NoFunction
        CFI CFA_SP SP+0
        CFI CFA_XSP16 add(XSP16, 24)
        CFI VB load(1, XDATA, add(CFA_XSP16, literal(-10)))
        CFI DPL0 load(1, XDATA, add(CFA_XSP16, literal(-2)))
        CFI DPH0 load(1, XDATA, add(CFA_XSP16, literal(-1)))
        CFI R6 load(1, XDATA, add(CFA_XSP16, literal(-11)))
        CFI R7 load(1, XDATA, add(CFA_XSP16, literal(-6)))
        CFI V0 load(1, XDATA, add(CFA_XSP16, literal(-9)))
        CFI V1 load(1, XDATA, add(CFA_XSP16, literal(-8)))
        CFI V2 load(1, XDATA, add(CFA_XSP16, literal(-7)))
        CFI ?BRET_EXT load(1, XDATA, add(CFA_XSP16, literal(-3)))
        CFI ?RET_HIGH load(1, XDATA, add(CFA_XSP16, literal(-4)))
        CFI ?RET_LOW load(1, XDATA, add(CFA_XSP16, literal(-5)))
        CFI Invalid
        LCALL   ?DEALLOC_XSTACK8
        CFI EndBlock cfiBlock59
        REQUIRE ??Subroutine15_0
        ; // Fall through to label ??Subroutine15_0

        RSEG BANKED_CODE:CODE:NOROOT(0)
??Subroutine15_0:
        CFI Block cfiBlock60 Using cfiCommon0
        CFI NoFunction
        CFI CFA_SP SP+0
        CFI CFA_XSP16 add(XSP16, 11)
        CFI VB load(1, XDATA, add(CFA_XSP16, literal(-10)))
        CFI DPL0 load(1, XDATA, add(CFA_XSP16, literal(-2)))
        CFI DPH0 load(1, XDATA, add(CFA_XSP16, literal(-1)))
        CFI R6 load(1, XDATA, add(CFA_XSP16, literal(-11)))
        CFI R7 load(1, XDATA, add(CFA_XSP16, literal(-6)))
        CFI V0 load(1, XDATA, add(CFA_XSP16, literal(-9)))
        CFI V1 load(1, XDATA, add(CFA_XSP16, literal(-8)))
        CFI V2 load(1, XDATA, add(CFA_XSP16, literal(-7)))
        CFI ?BRET_EXT load(1, XDATA, add(CFA_XSP16, literal(-3)))
        CFI ?RET_HIGH load(1, XDATA, add(CFA_XSP16, literal(-4)))
        CFI ?RET_LOW load(1, XDATA, add(CFA_XSP16, literal(-5)))
        MOV     R7,#0x3
        LJMP    ?BANKED_LEAVE_XDATA
        CFI EndBlock cfiBlock60

        RSEG BANKED_CODE:CODE:NOROOT(0)
?Subroutine10:
        CFI Block cfiCond61 Using cfiCommon0
        CFI NoFunction
        CFI Conditional ??CrossCallReturnLabel_14
        CFI R6 load(1, XDATA, add(CFA_XSP16, literal(-11)))
        CFI VB load(1, XDATA, add(CFA_XSP16, literal(-10)))
        CFI V0 load(1, XDATA, add(CFA_XSP16, literal(-9)))
        CFI V1 load(1, XDATA, add(CFA_XSP16, literal(-8)))
        CFI V2 load(1, XDATA, add(CFA_XSP16, literal(-7)))
        CFI R7 load(1, XDATA, add(CFA_XSP16, literal(-6)))
        CFI ?RET_LOW load(1, XDATA, add(CFA_XSP16, literal(-5)))
        CFI ?RET_HIGH load(1, XDATA, add(CFA_XSP16, literal(-4)))
        CFI ?BRET_EXT load(1, XDATA, add(CFA_XSP16, literal(-3)))
        CFI DPL0 load(1, XDATA, add(CFA_XSP16, literal(-2)))
        CFI DPH0 load(1, XDATA, add(CFA_XSP16, literal(-1)))
        CFI CFA_SP SP+-1
        CFI CFA_XSP16 add(XSP16, 18)
        CFI Block cfiCond62 Using cfiCommon0
        CFI (cfiCond62) NoFunction
        CFI (cfiCond62) Conditional ??CrossCallReturnLabel_15
        CFI (cfiCond62) R6 load(1, XDATA, add(CFA_XSP16, literal(-11)))
        CFI (cfiCond62) VB load(1, XDATA, add(CFA_XSP16, literal(-10)))
        CFI (cfiCond62) V0 load(1, XDATA, add(CFA_XSP16, literal(-9)))
        CFI (cfiCond62) V1 load(1, XDATA, add(CFA_XSP16, literal(-8)))
        CFI (cfiCond62) V2 load(1, XDATA, add(CFA_XSP16, literal(-7)))
        CFI (cfiCond62) R7 load(1, XDATA, add(CFA_XSP16, literal(-6)))
        CFI (cfiCond62) ?RET_LOW load(1, XDATA, add(CFA_XSP16, literal(-5)))
        CFI (cfiCond62) ?RET_HIGH load(1, XDATA, add(CFA_XSP16, literal(-4)))
        CFI (cfiCond62) ?BRET_EXT load(1, XDATA, add(CFA_XSP16, literal(-3)))
        CFI (cfiCond62) DPL0 load(1, XDATA, add(CFA_XSP16, literal(-2)))
        CFI (cfiCond62) DPH0 load(1, XDATA, add(CFA_XSP16, literal(-1)))
        CFI (cfiCond62) CFA_SP SP+-1
        CFI (cfiCond62) CFA_XSP16 add(XSP16, 18)
        CFI Block cfiPicker63 Using cfiCommon1
        CFI (cfiPicker63) NoFunction
        CFI (cfiPicker63) Picker
        MOV     DPL,?XSP + 0
        MOV     DPH,?XSP + 1
        MOV     A,DPL
        ADD     A,?V0 + 0
        MOV     DPL,A
        MOV     A,DPH
        ADDC    A,#0x0
        MOV     DPH,A
        RET
        CFI EndBlock cfiCond61
        CFI EndBlock cfiCond62
        CFI EndBlock cfiPicker63

        RSEG BANK_RELAYS:CODE:REORDER:NOROOT(0)
??SampleApp_Init?relay:
        LCALL   ?BDISPATCH
        DATA
        DC24    SampleApp_Init

        RSEG BANK_RELAYS:CODE:REORDER:NOROOT(0)
??SampleApp_ProcessEvent?relay:
        LCALL   ?BDISPATCH
        DATA
        DC24    SampleApp_ProcessEvent

        RSEG BANK_RELAYS:CODE:REORDER:NOROOT(0)
??SampleApp_HandleKeys?relay:
        LCALL   ?BDISPATCH
        DATA
        DC24    SampleApp_HandleKeys

        RSEG BANK_RELAYS:CODE:REORDER:NOROOT(0)
??SampleApp_MessageMSGCB?relay:
        LCALL   ?BDISPATCH
        DATA
        DC24    SampleApp_MessageMSGCB

        RSEG BANK_RELAYS:CODE:REORDER:NOROOT(0)
??SampleApp_SendPeriodicMessage?relay:
        LCALL   ?BDISPATCH
        DATA
        DC24    SampleApp_SendPeriodicMessage

        RSEG BANK_RELAYS:CODE:REORDER:NOROOT(0)
??SampleApp_SendHeartBeatMessageCoor?relay:
        LCALL   ?BDISPATCH
        DATA
        DC24    SampleApp_SendHeartBeatMessageCoor

        RSEG BANK_RELAYS:CODE:REORDER:NOROOT(0)
??SampleApp_SendHeartBeatMessageEnd?relay:
        LCALL   ?BDISPATCH
        DATA
        DC24    SampleApp_SendHeartBeatMessageEnd

        RSEG BANK_RELAYS:CODE:REORDER:NOROOT(0)
??AfSendAddrInfo?relay:
        LCALL   ?BDISPATCH
        DATA
        DC24    AfSendAddrInfo

        RSEG BANK_RELAYS:CODE:REORDER:NOROOT(0)
??AfReplyGetCoinCmd?relay:
        LCALL   ?BDISPATCH
        DATA
        DC24    AfReplyGetCoinCmd

        RSEG BANK_RELAYS:CODE:REORDER:NOROOT(0)
??printAddrInfoHex?relay:
        LCALL   ?BDISPATCH
        DATA
        DC24    printAddrInfoHex

        RSEG BANK_RELAYS:CODE:REORDER:NOROOT(0)
??convertHexToStr?relay:
        LCALL   ?BDISPATCH
        DATA
        DC24    convertHexToStr

        RSEG XDATA_ROM_C:CONST:REORDER:NOROOT(0)
        DATA8
`?<Constant "Group 1">`:
        DB "Group 1"

        RSEG XDATA_ROM_C:CONST:REORDER:NOROOT(0)
        DATA8
`?<Constant "UartInit OK\\n">`:
        DB "UartInit OK\012"

        RSEG XDATA_ROM_C:CONST:REORDER:NOROOT(0)
        DATA8
`?<Constant "InitList_L OVERFLOW\\n">`:
        DB "InitList_L OVERFLOW\012"

        RSEG XDATA_ROM_C:CONST:REORDER:NOROOT(0)
        DATA8
`?<Constant {35, 69, 64}>`:
        DB 35
        DB 69
        DB 64

        RSEG XDATA_ROM_C:CONST:REORDER:NOROOT(0)
        DATA8
`?<Constant "ERROR:AF_DATA_CONFIRM...">`:
        DB "ERROR:AF_DATA_CONFIRM_CMD failed\012"

        RSEG XDATA_ROM_C:CONST:REORDER:NOROOT(0)
        DATA8
`?<Constant "unknown pkg-event = 0...">`:
        DB "unknown pkg-event = 0x%x\012"

        RSEG XDATA_ROM_C:CONST:REORDER:NOROOT(0)
        DATA8
`?<Constant "Insert new EP in list\\n">`:
        DB "Insert new EP in list\012"

        RSEG XDATA_ROM_C:CONST:REORDER:NOROOT(0)
        DATA32
`?<Constant {35, 49, 0, 64}>`:
        DATA8
        DB 35
        DB 49
        DB 0
        DB 64

        RSEG XDATA_ROM_C:CONST:REORDER:NOROOT(0)
        DATA8
`?<Constant {35, 70, 64}>`:
        DB 35
        DB 70
        DB 64

        RSEG XDATA_ROM_C:CONST:REORDER:NOROOT(0)
        DATA8
`?<Constant {0}>`:
        DB 0
        DB 0, 0, 0, 0, 0, 0, 0, 0
        DB 0, 0, 0, 0

        RSEG XDATA_ROM_C:CONST:REORDER:NOROOT(0)
        DATA8
`?<Constant {0}>_1`:
        DB 0
        DB 0, 0, 0, 0, 0, 0, 0, 0
        DB 0, 0

        RSEG XDATA_ROM_C:CONST:REORDER:NOROOT(0)
        DATA16
`?<Constant "\\n">`:
        DB "\012"

        RSEG XDATA_ROM_C:CONST:REORDER:NOROOT(0)
        DATA8
`?<Constant "; IEEE = ">`:
        DB "; IEEE = "

        RSEG XDATA_ROM_C:CONST:REORDER:NOROOT(0)
        DATA8
`?<Constant "0x%x,">`:
        DB "0x%x,"

        END
// 
// 1 851 bytes in segment BANKED_CODE
//    66 bytes in segment BANK_RELAYS
//     3 bytes in segment SFR_AN
//   197 bytes in segment XDATA_ROM_C
//    79 bytes in segment XDATA_Z
// 
// 1 917 bytes of CODE  memory
//   197 bytes of CONST memory
//     0 bytes of DATA  memory (+ 3 bytes shared)
//    79 bytes of XDATA memory
//
//Errors: none
//Warnings: none
